 slscsl

 Timestamp is 58efcd83 (Thu Apr 13 14:12:03 2017)

 Preferred load address is 10000000

 Start         Length     Name                   Class
 0001:00000000 00000062H _TEXT                   CODE
 0002:00000000 00036909H .text                   CODE
 0002:00036910 000030b4H .text$x                 CODE
 0002:000399d0 0000038bH .text$yc                CODE
 0002:00039d60 0000025bH .text$yd                CODE
 0003:00000000 00000314H .idata$5                DATA
 0003:00000314 00000004H .CRT$XCA                DATA
 0003:00000318 000000e8H .CRT$XCU                DATA
 0003:00000400 00000004H .CRT$XCZ                DATA
 0003:00000404 00000004H .CRT$XIA                DATA
 0003:00000408 00000004H .CRT$XIAA               DATA
 0003:0000040c 00000004H .CRT$XIC                DATA
 0003:00000410 00000004H .CRT$XIU                DATA
 0003:00000414 00000004H .CRT$XIZ                DATA
 0003:00000418 00000004H .CRT$XLA                DATA
 0003:0000041c 00000004H .CRT$XLC                DATA
 0003:00000420 00000004H .CRT$XLZ                DATA
 0003:00000424 00000004H .CRT$XTU                DATA
 0003:00000430 00003cc8H .rdata                  DATA
 0003:000040f8 00000018H .rdata$T                DATA
 0003:00004110 000000a7H .rdata$debug            DATA
 0003:000041b8 00002728H .rdata$r                DATA
 0003:000068e0 00000004H .rtc$IAA                DATA
 0003:000068e4 00000004H .rtc$IZZ                DATA
 0003:000068e8 00000004H .rtc$TAA                DATA
 0003:000068ec 00000004H .rtc$TZZ                DATA
 0003:000068f0 00005634H .xdata$x                DATA
 0003:0000bf24 00000078H .idata$2                DATA
 0003:0000bf9c 00000014H .idata$3                DATA
 0003:0000bfb0 00000314H .idata$4                DATA
 0003:0000c2c4 00001d66H .idata$6                DATA
 0003:0000e030 0000011fH .edata                  DATA
 0004:00000000 00003390H .data                   DATA
 0004:00003390 000007ecH .bss                    DATA
 0005:00000000 0000031aH _DATA                   DATA
 0006:00000000 00000001H .tls                    DATA
 0006:00000001 00000001H .tls$ZZZ                DATA
 0007:00000000 00000058H .rsrc$01                DATA
 0007:00000060 00000430H .rsrc$02                DATA

  Address         Publics by Value              Rva+Base       Lib:Object

 0000:00000000       ___safe_se_handler_table   00000000     <absolute>
 0000:00000000       __except_list              00000000     <absolute>
 0000:00000000       ___safe_se_handler_count   00000000     <absolute>
 0000:00009876       __fltused                  00009876     <absolute>
 0000:00009876       __ldused                   00009876     <absolute>
 0000:00000000       ___ImageBase               10000000     <linker-defined>
 0001:00000000       _DSSetHSzClr               10001000 f   labviewv:DSSetHSzClrv.i386.obj
 0001:0000000b       _DSNewHClr                 1000100b f   labviewv:DSNewHClrv.i386.obj
 0001:00000016       _DSDisposeHandle           10001016 f   labviewv:DSDisposeHandlev.i386.obj
 0001:00000021       _DSCopyHandle              10001021 f   labviewv:DSCopyHandlev.i386.obj
 0001:0000002c       _LStrFromPtr               1000102c f   labviewv:LStrFromPtrv.i386.obj
 0001:00000037       _ConvertUTF8StringToSystem 10001037 f   labviewv:ConvertUTF8StringToSystemv.i386.obj
 0001:00000042       _ConvertSystemStringToUTF8 10001042 f   labviewv:ConvertSystemStringToUTF8v.i386.obj
 0001:0000004d       _CallLVRT                  1000104d f   labviewv:lvlvrta.obj
 0002:00000000       ?makeSessionParameters@slscsl@@YA?AUSessionParameters@1@QAPAULStr@@000@Z 10002000 f   makeSessionParameters.obj
 0002:00000080       ??0SessionParameters@slscsl@@QAE@XZ 10002080 f i makeSessionParameters.obj
 0002:000000f0       ??1SessionParameters@slscsl@@QAE@XZ 100020f0 f i makeSessionParameters.obj
 0002:00000160       ??_Gbad_exception@std@@UAEPAXI@Z 10002160 f i AutoSwitchStateBufferLock.obj
 0002:00000160       ??_Ebad_exception@std@@UAEPAXI@Z 10002160 f i  CIL library: CIL module
 0002:00000190       ??1bad_alloc@std@@UAE@XZ   10002190 f i AutoSwitchStateBufferLock.obj
 0002:000001a0       ??_Ebad_alloc@std@@UAEPAXI@Z 100021a0 f i  CIL library: CIL module
 0002:000001a0       ??_Gbad_alloc@std@@UAEPAXI@Z 100021a0 f i AutoSwitchStateBufferLock.obj
 0002:000001d0       ??1ChannelIndex@sass@@QAE@XZ 100021d0 f i ChannelIndex.obj
 0002:000001d0       ?sp_enable_shared_from_this@detail@boost@@YAXZZ 100021d0 f i AutoSwitchStateBufferLock.obj
 0002:000001d0       ??3@YAXPAX0@Z              100021d0 f i AutoSwitchStateBufferLock.obj
 0002:000001e0       ??0logic_error@std@@QAE@ABV?$basic_string@DU?$char_traits@D@std@@V?$allocator@D@2@@1@@Z 100021e0 f i AutoSwitchStateBufferLock.obj
 0002:00000240       ??0length_error@std@@QAE@ABV?$basic_string@DU?$char_traits@D@std@@V?$allocator@D@2@@1@@Z 10002240 f i AutoSwitchStateBufferLock.obj
 0002:000002a0       ??0runtime_error@std@@QAE@ABV?$basic_string@DU?$char_traits@D@std@@V?$allocator@D@2@@1@@Z 100022a0 f i AutoSwitchStateBufferLock.obj
 0002:00000300       ??1runtime_error@std@@UAE@XZ 10002300 f i AutoSwitchStateBufferLock.obj
 0002:00000320       ?what@runtime_error@std@@UBEPBDXZ 10002320 f i AutoSwitchStateBufferLock.obj
 0002:00000320       ?what@logic_error@std@@UBEPBDXZ 10002320 f i AutoSwitchStateBufferLock.obj
 0002:00000330       ??_Gbad_function_call@boost@@UAEPAXI@Z 10002330 f i ChannelAPIInputProcessor.obj
 0002:00000330       ??_Ebad_function_call@boost@@UAEPAXI@Z 10002330 f i  CIL library: CIL module
 0002:00000330       ??_Eruntime_error@std@@UAEPAXI@Z 10002330 f i  CIL library: CIL module
 0002:00000330       ??_Gruntime_error@std@@UAEPAXI@Z 10002330 f i AutoSwitchStateBufferLock.obj
 0002:00000370       ??0runtime_error@std@@QAE@ABV01@@Z 10002370 f i AutoSwitchStateBufferLock.obj
 0002:000003d0       ??0logic_error@std@@QAE@ABV01@@Z 100023d0 f i AutoSwitchStateBufferLock.obj
 0002:00000430       ??0bad_alloc@std@@QAE@ABV01@@Z 10002430 f i AutoSwitchStateBufferLock.obj
 0002:00000450       ??0length_error@std@@QAE@ABV01@@Z 10002450 f i AutoSwitchStateBufferLock.obj
 0002:00000470       ??1exception@boost@@MAE@XZ 10002470 f i AutoSwitchStateBufferLock.obj
 0002:000004a0       ??1clone_base@exception_detail@boost@@UAE@XZ 100024a0 f i AutoSwitchStateBufferLock.obj
 0002:000004b0       ??_Eclone_base@exception_detail@boost@@UAEPAXI@Z 100024b0 f i  CIL library: CIL module
 0002:000004b0       ??_Gclone_base@exception_detail@boost@@UAEPAXI@Z 100024b0 f i AutoSwitchStateBufferLock.obj
 0002:000004e0       ?copy_boost_exception@exception_detail@boost@@YAXPAVexception@2@PBV32@@Z 100024e0 f i AutoSwitchStateBufferLock.obj
 0002:000005b0       ??1AutoSwitchStateBufferLockInterface@sass@@UAE@XZ 100025b0 f i AutoSwitchStateBufferLock.obj
 0002:000005c0       ??_EAutoSwitchStateBufferLockInterface@sass@@UAEPAXI@Z 100025c0 f i  CIL library: CIL module
 0002:000005c0       ??_GAutoSwitchStateBufferLockInterface@sass@@UAEPAXI@Z 100025c0 f i AutoSwitchStateBufferLock.obj
 0002:000005f0       ?destroy@sp_counted_base@detail@boost@@UAEXXZ 100025f0 f i AutoSwitchStateBufferLock.obj
 0002:00000600       ??1shared_count@detail@boost@@QAE@XZ 10002600 f i AutoSwitchStateBufferLock.obj
 0002:00000640       ?message@error_code@system@boost@@QBE?AV?$basic_string@DU?$char_traits@D@std@@V?$allocator@D@2@@std@@XZ 10002640 f i AutoSwitchStateBufferLock.obj
 0002:00000670       ??0system_error@system@boost@@QAE@Verror_code@12@PBD@Z 10002670 f i AutoSwitchStateBufferLock.obj
 0002:00000700       ??_Gthread_resource_error@boost@@UAEPAXI@Z 10002700 f i AutoSwitchStateBufferLock.obj
 0002:00000700       ??_Esystem_error@system@boost@@UAEPAXI@Z 10002700 f i  CIL library: CIL module
 0002:00000700       ??_Gthread_exception@boost@@UAEPAXI@Z 10002700 f i AutoSwitchStateBufferLock.obj
 0002:00000700       ??_Gsystem_error@system@boost@@UAEPAXI@Z 10002700 f i AutoSwitchStateBufferLock.obj
 0002:00000700       ??_Ethread_exception@boost@@UAEPAXI@Z 10002700 f i  CIL library: CIL module
 0002:00000700       ??_Ethread_resource_error@boost@@UAEPAXI@Z 10002700 f i  CIL library: CIL module
 0002:00000750       ?what@system_error@system@boost@@UBEPBDXZ 10002750 f i AutoSwitchStateBufferLock.obj
 0002:00000830       ??0thread_exception@boost@@QAE@HPBD@Z 10002830 f i AutoSwitchStateBufferLock.obj
 0002:00000860       ??1thread_resource_error@boost@@UAE@XZ 10002860 f i AutoSwitchStateBufferLock.obj
 0002:00000890       ?create_anonymous_event@win32@detail@boost@@YAPAXW4event_type@123@W4initial_event_state@123@@Z 10002890 f i AutoSwitchStateBufferLock.obj
 0002:00000900       ?lock@basic_timed_mutex@detail@boost@@QAEXXZ 10002900 f i AutoSwitchStateBufferLock.obj
 0002:00000990       ?mark_waiting_and_try_lock@basic_timed_mutex@detail@boost@@QAEXAAJ@Z 10002990 f i AutoSwitchStateBufferLock.obj
 0002:000009e0       ?clear_waiting_and_try_lock@basic_timed_mutex@detail@boost@@QAEXAAJ@Z 100029e0 f i AutoSwitchStateBufferLock.obj
 0002:00000a20       ?get_event@basic_timed_mutex@detail@boost@@AAEPAXXZ 10002a20 f i AutoSwitchStateBufferLock.obj
 0002:00000a60       ??1bad_alloc_@exception_detail@boost@@UAE@XZ 10002a60 f i AutoSwitchStateBufferLock.obj
 0002:00000aa0       ??_Gbad_alloc_@exception_detail@boost@@UAEPAXI@Z 10002aa0 f i AutoSwitchStateBufferLock.obj
 0002:00000aa0       ??_Ebad_alloc_@exception_detail@boost@@UAEPAXI@Z 10002aa0 f i  CIL library: CIL module
 0002:00000b00       ??1bad_exception_@exception_detail@boost@@UAE@XZ 10002b00 f i AutoSwitchStateBufferLock.obj
 0002:00000b40       ??_Gbad_exception_@exception_detail@boost@@UAEPAXI@Z 10002b40 f i AutoSwitchStateBufferLock.obj
 0002:00000b40       ??_Ebad_exception_@exception_detail@boost@@UAEPAXI@Z 10002b40 f i  CIL library: CIL module
 0002:00000ba0       ??0exception@boost@@QAE@ABV01@@Z 10002ba0 f i AutoSwitchStateBufferLock.obj
 0002:00000be0       ??0AutoSwitchStateBufferLock@slscsl@@QAE@AAVSwitchStateFactory@1@AAVmutex@boost@@AAV?$vector@EV?$allocator@E@std@@@std@@@Z 10002be0 f   AutoSwitchStateBufferLock.obj
 0002:00000c80       ??_GAutoSwitchStateBufferLock@slscsl@@UAEPAXI@Z 10002c80 f i AutoSwitchStateBufferLock.obj
 0002:00000c80       ??_EAutoSwitchStateBufferLock@slscsl@@UAEPAXI@Z 10002c80 f i  CIL library: CIL module
 0002:00000cb0       ??1AutoSwitchStateBufferLock@slscsl@@UAE@XZ 10002cb0 f   AutoSwitchStateBufferLock.obj
 0002:00000da0       ?appendCommandsToWrite@AutoSwitchStateBufferLock@slscsl@@UAEXABV?$vector@IV?$allocator@I@std@@@std@@@Z 10002da0 f   AutoSwitchStateBufferLock.obj
 0002:00000e20       ?commit@AutoSwitchStateBufferLock@slscsl@@UAEXXZ 10002e20 f   AutoSwitchStateBufferLock.obj
 0002:00000e30       ??1?$refcount_ptr@Uerror_info_container@exception_detail@boost@@@exception_detail@boost@@QAE@XZ 10002e30 f i AutoSwitchStateBufferLock.obj
 0002:00000e50       ??1?$lock_guard@Vmutex@boost@@@boost@@QAE@XZ 10002e50 f i AutoSwitchStateBufferLock.obj
 0002:00000e90       ??0?$vector@EV?$allocator@E@std@@@std@@QAE@ABV01@@Z 10002e90 f i AutoSwitchStateBufferLock.obj
 0002:00000f50       ??4?$vector@EV?$allocator@E@std@@@std@@QAEAAV01@ABV01@@Z 10002f50 f i AutoSwitchStateBufferLock.obj
 0002:00001040       ??1?$auto_ptr@VRelayIndexMap@sass@@@std@@QAE@XZ 10003040 f i Session.obj
 0002:00001040       ??1?$auto_ptr@VSwitchState@sass@@@std@@QAE@XZ 10003040 f i AutoSwitchStateBufferLock.obj
 0002:00001050       ?clear@?$vector@EV?$allocator@E@std@@@std@@QAEXXZ 10003050 f i AutoSwitchStateBufferLock.obj
 0002:000010a0       ?_Buy@?$vector@EV?$allocator@E@std@@@std@@IAE_NI@Z 100030a0 f i AutoSwitchStateBufferLock.obj
 0002:000010e0       ?erase@?$vector@EV?$allocator@E@std@@@std@@QAE?AV?$_Vector_iterator@EV?$allocator@E@std@@@2@V?$_Vector_const_iterator@EV?$allocator@E@std@@@2@0@Z 100030e0 f i AutoSwitchStateBufferLock.obj
 0002:00001170       ?allocate@?$allocator@E@std@@QAEPAEI@Z 10003170 f i AutoSwitchStateBufferLock.obj
 0002:000011c0       ??$throw_exception@Vthread_resource_error@boost@@@boost@@YAXABVthread_resource_error@0@@Z 100031c0 f i AutoSwitchStateBufferLock.obj
 0002:00001220       ??$_Ucopy@V?$_Vector_const_iterator@EV?$allocator@E@std@@@std@@@?$vector@EV?$allocator@E@std@@@std@@IAEPAEV?$_Vector_const_iterator@EV?$allocator@E@std@@@1@0PAE@Z 10003220 f i AutoSwitchStateBufferLock.obj
 0002:00001250       ??$_Ucopy@PAE@?$vector@EV?$allocator@E@std@@@std@@IAEPAEPAE00@Z 10003250 f i AutoSwitchStateBufferLock.obj
 0002:00001270       ??0clone_base@exception_detail@boost@@QAE@ABV012@@Z 10003270 f i AutoSwitchStateBufferLock.obj
 0002:00001280       ??_D?$clone_impl@U?$error_info_injector@Vthread_resource_error@boost@@@exception_detail@boost@@@exception_detail@boost@@QAEXXZ 10003280 f i AutoSwitchStateBufferLock.obj
 0002:000012c0       ??0?$clone_impl@U?$error_info_injector@Vthread_resource_error@boost@@@exception_detail@boost@@@exception_detail@boost@@QAE@ABV012@@Z 100032c0 f i AutoSwitchStateBufferLock.obj
 0002:00001360       ??0?$error_info_injector@Vthread_resource_error@boost@@@exception_detail@boost@@QAE@ABU012@@Z 10003360 f i AutoSwitchStateBufferLock.obj
 0002:000013f0       ??0thread_resource_error@boost@@QAE@ABV01@@Z 100033f0 f i AutoSwitchStateBufferLock.obj
 0002:00001410       ??0thread_exception@boost@@QAE@ABV01@@Z 10003410 f i AutoSwitchStateBufferLock.obj
 0002:00001430       ??0system_error@system@boost@@QAE@ABV012@@Z 10003430 f i AutoSwitchStateBufferLock.obj
 0002:000014a0       ??_E?$clone_impl@U?$error_info_injector@Vthread_resource_error@boost@@@exception_detail@boost@@@exception_detail@boost@@UAEPAXI@Z 100034a0 f i  CIL library: CIL module
 0002:000014a0       ??_G?$clone_impl@U?$error_info_injector@Vthread_resource_error@boost@@@exception_detail@boost@@@exception_detail@boost@@UAEPAXI@Z 100034a0 f i AutoSwitchStateBufferLock.obj
 0002:00001500       ??_E?$error_info_injector@Vthread_resource_error@boost@@@exception_detail@boost@@UAEPAXI@Z 10003500 f i  CIL library: CIL module
 0002:00001500       ??_G?$error_info_injector@Vthread_resource_error@boost@@@exception_detail@boost@@UAEPAXI@Z 10003500 f i AutoSwitchStateBufferLock.obj
 0002:00001530       ??1?$error_info_injector@Vthread_resource_error@boost@@@exception_detail@boost@@UAE@XZ 10003530 f i AutoSwitchStateBufferLock.obj
 0002:00001590       ?clone@?$clone_impl@U?$error_info_injector@Vthread_resource_error@boost@@@exception_detail@boost@@@exception_detail@boost@@EBEPBVclone_base@23@XZ 10003590 f i AutoSwitchStateBufferLock.obj
 0002:00001610       ?rethrow@?$clone_impl@U?$error_info_injector@Vthread_resource_error@boost@@@exception_detail@boost@@@exception_detail@boost@@EBEXXZ 10003610 f i AutoSwitchStateBufferLock.obj
 0002:00001640       ??0bad_exception@std@@QAE@ABV01@@Z 10003640 f i AutoSwitchStateBufferLock.obj
 0002:00001660       ??0?$clone_impl@U?$error_info_injector@Vthread_resource_error@boost@@@exception_detail@boost@@@exception_detail@boost@@AAE@ABV012@Uclone_tag@012@@Z 10003660 f i AutoSwitchStateBufferLock.obj
 0002:00001710       ??$enable_error_info@Vthread_resource_error@boost@@@boost@@YA?AU?$error_info_injector@Vthread_resource_error@boost@@@exception_detail@0@ABVthread_resource_error@0@@Z 10003710 f i AutoSwitchStateBufferLock.obj
 0002:00001760       ??$enable_current_exception@U?$error_info_injector@Vthread_resource_error@boost@@@exception_detail@boost@@@boost@@YA?AV?$clone_impl@U?$error_info_injector@Vthread_resource_error@boost@@@exception_detail@boost@@@exception_detail@0@ABU?$error_info_injector@Vthread_resource_error@boost@@@20@@Z 10003760 f i AutoSwitchStateBufferLock.obj
 0002:00001790       ??$get_static_exception_object@Ubad_alloc_@exception_detail@boost@@@exception_detail@boost@@YA?AVexception_ptr@1@XZ 10003790 f i AutoSwitchStateBufferLock.obj
 0002:00001960       ??$get_static_exception_object@Ubad_exception_@exception_detail@boost@@@exception_detail@boost@@YA?AVexception_ptr@1@XZ 10003960 f i AutoSwitchStateBufferLock.obj
 0002:00001b30       ??$_Insert@V?$_Vector_const_iterator@IV?$allocator@I@std@@@std@@@?$vector@IV?$allocator@I@std@@@std@@QAEXV?$_Vector_const_iterator@IV?$allocator@I@std@@@1@00Uforward_iterator_tag@1@@Z 10003b30 f i AutoSwitchStateBufferLock.obj
 0002:00001cb0       ??_D?$clone_impl@Ubad_alloc_@exception_detail@boost@@@exception_detail@boost@@QAEXXZ 10003cb0 f i AutoSwitchStateBufferLock.obj
 0002:00001cd0       ??0?$clone_impl@Ubad_alloc_@exception_detail@boost@@@exception_detail@boost@@QAE@ABV012@@Z 10003cd0 f i AutoSwitchStateBufferLock.obj
 0002:00001d70       ??_D?$clone_impl@Ubad_exception_@exception_detail@boost@@@exception_detail@boost@@QAEXXZ 10003d70 f i AutoSwitchStateBufferLock.obj
 0002:00001d90       ??0?$clone_impl@Ubad_exception_@exception_detail@boost@@@exception_detail@boost@@QAE@ABV012@@Z 10003d90 f i AutoSwitchStateBufferLock.obj
 0002:00001e30       ??_E?$clone_impl@Ubad_alloc_@exception_detail@boost@@@exception_detail@boost@@UAEPAXI@Z 10003e30 f i  CIL library: CIL module
 0002:00001e30       ??_G?$clone_impl@Ubad_alloc_@exception_detail@boost@@@exception_detail@boost@@UAEPAXI@Z 10003e30 f i AutoSwitchStateBufferLock.obj
 0002:00001e60       ??0bad_alloc_@exception_detail@boost@@QAE@ABU012@@Z 10003e60 f i AutoSwitchStateBufferLock.obj
 0002:00001ef0       ??_G?$clone_impl@Ubad_exception_@exception_detail@boost@@@exception_detail@boost@@UAEPAXI@Z 10003ef0 f i AutoSwitchStateBufferLock.obj
 0002:00001ef0       ??_E?$clone_impl@Ubad_exception_@exception_detail@boost@@@exception_detail@boost@@UAEPAXI@Z 10003ef0 f i  CIL library: CIL module
 0002:00001f20       ??0bad_exception_@exception_detail@boost@@QAE@ABU012@@Z 10003f20 f i AutoSwitchStateBufferLock.obj
 0002:00001fb0       ?_Reverse@?$vector@IV?$allocator@I@std@@@std@@QAEXPAI0@Z 10003fb0 f i AutoSwitchStateBufferLock.obj
 0002:00001fd0       ??0?$clone_impl@U?$error_info_injector@Vthread_resource_error@boost@@@exception_detail@boost@@@exception_detail@boost@@QAE@ABU?$error_info_injector@Vthread_resource_error@boost@@@12@@Z 10003fd0 f i AutoSwitchStateBufferLock.obj
 0002:00002080       ??0?$clone_impl@Ubad_alloc_@exception_detail@boost@@@exception_detail@boost@@QAE@ABUbad_alloc_@12@@Z 10004080 f i AutoSwitchStateBufferLock.obj
 0002:00002120       ??1?$clone_impl@Ubad_alloc_@exception_detail@boost@@@exception_detail@boost@@UAE@XZ 10004120 f i AutoSwitchStateBufferLock.obj
 0002:00002190       ?clone@?$clone_impl@Ubad_alloc_@exception_detail@boost@@@exception_detail@boost@@EBEPBVclone_base@23@XZ 10004190 f i AutoSwitchStateBufferLock.obj
 0002:00002210       ?rethrow@?$clone_impl@Ubad_alloc_@exception_detail@boost@@@exception_detail@boost@@EBEXXZ 10004210 f i AutoSwitchStateBufferLock.obj
 0002:00002240       ??0?$clone_impl@Ubad_exception_@exception_detail@boost@@@exception_detail@boost@@QAE@ABUbad_exception_@12@@Z 10004240 f i AutoSwitchStateBufferLock.obj
 0002:000022e0       ??1?$clone_impl@Ubad_exception_@exception_detail@boost@@@exception_detail@boost@@UAE@XZ 100042e0 f i AutoSwitchStateBufferLock.obj
 0002:00002350       ?clone@?$clone_impl@Ubad_exception_@exception_detail@boost@@@exception_detail@boost@@EBEPBVclone_base@23@XZ 10004350 f i AutoSwitchStateBufferLock.obj
 0002:000023d0       ?rethrow@?$clone_impl@Ubad_exception_@exception_detail@boost@@@exception_detail@boost@@EBEXXZ 100043d0 f i AutoSwitchStateBufferLock.obj
 0002:00002400       ??0?$clone_impl@Ubad_alloc_@exception_detail@boost@@@exception_detail@boost@@AAE@ABV012@Uclone_tag@012@@Z 10004400 f i AutoSwitchStateBufferLock.obj
 0002:000024a0       ??0?$clone_impl@Ubad_exception_@exception_detail@boost@@@exception_detail@boost@@AAE@ABV012@Uclone_tag@012@@Z 100044a0 f i AutoSwitchStateBufferLock.obj
 0002:00002540       ??$?0V?$clone_impl@Ubad_alloc_@exception_detail@boost@@@exception_detail@boost@@@?$shared_ptr@$$CBVclone_base@exception_detail@boost@@@boost@@QAE@PAV?$clone_impl@Ubad_alloc_@exception_detail@boost@@@exception_detail@1@@Z 10004540 f i AutoSwitchStateBufferLock.obj
 0002:000025b0       ??$?0V?$clone_impl@Ubad_exception_@exception_detail@boost@@@exception_detail@boost@@@?$shared_ptr@$$CBVclone_base@exception_detail@boost@@@boost@@QAE@PAV?$clone_impl@Ubad_exception_@exception_detail@boost@@@exception_detail@1@@Z 100045b0 f i AutoSwitchStateBufferLock.obj
 0002:00002620       ??$_Umove@PAI@?$vector@IV?$allocator@I@std@@@std@@IAEPAIPAI00@Z 10004620 f i AutoSwitchStateBufferLock.obj
 0002:00002650       ??$_Ucopy@V?$_Vector_const_iterator@IV?$allocator@I@std@@@std@@@?$vector@IV?$allocator@I@std@@@std@@IAEPAIV?$_Vector_const_iterator@IV?$allocator@I@std@@@1@0PAI@Z 10004650 f i AutoSwitchStateBufferLock.obj
 0002:00002690       ??$sp_pointer_construct@$$CBVclone_base@exception_detail@boost@@V?$clone_impl@Ubad_alloc_@exception_detail@boost@@@23@@detail@boost@@YAXPAV?$shared_ptr@$$CBVclone_base@exception_detail@boost@@@1@PAV?$clone_impl@Ubad_alloc_@exception_detail@boost@@@exception_detail@1@AAVshared_count@01@@Z 10004690 f i AutoSwitchStateBufferLock.obj
 0002:00002700       ??$sp_pointer_construct@$$CBVclone_base@exception_detail@boost@@V?$clone_impl@Ubad_exception_@exception_detail@boost@@@23@@detail@boost@@YAXPAV?$shared_ptr@$$CBVclone_base@exception_detail@boost@@@1@PAV?$clone_impl@Ubad_exception_@exception_detail@boost@@@exception_detail@1@AAVshared_count@01@@Z 10004700 f i AutoSwitchStateBufferLock.obj
 0002:00002770       ??$?0V?$clone_impl@Ubad_alloc_@exception_detail@boost@@@exception_detail@boost@@@shared_count@detail@boost@@QAE@PAV?$clone_impl@Ubad_alloc_@exception_detail@boost@@@exception_detail@2@@Z 10004770 f i AutoSwitchStateBufferLock.obj
 0002:00002800       ??$?0V?$clone_impl@Ubad_exception_@exception_detail@boost@@@exception_detail@boost@@@shared_count@detail@boost@@QAE@PAV?$clone_impl@Ubad_exception_@exception_detail@boost@@@exception_detail@2@@Z 10004800 f i AutoSwitchStateBufferLock.obj
 0002:00002890       ?get_deleter@?$sp_counted_impl_p@V?$clone_impl@Ubad_alloc_@exception_detail@boost@@@exception_detail@boost@@@detail@boost@@UAEPAXABVtype_info@@@Z 10004890 f i AutoSwitchStateBufferLock.obj
 0002:00002890       ?get_deleter@?$sp_counted_impl_p@V?$clone_impl@Ubad_exception_@exception_detail@boost@@@exception_detail@boost@@@detail@boost@@UAEPAXABVtype_info@@@Z 10004890 f i AutoSwitchStateBufferLock.obj
 0002:000028a0       ?dispose@?$sp_counted_impl_p@V?$clone_impl@Ubad_alloc_@exception_detail@boost@@@exception_detail@boost@@@detail@boost@@UAEXXZ 100048a0 f i AutoSwitchStateBufferLock.obj
 0002:000028a0       ?dispose@?$sp_counted_impl_p@V?$clone_impl@Ubad_exception_@exception_detail@boost@@@exception_detail@boost@@@detail@boost@@UAEXXZ 100048a0 f i AutoSwitchStateBufferLock.obj
 0002:000028b0       ?get_untyped_deleter@?$sp_counted_impl_p@V?$clone_impl@Ubad_alloc_@exception_detail@boost@@@exception_detail@boost@@@detail@boost@@UAEPAXXZ 100048b0 f i AutoSwitchStateBufferLock.obj
 0002:000028b0       ?get_untyped_deleter@?$sp_counted_impl_p@V?$clone_impl@Ubad_exception_@exception_detail@boost@@@exception_detail@boost@@@detail@boost@@UAEPAXXZ 100048b0 f i AutoSwitchStateBufferLock.obj
 0002:000028c0       ??_E?$sp_counted_impl_p@V?$clone_impl@Ubad_alloc_@exception_detail@boost@@@exception_detail@boost@@@detail@boost@@UAEPAXI@Z 100048c0 f i  CIL library: CIL module
 0002:000028c0       ??_Esp_counted_base@detail@boost@@UAEPAXI@Z 100048c0 f i  CIL library: CIL module
 0002:000028c0       ??_G?$sp_counted_impl_pd@PAEU?$checked_array_deleter@E@boost@@@detail@boost@@UAEPAXI@Z 100048c0 f i PathFinder.obj
 0002:000028c0       ??_G?$sp_counted_impl_p@V?$clone_impl@Ubad_exception_@exception_detail@boost@@@exception_detail@boost@@@detail@boost@@UAEPAXI@Z 100048c0 f i AutoSwitchStateBufferLock.obj
 0002:000028c0       ??_E?$sp_counted_impl_p@V?$clone_impl@Ubad_exception_@exception_detail@boost@@@exception_detail@boost@@@detail@boost@@UAEPAXI@Z 100048c0 f i  CIL library: CIL module
 0002:000028c0       ??_E?$sp_counted_impl_pd@PAEU?$checked_array_deleter@E@boost@@@detail@boost@@UAEPAXI@Z 100048c0 f i  CIL library: CIL module
 0002:000028c0       ??_G?$sp_counted_impl_p@V?$clone_impl@Ubad_alloc_@exception_detail@boost@@@exception_detail@boost@@@detail@boost@@UAEPAXI@Z 100048c0 f i AutoSwitchStateBufferLock.obj
 0002:000028c0       ??_Gsp_counted_base@detail@boost@@UAEPAXI@Z 100048c0 f i AutoSwitchStateBufferLock.obj
 0002:000028f0       ??$checked_delete@V?$clone_impl@Ubad_exception_@exception_detail@boost@@@exception_detail@boost@@@boost@@YAXPAV?$clone_impl@Ubad_exception_@exception_detail@boost@@@exception_detail@0@@Z 100048f0 f i AutoSwitchStateBufferLock.obj
 0002:000028f0       ??$checked_delete@V?$clone_impl@Ubad_alloc_@exception_detail@boost@@@exception_detail@boost@@@boost@@YAXPAV?$clone_impl@Ubad_alloc_@exception_detail@boost@@@exception_detail@0@@Z 100048f0 f i AutoSwitchStateBufferLock.obj
 0002:00002910       ??_E?$error_info_injector@Vthread_resource_error@boost@@@exception_detail@boost@@WEM@AEPAXI@Z 10004910 f i AutoSwitchStateBufferLock.obj
 0002:00002920       ?rethrow@?$clone_impl@U?$error_info_injector@Vthread_resource_error@boost@@@exception_detail@boost@@@exception_detail@boost@@$0PPPPPPPM@A@BEXXZ 10004920 f i AutoSwitchStateBufferLock.obj
 0002:00002930       ??_E?$clone_impl@U?$error_info_injector@Vthread_resource_error@boost@@@exception_detail@boost@@@exception_detail@boost@@WEM@AEPAXI@Z 10004930 f i AutoSwitchStateBufferLock.obj
 0002:00002940       ??_E?$clone_impl@Ubad_exception_@exception_detail@boost@@@exception_detail@boost@@$4PPPPPPPM@CI@AEPAXI@Z 10004940 f i AutoSwitchStateBufferLock.obj
 0002:00002950       ?clone@?$clone_impl@Ubad_alloc_@exception_detail@boost@@@exception_detail@boost@@$0PPPPPPPM@A@BEPBVclone_base@23@XZ 10004950 f i AutoSwitchStateBufferLock.obj
 0002:00002960       ??_Ebad_exception_@exception_detail@boost@@WBE@AEPAXI@Z 10004960 f i AutoSwitchStateBufferLock.obj
 0002:00002970       ??_Ebad_alloc_@exception_detail@boost@@WBE@AEPAXI@Z 10004970 f i AutoSwitchStateBufferLock.obj
 0002:00002980       ?rethrow@?$clone_impl@Ubad_exception_@exception_detail@boost@@@exception_detail@boost@@$0PPPPPPPM@A@BEXXZ 10004980 f i AutoSwitchStateBufferLock.obj
 0002:00002990       ??_E?$clone_impl@Ubad_alloc_@exception_detail@boost@@@exception_detail@boost@@$4PPPPPPPM@CI@AEPAXI@Z 10004990 f i AutoSwitchStateBufferLock.obj
 0002:000029a0       ??_E?$clone_impl@Ubad_exception_@exception_detail@boost@@@exception_detail@boost@@WBE@AEPAXI@Z 100049a0 f i AutoSwitchStateBufferLock.obj
 0002:000029b0       ?clone@?$clone_impl@U?$error_info_injector@Vthread_resource_error@boost@@@exception_detail@boost@@@exception_detail@boost@@$0PPPPPPPM@A@BEPBVclone_base@23@XZ 100049b0 f i AutoSwitchStateBufferLock.obj
 0002:000029c0       ?rethrow@?$clone_impl@Ubad_alloc_@exception_detail@boost@@@exception_detail@boost@@$0PPPPPPPM@A@BEXXZ 100049c0 f i AutoSwitchStateBufferLock.obj
 0002:000029d0       ??_E?$clone_impl@Ubad_alloc_@exception_detail@boost@@@exception_detail@boost@@WBE@AEPAXI@Z 100049d0 f i AutoSwitchStateBufferLock.obj
 0002:000029e0       ??_E?$clone_impl@U?$error_info_injector@Vthread_resource_error@boost@@@exception_detail@boost@@@exception_detail@boost@@$4PPPPPPPM@GI@AEPAXI@Z 100049e0 f i AutoSwitchStateBufferLock.obj
 0002:000029f0       ?clone@?$clone_impl@Ubad_exception_@exception_detail@boost@@@exception_detail@boost@@$0PPPPPPPM@A@BEPBVclone_base@23@XZ 100049f0 f i AutoSwitchStateBufferLock.obj
 0002:00002a00       ??6nierr@@YAAAV?$ObjectInserter@VInserterBase@jsonz@@@jsonz@@ABV12@ABVLocation@0@@Z 10004a00 f i ChannelActionProcessor.obj
 0002:00002a60       ??1Status@nierr@@QAE@XZ    10004a60 f i ChannelActionProcessor.obj
 0002:00002a80       ?jsonz_growFunc@Status@nierr@@SAPADPADPAX@Z 10004a80 f i ChannelActionProcessor.obj
 0002:00002ad0       ?assignMove@Status@nierr@@QAE_NAAV12@PA_N@Z 10004ad0 f i ChannelActionProcessor.obj
 0002:00002b20       ?jsonInserter@Status@nierr@@QAE?AV?$ObjectInserter@VInserterBase@jsonz@@@jsonz@@XZ 10004b20 f i ChannelActionProcessor.obj
 0002:00002b60       ??0ExceptionBase@nierr@@QAE@ABV01@@Z 10004b60 f i ChannelActionProcessor.obj
 0002:00002c00       ??1ExceptionBase@nierr@@UAE@XZ 10004c00 f i ChannelActionProcessor.obj
 0002:00002c20       ??_EExceptionBase@nierr@@UAEPAXI@Z 10004c20 f i  CIL library: CIL module
 0002:00002c20       ??_GExceptionBase@nierr@@UAEPAXI@Z 10004c20 f i ChannelActionProcessor.obj
 0002:00002c60       ??0Exception@nierr@@QAE@XZ 10004c60 f i ChannelActionProcessor.obj
 0002:00002d00       ?what@Exception@nierr@@UBEPBDXZ 10004d00 f i ChannelActionProcessor.obj
 0002:00002d10       ??_EException@nierr@@UAEPAXI@Z 10004d10 f i  CIL library: CIL module
 0002:00002d10       ??_GException@nierr@@UAEPAXI@Z 10004d10 f i ChannelActionProcessor.obj
 0002:00002d40       ??_DException@nierr@@QAEXXZ 10004d40 f i ChannelActionProcessor.obj
 0002:00002da0       ??6nimxl@@YAAAV?$ArrayInserter@V?$ObjectInserter@V?$ObjectInserter@VInserterBase@jsonz@@@jsonz@@@jsonz@@@jsonz@@AAV12@ABVElaboration@0@@Z 10004da0 f i ChannelActionProcessor.obj
 0002:00002df0       ??0MxlInfoBegin@nimxl@@QAE@PBDAAVStatus@nierr@@@Z 10004df0 f i ChannelActionProcessor.obj
 0002:00002e30       ??_GChannelActionProcessor@slscsl@@UAEPAXI@Z 10004e30 f i ChannelActionProcessor.obj
 0002:00002e30       ??_EChannelActionProcessor@slscsl@@UAEPAXI@Z 10004e30 f i  CIL library: CIL module
 0002:00002e60       ??1ChannelActionProcessor@slscsl@@UAE@XZ 10004e60 f   ChannelActionProcessor.obj
 0002:00002e70       ?process@ChannelActionProcessor@slscsl@@QAE?AV?$vector@VSwitchAction@sass@@V?$allocator@VSwitchAction@sass@@@std@@@std@@ABV?$vector@VChannelAction@sass@@V?$allocator@VChannelAction@sass@@@std@@@4@AAVAutoSwitchStateBufferLockInterface@sass@@@Z 10004e70 f   ChannelActionProcessor.obj
 0002:00003120       ?createExplicitChannelAction@ChannelActionProcessor@slscsl@@ABE?AVChannelAction@sass@@ABV34@@Z 10005120 f   ChannelActionProcessor.obj
 0002:000035f0       ??0Exception@nierr@@QAE@ABV01@@Z 100055f0 f i ChannelActionProcessor.obj
 0002:000036a0       ??4?$vector@VChannelIndex@sass@@V?$allocator@VChannelIndex@sass@@@std@@@std@@QAEAAV01@ABV01@@Z 100056a0 f i ChannelActionProcessor.obj
 0002:00003780       ?back@?$vector@VChannelIndex@sass@@V?$allocator@VChannelIndex@sass@@@std@@@std@@QBEABVChannelIndex@sass@@XZ 10005780 f i ChannelActionProcessor.obj
 0002:00003800       ??0?$vector@VSwitchAction@sass@@V?$allocator@VSwitchAction@sass@@@std@@@std@@QAE@ABV01@@Z 10005800 f i ChannelActionProcessor.obj
 0002:00003900       ??1?$vector@IV?$allocator@I@std@@@std@@QAE@XZ 10005900 f i AutoSwitchStateBufferLock.obj
 0002:00003900       ??1?$vector@VSwitchAction@sass@@V?$allocator@VSwitchAction@sass@@@std@@@std@@QAE@XZ 10005900 f i ChannelActionProcessor.obj
 0002:00003900       ??1stored_vertex@config@?$adj_list_gen@V?$adjacency_list@UvecS@boost@@U12@UundirectedS@2@Uno_property@2@U?$property@W4edge_weight_t@boost@@EUno_property@2@@2@U42@UlistS@2@@boost@@UvecS@2@U32@UundirectedS@2@Uno_property@2@U?$property@W4edge_weight_t@boost@@EUno_property@2@@2@U52@UlistS@2@@detail@boost@@QAE@XZ 10005900 f i PathFindingGraph.obj
 0002:00003900       ?destroy@?$allocator@Ustored_vertex@config@?$adj_list_gen@V?$adjacency_list@UvecS@boost@@U12@UundirectedS@2@Uno_property@2@U?$property@W4edge_weight_t@boost@@EUno_property@2@@2@U42@UlistS@2@@boost@@UvecS@2@U32@UundirectedS@2@Uno_property@2@U?$property@W4edge_weight_t@boost@@EUno_property@2@@2@U52@UlistS@2@@detail@boost@@@std@@QAEXPAUstored_vertex@config@?$adj_list_gen@V?$adjacency_list@UvecS@boost@@U12@UundirectedS@2@Uno_property@2@U?$property@W4edge_weight_t@boost@@EUno_property@2@@2@U42@UlistS@2@@boost@@UvecS@2@U32@UundirectedS@2@Uno_property@2@U?$property@W4edge_weight_t@boost@@EUno_property@2@@2@U52@UlistS@2@@detail@boost@@@Z 10005900 f i PathFindingGraph.obj
 0002:00003900       ??1?$vector@EV?$allocator@E@std@@@std@@QAE@XZ 10005900 f i AutoSwitchStateBufferLock.obj
 0002:00003900       ??1?$vector@VChannelIndex@sass@@V?$allocator@VChannelIndex@sass@@@std@@@std@@QAE@XZ 10005900 f i ChannelActionProcessor.obj
 0002:00003930       ??4?$vector@VSwitchAction@sass@@V?$allocator@VSwitchAction@sass@@@std@@@std@@QAEAAV01@ABV01@@Z 10005930 f i ChannelActionProcessor.obj
 0002:00003a70       ??1?$vector@VChannelAction@sass@@V?$allocator@VChannelAction@sass@@@std@@@std@@QAE@XZ 10005a70 f i ChannelActionProcessor.obj
 0002:00003af0       ?reserve@?$vector@VChannelAction@sass@@V?$allocator@VChannelAction@sass@@@std@@@std@@QAEXI@Z 10005af0 f i ChannelActionProcessor.obj
 0002:00003c30       ?push_back@?$vector@VChannelAction@sass@@V?$allocator@VChannelAction@sass@@@std@@@std@@QAEXABVChannelAction@sass@@@Z 10005c30 f i ChannelActionProcessor.obj
 0002:00003cd0       ?clear@?$vector@VChannelIndex@sass@@V?$allocator@VChannelIndex@sass@@@std@@@std@@QAEXXZ 10005cd0 f i ChannelActionProcessor.obj
 0002:00003d20       ?_Buy@?$vector@VChannelIndex@sass@@V?$allocator@VChannelIndex@sass@@@std@@@std@@IAE_NI@Z 10005d20 f i ChannelActionProcessor.obj
 0002:00003d50       ?_Tidy@?$vector@VChannelIndex@sass@@V?$allocator@VChannelIndex@sass@@@std@@@std@@IAEXXZ 10005d50 f i ChannelActionProcessor.obj
 0002:00003d50       ?_Tidy@?$vector@V?$stored_edge_iter@IV?$_Iterator@$00@?$list@U?$list_edge@IU?$property@W4edge_weight_t@boost@@EUno_property@2@@boost@@@boost@@V?$allocator@U?$list_edge@IU?$property@W4edge_weight_t@boost@@EUno_property@2@@boost@@@boost@@@std@@@std@@U?$property@W4edge_weight_t@boost@@EUno_property@2@@boost@@@detail@boost@@V?$allocator@V?$stored_edge_iter@IV?$_Iterator@$00@?$list@U?$list_edge@IU?$property@W4edge_weight_t@boost@@EUno_property@2@@boost@@@boost@@V?$allocator@U?$list_edge@IU?$property@W4edge_weight_t@boost@@EUno_property@2@@boost@@@boost@@@std@@@std@@U?$property@W4edge_weight_t@boost@@EUno_property@2@@boost@@@detail@boost@@@std@@@std@@IAEXXZ 10005d50 f i PathFindingGraph.obj
 0002:00003d50       ?_Tidy@?$vector@VSwitchAction@sass@@V?$allocator@VSwitchAction@sass@@@std@@@std@@IAEXXZ 10005d50 f i ChannelActionProcessor.obj
 0002:00003d80       ?clear@?$vector@VSwitchAction@sass@@V?$allocator@VSwitchAction@sass@@@std@@@std@@QAEXXZ 10005d80 f i ChannelActionProcessor.obj
 0002:00003d80       ?clear@?$vector@V?$stored_edge_iter@IV?$_Iterator@$00@?$list@U?$list_edge@IU?$property@W4edge_weight_t@boost@@EUno_property@2@@boost@@@boost@@V?$allocator@U?$list_edge@IU?$property@W4edge_weight_t@boost@@EUno_property@2@@boost@@@boost@@@std@@@std@@U?$property@W4edge_weight_t@boost@@EUno_property@2@@boost@@@detail@boost@@V?$allocator@V?$stored_edge_iter@IV?$_Iterator@$00@?$list@U?$list_edge@IU?$property@W4edge_weight_t@boost@@EUno_property@2@@boost@@@boost@@V?$allocator@U?$list_edge@IU?$property@W4edge_weight_t@boost@@EUno_property@2@@boost@@@boost@@@std@@@std@@U?$property@W4edge_weight_t@boost@@EUno_property@2@@boost@@@detail@boost@@@std@@@std@@QAEXXZ 10005d80 f i PathFindingGraph.obj
 0002:00003dd0       ?_Buy@?$vector@VSwitchAction@sass@@V?$allocator@VSwitchAction@sass@@@std@@@std@@IAE_NI@Z 10005dd0 f i ChannelActionProcessor.obj
 0002:00003e00       ?insert@?$vector@VChannelAction@sass@@V?$allocator@VChannelAction@sass@@@std@@@std@@QAE?AV?$_Vector_iterator@VChannelAction@sass@@V?$allocator@VChannelAction@sass@@@std@@@2@V?$_Vector_const_iterator@VChannelAction@sass@@V?$allocator@VChannelAction@sass@@@std@@@2@ABVChannelAction@sass@@@Z 10005e00 f i ChannelActionProcessor.obj
 0002:00003ed0       ?_Destroy@?$vector@VChannelAction@sass@@V?$allocator@VChannelAction@sass@@@std@@@std@@IAEXPAVChannelAction@sass@@0@Z 10005ed0 f i ChannelActionProcessor.obj
 0002:00003ef0       ?_Ufill@?$vector@VChannelAction@sass@@V?$allocator@VChannelAction@sass@@@std@@@std@@IAEPAVChannelAction@sass@@PAV34@IABV34@@Z 10005ef0 f i ChannelActionProcessor.obj
 0002:00003f20       ?_Xlen@?$vector@IV?$allocator@I@std@@@std@@KAXXZ 10005f20 f i AutoSwitchStateBufferLock.obj
 0002:00003f20       ?_Xlen@?$vector@VChannelAction@sass@@V?$allocator@VChannelAction@sass@@@std@@@std@@KAXXZ 10005f20 f i ChannelActionProcessor.obj
 0002:00003f20       ?_Xlen@?$vector@Ustored_vertex@config@?$adj_list_gen@V?$adjacency_list@UvecS@boost@@U12@UundirectedS@2@Uno_property@2@U?$property@W4edge_weight_t@boost@@EUno_property@2@@2@U42@UlistS@2@@boost@@UvecS@2@U32@UundirectedS@2@Uno_property@2@U?$property@W4edge_weight_t@boost@@EUno_property@2@@2@U52@UlistS@2@@detail@boost@@V?$allocator@Ustored_vertex@config@?$adj_list_gen@V?$adjacency_list@UvecS@boost@@U12@UundirectedS@2@Uno_property@2@U?$property@W4edge_weight_t@boost@@EUno_property@2@@2@U42@UlistS@2@@boost@@UvecS@2@U32@UundirectedS@2@Uno_property@2@U?$property@W4edge_weight_t@boost@@EUno_property@2@@2@U52@UlistS@2@@detail@boost@@@std@@@std@@KAXXZ 10005f20 f i PathFindingGraph.obj
 0002:00003f20       ?_Xlen@?$vector@V?$stored_edge_iter@IV?$_Iterator@$00@?$list@U?$list_edge@IU?$property@W4edge_weight_t@boost@@EUno_property@2@@boost@@@boost@@V?$allocator@U?$list_edge@IU?$property@W4edge_weight_t@boost@@EUno_property@2@@boost@@@boost@@@std@@@std@@U?$property@W4edge_weight_t@boost@@EUno_property@2@@boost@@@detail@boost@@V?$allocator@V?$stored_edge_iter@IV?$_Iterator@$00@?$list@U?$list_edge@IU?$property@W4edge_weight_t@boost@@EUno_property@2@@boost@@@boost@@V?$allocator@U?$list_edge@IU?$property@W4edge_weight_t@boost@@EUno_property@2@@boost@@@boost@@@std@@@std@@U?$property@W4edge_weight_t@boost@@EUno_property@2@@boost@@@detail@boost@@@std@@@std@@KAXXZ 10005f20 f i PathFindingGraph.obj
 0002:00003f20       ?_Xlen@?$vector@GV?$allocator@G@std@@@std@@KAXXZ 10005f20 f i RelayInformationFactory.obj
 0002:00003f20       ?_Xlen@?$vector@U?$pair@V?$basic_string@DU?$char_traits@D@std@@V?$allocator@D@2@@std@@G@std@@V?$allocator@U?$pair@V?$basic_string@DU?$char_traits@D@std@@V?$allocator@D@2@@std@@G@std@@@2@@std@@KAXXZ 10005f20 f i RelayInformationFactory.obj
 0002:00003f20       ?_Xlen@?$vector@VChannelIndex@sass@@V?$allocator@VChannelIndex@sass@@@std@@@std@@KAXXZ 10005f20 f i ChannelActionProcessor.obj
 0002:00003f20       ?_Xlen@?$vector@U?$pair@V?$basic_string@DU?$char_traits@D@std@@V?$allocator@D@2@@std@@V12@@std@@V?$allocator@U?$pair@V?$basic_string@DU?$char_traits@D@std@@V?$allocator@D@2@@std@@V12@@std@@@2@@std@@KAXXZ 10005f20 f i TopologyFactory.obj
 0002:00003f90       ?allocate@?$allocator@VChannelAction@sass@@@std@@QAEPAVChannelAction@sass@@I@Z 10005f90 f i ChannelActionProcessor.obj
 0002:00003ff0       ?erase@?$vector@VChannelIndex@sass@@V?$allocator@VChannelIndex@sass@@@std@@@std@@QAE?AV?$_Vector_iterator@VChannelIndex@sass@@V?$allocator@VChannelIndex@sass@@@std@@@2@V?$_Vector_const_iterator@VChannelIndex@sass@@V?$allocator@VChannelIndex@sass@@@std@@@2@0@Z 10005ff0 f i ChannelActionProcessor.obj
 0002:00004080       ?allocate@?$allocator@VChannelIndex@sass@@@std@@QAEPAVChannelIndex@sass@@I@Z 10006080 f i ChannelActionProcessor.obj
 0002:000040e0       ?erase@?$vector@VSwitchAction@sass@@V?$allocator@VSwitchAction@sass@@@std@@@std@@QAE?AV?$_Vector_iterator@VSwitchAction@sass@@V?$allocator@VSwitchAction@sass@@@std@@@2@V?$_Vector_const_iterator@VSwitchAction@sass@@V?$allocator@VSwitchAction@sass@@@std@@@2@0@Z 100060e0 f i ChannelActionProcessor.obj
 0002:000040e0       ?erase@?$vector@V?$stored_edge_iter@IV?$_Iterator@$00@?$list@U?$list_edge@IU?$property@W4edge_weight_t@boost@@EUno_property@2@@boost@@@boost@@V?$allocator@U?$list_edge@IU?$property@W4edge_weight_t@boost@@EUno_property@2@@boost@@@boost@@@std@@@std@@U?$property@W4edge_weight_t@boost@@EUno_property@2@@boost@@@detail@boost@@V?$allocator@V?$stored_edge_iter@IV?$_Iterator@$00@?$list@U?$list_edge@IU?$property@W4edge_weight_t@boost@@EUno_property@2@@boost@@@boost@@V?$allocator@U?$list_edge@IU?$property@W4edge_weight_t@boost@@EUno_property@2@@boost@@@boost@@@std@@@std@@U?$property@W4edge_weight_t@boost@@EUno_property@2@@boost@@@detail@boost@@@std@@@std@@QAE?AV?$_Vector_iterator@V?$stored_edge_iter@IV?$_Iterator@$00@?$list@U?$list_edge@IU?$property@W4edge_weight_t@boost@@EUno_property@2@@boost@@@boost@@V?$allocator@U?$list_edge@IU?$property@W4edge_weight_t@boost@@EUno_property@2@@boost@@@boost@@@std@@@std@@U?$property@W4edge_weight_t@boost@@EUno_property@2@@boost@@@detail@boost@@V?$allocator@V?$stored_edge_iter@IV?$_Iterator@$00@?$list@U?$list_edge@IU?$property@W4edge_weight_t@boost@@EUno_property@2@@boost@@@boost@@V?$allocator@U?$list_edge@IU?$property@W4edge_weight_t@boost@@EUno_property@2@@boost@@@boost@@@std@@@std@@U?$property@W4edge_weight_t@boost@@EUno_property@2@@boost@@@detail@boost@@@std@@@2@V?$_Vector_const_iterator@V?$stored_edge_iter@IV?$_Iterator@$00@?$list@U?$list_edge@IU?$property@W4edge_weight_t@boost@@EUno_property@2@@boost@@@boost@@V?$allocator@U?$list_edge@IU?$property@W4edge_weight_t@boost@@EUno_property@2@@boost@@@boost@@@std@@@std@@U?$property@W4edge_weight_t@boost@@EUno_property@2@@boost@@@detail@boost@@V?$allocator@V?$stored_edge_iter@IV?$_Iterator@$00@?$list@U?$list_edge@IU?$property@W4edge_weight_t@boost@@EUno_property@2@@boost@@@boost@@V?$allocator@U?$list_edge@IU?$property@W4edge_weight_t@boost@@EUno_property@2@@boost@@@boost@@@std@@@std@@U?$property@W4edge_weight_t@boost@@EUno_property@2@@boost@@@detail@boost@@@std@@@2@0@Z 100060e0 f i PathFindingGraph.obj
 0002:00004160       ?_Insert_n@?$vector@VChannelAction@sass@@V?$allocator@VChannelAction@sass@@@std@@@std@@IAEXV?$_Vector_const_iterator@VChannelAction@sass@@V?$allocator@VChannelAction@sass@@@std@@@2@IABVChannelAction@sass@@@Z 10006160 f i ChannelActionProcessor.obj
 0002:00004450       ??0ChannelAction@sass@@QAE@ABV01@@Z 10006450 f i ChannelActionProcessor.obj
 0002:00004480       ??_EChannelAction@sass@@UAEPAXI@Z 10006480 f i  CIL library: CIL module
 0002:00004480       ??_GChannelAction@sass@@UAEPAXI@Z 10006480 f i ChannelActionProcessor.obj
 0002:000044e0       ??0?$vector@VChannelIndex@sass@@V?$allocator@VChannelIndex@sass@@@std@@@std@@QAE@ABV01@@Z 100064e0 f i ChannelActionProcessor.obj
 0002:000045c0       ??$?6PBD@?$ObjectInserter@VInserterBase@jsonz@@@jsonz@@QAEAAV01@ABU?$pair@PBDPBD@std@@@Z 100065c0 f i ChannelActionProcessor.obj
 0002:000045e0       ??$deref@V?$vector@IV?$allocator@I@std@@@std@@U?$bool_@$0A@@mpl@boost@@@foreach_detail_@boost@@YAAAIABUauto_any_base@01@PAU?$type2type@V?$vector@IV?$allocator@I@std@@@std@@U?$bool_@$0A@@mpl@boost@@@01@@Z 100065e0 f i RelayAPIInputProcessor.obj
 0002:000045e0       ??$deref@V?$vector@V?$basic_string@DU?$char_traits@D@std@@V?$allocator@D@2@@std@@V?$allocator@V?$basic_string@DU?$char_traits@D@std@@V?$allocator@D@2@@std@@@2@@std@@U?$bool_@$0A@@mpl@boost@@@foreach_detail_@boost@@YAAAV?$basic_string@DU?$char_traits@D@std@@V?$allocator@D@2@@std@@ABUauto_any_base@01@PAU?$type2type@V?$vector@V?$basic_string@DU?$char_traits@D@std@@V?$allocator@D@2@@std@@V?$allocator@V?$basic_string@DU?$char_traits@D@std@@V?$allocator@D@2@@std@@@2@@std@@U?$bool_@$0A@@mpl@boost@@@01@@Z 100065e0 f i RelayAPIInputProcessor.obj
 0002:000045e0       ??$deref@V?$vector@VChannelAction@sass@@V?$allocator@VChannelAction@sass@@@std@@@std@@U?$bool_@$00@mpl@boost@@@foreach_detail_@boost@@YAABVChannelAction@sass@@ABUauto_any_base@01@PAU?$type2type@V?$vector@VChannelAction@sass@@V?$allocator@VChannelAction@sass@@@std@@@std@@U?$bool_@$00@mpl@boost@@@01@@Z 100065e0 f i ChannelActionProcessor.obj
 0002:000045e0       ??$deref@V?$vector@U?$pair@V?$basic_string@DU?$char_traits@D@std@@V?$allocator@D@2@@std@@V12@@std@@V?$allocator@U?$pair@V?$basic_string@DU?$char_traits@D@std@@V?$allocator@D@2@@std@@V12@@std@@@2@@std@@U?$bool_@$0A@@mpl@boost@@@foreach_detail_@boost@@YAAAU?$pair@V?$basic_string@DU?$char_traits@D@std@@V?$allocator@D@2@@std@@V12@@std@@ABUauto_any_base@01@PAU?$type2type@V?$vector@U?$pair@V?$basic_string@DU?$char_traits@D@std@@V?$allocator@D@2@@std@@V12@@std@@V?$allocator@U?$pair@V?$basic_string@DU?$char_traits@D@std@@V?$allocator@D@2@@std@@V12@@std@@@2@@std@@U?$bool_@$0A@@mpl@boost@@@01@@Z 100065e0 f i TopologyFactory.obj
 0002:000045e0       ??D?$_Vector_const_iterator@VChannelIndex@sass@@V?$allocator@VChannelIndex@sass@@@std@@@std@@QBEABVChannelIndex@sass@@XZ 100065e0 f i ChannelActionProcessor.obj
 0002:00004610       ??$unchecked_copy@PAVChannelIndex@sass@@PAV12@@stdext@@YAPAVChannelIndex@sass@@PAV12@00@Z 10006610 f i ChannelActionProcessor.obj
 0002:00004640       ??$unchecked_copy@PAV?$stored_edge_iter@IV?$_Iterator@$00@?$list@U?$list_edge@IU?$property@W4edge_weight_t@boost@@EUno_property@2@@boost@@@boost@@V?$allocator@U?$list_edge@IU?$property@W4edge_weight_t@boost@@EUno_property@2@@boost@@@boost@@@std@@@std@@U?$property@W4edge_weight_t@boost@@EUno_property@2@@boost@@@detail@boost@@PAV123@@stdext@@YAPAV?$stored_edge_iter@IV?$_Iterator@$00@?$list@U?$list_edge@IU?$property@W4edge_weight_t@boost@@EUno_property@2@@boost@@@boost@@V?$allocator@U?$list_edge@IU?$property@W4edge_weight_t@boost@@EUno_property@2@@boost@@@boost@@@std@@@std@@U?$property@W4edge_weight_t@boost@@EUno_property@2@@boost@@@detail@boost@@PAV123@00@Z 10006640 f i PathFindingGraph.obj
 0002:00004640       ??$unchecked_copy@PAVSwitchAction@sass@@PAV12@@stdext@@YAPAVSwitchAction@sass@@PAV12@00@Z 10006640 f i ChannelActionProcessor.obj
 0002:00004690       ??$_Umove@PAVChannelAction@sass@@@?$vector@VChannelAction@sass@@V?$allocator@VChannelAction@sass@@@std@@@std@@IAEPAVChannelAction@sass@@PAV23@00@Z 10006690 f i ChannelActionProcessor.obj
 0002:000046c0       ??$fill@PAVChannelAction@sass@@V12@@std@@YAXPAVChannelAction@sass@@0ABV12@@Z 100066c0 f i ChannelActionProcessor.obj
 0002:00004700       ??$_Unchecked_move_backward@PAVChannelAction@sass@@PAV12@@stdext@@YAPAVChannelAction@sass@@PAV12@00@Z 10006700 f i ChannelActionProcessor.obj
 0002:00004750       ??$?0V?$_Vector_iterator@VChannelIndex@sass@@V?$allocator@VChannelIndex@sass@@@std@@@std@@@?$vector@VChannelIndex@sass@@V?$allocator@VChannelIndex@sass@@@std@@@std@@QAE@V?$_Vector_iterator@VChannelIndex@sass@@V?$allocator@VChannelIndex@sass@@@std@@@1@0@Z 10006750 f i ChannelActionWriter.obj
 0002:00004750       ??$?0V?$_Vector_const_iterator@VChannelIndex@sass@@V?$allocator@VChannelIndex@sass@@@std@@@std@@@?$vector@VChannelIndex@sass@@V?$allocator@VChannelIndex@sass@@@std@@@std@@QAE@V?$_Vector_const_iterator@VChannelIndex@sass@@V?$allocator@VChannelIndex@sass@@@std@@@1@0@Z 10006750 f i ChannelActionProcessor.obj
 0002:000047c0       ??$_Uninit_fill_n@PAVChannelAction@sass@@IV12@V?$allocator@VChannelAction@sass@@@std@@@std@@YAXPAVChannelAction@sass@@IABV12@AAV?$allocator@VChannelAction@sass@@@0@U_Nonscalar_ptr_iterator_tag@0@U_Range_checked_iterator_tag@0@@Z 100067c0 f i ChannelActionProcessor.obj
 0002:00004870       ??$_Construct@V?$_Vector_iterator@VChannelIndex@sass@@V?$allocator@VChannelIndex@sass@@@std@@@std@@@?$vector@VChannelIndex@sass@@V?$allocator@VChannelIndex@sass@@@std@@@std@@QAEXV?$_Vector_iterator@VChannelIndex@sass@@V?$allocator@VChannelIndex@sass@@@std@@@1@0Uinput_iterator_tag@1@@Z 10006870 f i ChannelActionWriter.obj
 0002:00004870       ??$_Construct@V?$_Vector_const_iterator@VChannelIndex@sass@@V?$allocator@VChannelIndex@sass@@@std@@@std@@@?$vector@VChannelIndex@sass@@V?$allocator@VChannelIndex@sass@@@std@@@std@@QAEXV?$_Vector_const_iterator@VChannelIndex@sass@@V?$allocator@VChannelIndex@sass@@@std@@@1@0Uinput_iterator_tag@1@@Z 10006870 f i ChannelActionProcessor.obj
 0002:000048f0       ??$_Uninit_copy@PBVChannelIndex@sass@@PAV12@V?$allocator@VChannelIndex@sass@@@std@@@std@@YAPAVChannelIndex@sass@@PBV12@0PAV12@AAV?$allocator@VChannelIndex@sass@@@0@U_Nonscalar_ptr_iterator_tag@0@U_Range_checked_iterator_tag@0@@Z 100068f0 f i ChannelActionProcessor.obj
 0002:000048f0       ??$_Uninit_copy@PAVChannelIndex@sass@@PAV12@V?$allocator@VChannelIndex@sass@@@std@@@std@@YAPAVChannelIndex@sass@@PAV12@00AAV?$allocator@VChannelIndex@sass@@@0@U_Nonscalar_ptr_iterator_tag@0@U_Range_checked_iterator_tag@0@@Z 100068f0 f i ChannelActionProcessor.obj
 0002:00004910       ??$_Uninit_copy@PBVSwitchAction@sass@@PAV12@V?$allocator@VSwitchAction@sass@@@std@@@std@@YAPAVSwitchAction@sass@@PBV12@0PAV12@AAV?$allocator@VSwitchAction@sass@@@0@U_Nonscalar_ptr_iterator_tag@0@U_Range_checked_iterator_tag@0@@Z 10006910 f i ChannelActionProcessor.obj
 0002:00004910       ??$_Uninit_copy@PAV?$stored_edge_iter@IV?$_Iterator@$00@?$list@U?$list_edge@IU?$property@W4edge_weight_t@boost@@EUno_property@2@@boost@@@boost@@V?$allocator@U?$list_edge@IU?$property@W4edge_weight_t@boost@@EUno_property@2@@boost@@@boost@@@std@@@std@@U?$property@W4edge_weight_t@boost@@EUno_property@2@@boost@@@detail@boost@@PAV123@V?$allocator@V?$stored_edge_iter@IV?$_Iterator@$00@?$list@U?$list_edge@IU?$property@W4edge_weight_t@boost@@EUno_property@2@@boost@@@boost@@V?$allocator@U?$list_edge@IU?$property@W4edge_weight_t@boost@@EUno_property@2@@boost@@@boost@@@std@@@std@@U?$property@W4edge_weight_t@boost@@EUno_property@2@@boost@@@detail@boost@@@std@@@std@@YAPAV?$stored_edge_iter@IV?$_Iterator@$00@?$list@U?$list_edge@IU?$property@W4edge_weight_t@boost@@EUno_property@2@@boost@@@boost@@V?$allocator@U?$list_edge@IU?$property@W4edge_weight_t@boost@@EUno_property@2@@boost@@@boost@@@std@@@std@@U?$property@W4edge_weight_t@boost@@EUno_property@2@@boost@@@detail@boost@@PAV123@00AAV?$allocator@V?$stored_edge_iter@IV?$_Iterator@$00@?$list@U?$list_edge@IU?$property@W4edge_weight_t@boost@@EUno_property@2@@boost@@@boost@@V?$allocator@U?$list_edge@IU?$property@W4edge_weight_t@boost@@EUno_property@2@@boost@@@boost@@@std@@@std@@U?$property@W4edge_weight_t@boost@@EUno_property@2@@boost@@@detail@boost@@@0@U_Nonscalar_ptr_iterator_tag@0@U_Range_checked_iterator_tag@0@@Z 10006910 f i PathFindingGraph.obj
 0002:00004910       ??$_Uninit_copy@PAVSwitchAction@sass@@PAV12@V?$allocator@VSwitchAction@sass@@@std@@@std@@YAPAVSwitchAction@sass@@PAV12@00AAV?$allocator@VSwitchAction@sass@@@0@U_Nonscalar_ptr_iterator_tag@0@U_Range_checked_iterator_tag@0@@Z 10006910 f i ChannelActionProcessor.obj
 0002:00004910       ??$_Uninit_copy@PBV?$stored_edge_iter@IV?$_Iterator@$00@?$list@U?$list_edge@IU?$property@W4edge_weight_t@boost@@EUno_property@2@@boost@@@boost@@V?$allocator@U?$list_edge@IU?$property@W4edge_weight_t@boost@@EUno_property@2@@boost@@@boost@@@std@@@std@@U?$property@W4edge_weight_t@boost@@EUno_property@2@@boost@@@detail@boost@@PAV123@V?$allocator@V?$stored_edge_iter@IV?$_Iterator@$00@?$list@U?$list_edge@IU?$property@W4edge_weight_t@boost@@EUno_property@2@@boost@@@boost@@V?$allocator@U?$list_edge@IU?$property@W4edge_weight_t@boost@@EUno_property@2@@boost@@@boost@@@std@@@std@@U?$property@W4edge_weight_t@boost@@EUno_property@2@@boost@@@detail@boost@@@std@@@std@@YAPAV?$stored_edge_iter@IV?$_Iterator@$00@?$list@U?$list_edge@IU?$property@W4edge_weight_t@boost@@EUno_property@2@@boost@@@boost@@V?$allocator@U?$list_edge@IU?$property@W4edge_weight_t@boost@@EUno_property@2@@boost@@@boost@@@std@@@std@@U?$property@W4edge_weight_t@boost@@EUno_property@2@@boost@@@detail@boost@@PBV123@0PAV123@AAV?$allocator@V?$stored_edge_iter@IV?$_Iterator@$00@?$list@U?$list_edge@IU?$property@W4edge_weight_t@boost@@EUno_property@2@@boost@@@boost@@V?$allocator@U?$list_edge@IU?$property@W4edge_weight_t@boost@@EUno_property@2@@boost@@@boost@@@std@@@std@@U?$property@W4edge_weight_t@boost@@EUno_property@2@@boost@@@detail@boost@@@0@U_Nonscalar_ptr_iterator_tag@0@U_Range_checked_iterator_tag@0@@Z 10006910 f i PathFindingGraph.obj
 0002:00004940       ??$_Copy_backward_opt@PAVChannelAction@sass@@PAV12@Uforward_iterator_tag@std@@@std@@YAPAVChannelAction@sass@@PAV12@00Uforward_iterator_tag@0@U_Nonscalar_ptr_iterator_tag@0@U_Range_checked_iterator_tag@0@@Z 10006940 f i ChannelActionProcessor.obj
 0002:00004980       ??$_Insert@V?$_Vector_const_iterator@VChannelIndex@sass@@V?$allocator@VChannelIndex@sass@@@std@@@std@@@?$vector@VChannelIndex@sass@@V?$allocator@VChannelIndex@sass@@@std@@@std@@QAEXV?$_Vector_const_iterator@VChannelIndex@sass@@V?$allocator@VChannelIndex@sass@@@std@@@1@00Uforward_iterator_tag@1@@Z 10006980 f i ChannelActionProcessor.obj
 0002:00004980       ??$_Insert@V?$_Vector_iterator@VChannelIndex@sass@@V?$allocator@VChannelIndex@sass@@@std@@@std@@@?$vector@VChannelIndex@sass@@V?$allocator@VChannelIndex@sass@@@std@@@std@@QAEXV?$_Vector_const_iterator@VChannelIndex@sass@@V?$allocator@VChannelIndex@sass@@@std@@@1@V?$_Vector_iterator@VChannelIndex@sass@@V?$allocator@VChannelIndex@sass@@@std@@@1@1Uforward_iterator_tag@1@@Z 10006980 f i ChannelActionWriter.obj
 0002:00004b40       ??$_Uninit_copy@PAVChannelAction@sass@@PAV12@V?$allocator@VChannelAction@sass@@@std@@@std@@YAPAVChannelAction@sass@@PAV12@00AAV?$allocator@VChannelAction@sass@@@0@U_Nonscalar_ptr_iterator_tag@0@U_Range_checked_iterator_tag@0@@Z 10006b40 f i ChannelActionProcessor.obj
 0002:00004bf0       ?_Reverse@?$vector@VChannelIndex@sass@@V?$allocator@VChannelIndex@sass@@@std@@@std@@QAEXPAVChannelIndex@sass@@0@Z 10006bf0 f i ChannelActionProcessor.obj
 0002:00004c20       ??$_Ucopy@PAVChannelIndex@sass@@@?$vector@VChannelIndex@sass@@V?$allocator@VChannelIndex@sass@@@std@@@std@@IAEPAVChannelIndex@sass@@PAV23@00@Z 10006c20 f i ChannelActionProcessor.obj
 0002:00004c20       ??$_Umove@PAVChannelIndex@sass@@@?$vector@VChannelIndex@sass@@V?$allocator@VChannelIndex@sass@@@std@@@std@@IAEPAVChannelIndex@sass@@PAV23@00@Z 10006c20 f i ChannelActionProcessor.obj
 0002:00004c50       ?what@Exception@nierr@@$4PPPPPPPM@BI@BEPBDXZ 10006c50 f i ChannelActionProcessor.obj
 0002:00004c60       ?what@Exception@nierr@@$4PPPPPPPM@A@BEPBDXZ 10006c60 f i ChannelActionProcessor.obj
 0002:00004c70       ??_EException@nierr@@$4PPPPPPPM@BI@AEPAXI@Z 10006c70 f i ChannelActionProcessor.obj
 0002:00004c80       ??_EException@nierr@@$4PPPPPPPM@A@AEPAXI@Z 10006c80 f i ChannelActionProcessor.obj
 0002:00004c90       ??0out_of_range@std@@QAE@ABV?$basic_string@DU?$char_traits@D@std@@V?$allocator@D@2@@1@@Z 10006c90 f i Session.obj
 0002:00004cf0       ??0out_of_range@std@@QAE@ABV01@@Z 10006cf0 f i Session.obj
 0002:00004d10       ??1mutex@boost@@QAE@XZ     10006d10 f i Session.obj
 0002:00004d30       _nNIAPAL200_constructFastMutex 10006d30 f i Session.obj
 0002:00004db0       ??1tMutex@nNIAPAL000@slscsl@@QAE@XZ 10006db0 f i Session.obj
 0002:00004dd0       ?nierr_helper_convertStatus@@YA_NABUnNIAPALS100_tStatus@@AAUnierr_Status@@@Z 10006dd0 f i Session.obj
 0002:00004f00       ?nierr_helper_statusThrow@nNIAPALS100@@YAXABVtStatus@1@@Z 10006f00 f i Session.obj
 0002:00004f70       ?autoStatusThrower@nNIAPALS100@@YA?AV?$AutoStatusThrower@VtStatus@nNIAPALS100@@@nierr@@XZ 10006f70 f i Session.obj
 0002:00004f80       ?apalStatusThrower@nierr@@YA?AV?$AutoStatusThrower@VtStatus@nNIAPALS100@@@1@XZ 10006f80 f i Session.obj
 0002:00004f90       ??_ESessionFactory@slscsl@@UAEPAXI@Z 10006f90 f i  CIL library: CIL module
 0002:00004f90       ??_E?$SessionFactoryInterface@VSession@slscsl@@USessionParameters@2@@atat@@UAEPAXI@Z 10006f90 f i  CIL library: CIL module
 0002:00004f90       ??_G?$SessionFactoryInterface@VSession@slscsl@@USessionParameters@2@@atat@@UAEPAXI@Z 10006f90 f i Session.obj
 0002:00004f90       ??_GSessionFactory@slscsl@@UAEPAXI@Z 10006f90 f i Session.obj
 0002:00004fc0       ??0?$SessionRegistry@_KVSession@slscsl@@Ublank@boost@@@atat@@QAE@XZ 10006fc0 f i Session.obj
 0002:00005040       ??_G?$SessionRegistry@_KVSession@slscsl@@Ublank@boost@@@atat@@UAEPAXI@Z 10007040 f i Session.obj
 0002:00005040       ??_E?$SessionRegistry@_KVSession@slscsl@@Ublank@boost@@@atat@@UAEPAXI@Z 10007040 f i  CIL library: CIL module
 0002:000050a0       ??_G?$SessionRegistryInterface@_KVSession@slscsl@@Ublank@boost@@@atat@@UAEPAXI@Z 100070a0 f i Session.obj
 0002:000050a0       ??_E?$SessionRegistryInterface@_KVSession@slscsl@@Ublank@boost@@@atat@@UAEPAXI@Z 100070a0 f i  CIL library: CIL module
 0002:000050d0       ??0Session@slscsl@@QAE@ABUSessionParameters@1@@Z 100070d0 f   Session.obj
 0002:00005290       ??_GSession@slscsl@@UAEPAXI@Z 10007290 f i Session.obj
 0002:00005290       ??_ESession@slscsl@@UAEPAXI@Z 10007290 f i  CIL library: CIL module
 0002:000052c0       ??1Session@slscsl@@UAE@XZ  100072c0 f   Session.obj
 0002:000053a0       ?getIdentifier@Session@slscsl@@UBEPBDXZ 100073a0 f   Session.obj
 0002:000053b0       ??1?$auto_ptr@UTopology@sass@@@std@@QAE@XZ 100073b0 f i Session.obj
 0002:000053d0       ??1?$SessionRegistryInterface@_KVSession@slscsl@@Ublank@boost@@@atat@@UAE@XZ 100073d0 f i Session.obj
 0002:000053e0       ??1?$vector@V?$tuple@_KV?$intrusive_ptr@VSession@slscsl@@@boost@@Ublank@2@Unull_type@tuples@2@U452@U452@U452@U452@U452@U452@@tuples@boost@@V?$allocator@V?$tuple@_KV?$intrusive_ptr@VSession@slscsl@@@boost@@Ublank@2@Unull_type@tuples@2@U452@U452@U452@U452@U452@U452@@tuples@boost@@@std@@@std@@QAE@XZ 100073e0 f i Session.obj
 0002:00005450       ??_E?$SessionManagerInterface@_KVSession@slscsl@@USessionParameters@2@@atat@@UAEPAXI@Z 10007450 f i  CIL library: CIL module
 0002:00005450       ??_G?$SessionManagerInterface@_KVSession@slscsl@@USessionParameters@2@@atat@@UAEPAXI@Z 10007450 f i Session.obj
 0002:00005480       ??1Topology@sass@@QAE@XZ   10007480 f i Session.obj
 0002:000055c0       ??1?$set@IU?$less@I@std@@V?$allocator@I@2@@std@@QAE@XZ 100075c0 f i Session.obj
 0002:00005610       ??1?$map@VDirectlyConnectableChannels@sass@@V?$set@IU?$less@I@std@@V?$allocator@I@2@@std@@U?$less@VDirectlyConnectableChannels@sass@@@4@V?$allocator@U?$pair@$$CBVDirectlyConnectableChannels@sass@@V?$set@IU?$less@I@std@@V?$allocator@I@2@@std@@@std@@@4@@std@@QAE@XZ 10007610 f i Session.obj
 0002:00005660       ??1?$map@VChannelIndex@sass@@V?$set@VChannelIndex@sass@@U?$less@VChannelIndex@sass@@@std@@V?$allocator@VChannelIndex@sass@@@4@@std@@U?$less@VChannelIndex@sass@@@4@V?$allocator@U?$pair@$$CBVChannelIndex@sass@@V?$set@VChannelIndex@sass@@U?$less@VChannelIndex@sass@@@std@@V?$allocator@VChannelIndex@sass@@@4@@std@@@std@@@4@@std@@QAE@XZ 10007660 f i Session.obj
 0002:000056b0       ?_Tidy@?$_Tree@V?$_Tset_traits@IU?$less@I@std@@V?$allocator@I@2@$0A@@std@@@std@@IAEXXZ 100076b0 f i Session.obj
 0002:000056f0       ?_Tidy@?$_Tree@V?$_Tmap_traits@VDirectlyConnectableChannels@sass@@V?$set@IU?$less@I@std@@V?$allocator@I@2@@std@@U?$less@VDirectlyConnectableChannels@sass@@@4@V?$allocator@U?$pair@$$CBVDirectlyConnectableChannels@sass@@V?$set@IU?$less@I@std@@V?$allocator@I@2@@std@@@std@@@4@$0A@@std@@@std@@IAEXXZ 100076f0 f i Session.obj
 0002:00005730       ?_Tidy@?$_Tree@V?$_Tmap_traits@VChannelIndex@sass@@V?$set@VChannelIndex@sass@@U?$less@VChannelIndex@sass@@@std@@V?$allocator@VChannelIndex@sass@@@4@@std@@U?$less@VChannelIndex@sass@@@4@V?$allocator@U?$pair@$$CBVChannelIndex@sass@@V?$set@VChannelIndex@sass@@U?$less@VChannelIndex@sass@@@std@@V?$allocator@VChannelIndex@sass@@@4@@std@@@std@@@4@$0A@@std@@@std@@IAEXXZ 10007730 f i Session.obj
 0002:00005770       ?_Destroy@?$vector@V?$tuple@_KV?$intrusive_ptr@VSession@slscsl@@@boost@@Ublank@2@Unull_type@tuples@2@U452@U452@U452@U452@U452@U452@@tuples@boost@@V?$allocator@V?$tuple@_KV?$intrusive_ptr@VSession@slscsl@@@boost@@Ublank@2@Unull_type@tuples@2@U452@U452@U452@U452@U452@U452@@tuples@boost@@@std@@@std@@IAEXPAV?$tuple@_KV?$intrusive_ptr@VSession@slscsl@@@boost@@Ublank@2@Unull_type@tuples@2@U452@U452@U452@U452@U452@U452@@tuples@boost@@0@Z 10007770 f i Session.obj
 0002:00005790       ?_Xlen@?$vector@EV?$allocator@E@std@@@std@@KAXXZ 10007790 f i AutoSwitchStateBufferLock.obj
 0002:00005790       ?_Xlen@?$vector@VSwitchAction@sass@@V?$allocator@VSwitchAction@sass@@@std@@@std@@KAXXZ 10007790 f i ChannelActionProcessor.obj
 0002:00005790       ?_Xlen@?$vector@V?$basic_string@DU?$char_traits@D@std@@V?$allocator@D@2@@std@@V?$allocator@V?$basic_string@DU?$char_traits@D@std@@V?$allocator@D@2@@std@@@2@@std@@KAXXZ 10007790 f i ChannelAPIInputProcessor.obj
 0002:00005790       ?_Xlen@?$vector@V?$tuple@_KV?$intrusive_ptr@VSession@slscsl@@@boost@@Ublank@2@Unull_type@tuples@2@U452@U452@U452@U452@U452@U452@@tuples@boost@@V?$allocator@V?$tuple@_KV?$intrusive_ptr@VSession@slscsl@@@boost@@Ublank@2@Unull_type@tuples@2@U452@U452@U452@U452@U452@U452@@tuples@boost@@@std@@@std@@KAXXZ 10007790 f i Session.obj
 0002:00005810       ?erase@?$_Tree@V?$_Tset_traits@IU?$less@I@std@@V?$allocator@I@2@$0A@@std@@@std@@QAE?AViterator@12@Vconst_iterator@12@0@Z 10007810 f i Session.obj
 0002:000058f0       ?erase@?$_Tree@V?$_Tmap_traits@VDirectlyConnectableChannels@sass@@V?$set@IU?$less@I@std@@V?$allocator@I@2@@std@@U?$less@VDirectlyConnectableChannels@sass@@@4@V?$allocator@U?$pair@$$CBVDirectlyConnectableChannels@sass@@V?$set@IU?$less@I@std@@V?$allocator@I@2@@std@@@std@@@4@$0A@@std@@@std@@QAE?AViterator@12@Vconst_iterator@12@0@Z 100078f0 f i Session.obj
 0002:000059d0       ?erase@?$_Tree@V?$_Tmap_traits@VChannelIndex@sass@@V?$set@VChannelIndex@sass@@U?$less@VChannelIndex@sass@@@std@@V?$allocator@VChannelIndex@sass@@@4@@std@@U?$less@VChannelIndex@sass@@@4@V?$allocator@U?$pair@$$CBVChannelIndex@sass@@V?$set@VChannelIndex@sass@@U?$less@VChannelIndex@sass@@@std@@V?$allocator@VChannelIndex@sass@@@4@@std@@@std@@@4@$0A@@std@@@std@@QAE?AViterator@12@Vconst_iterator@12@0@Z 100079d0 f i Session.obj
 0002:00005ab0       ?erase@?$_Tree@V?$_Tset_traits@IU?$less@I@std@@V?$allocator@I@2@$0A@@std@@@std@@QAE?AViterator@12@Vconst_iterator@12@@Z 10007ab0 f i Session.obj
 0002:00005d70       ?erase@?$_Tree@V?$_Tmap_traits@VDirectlyConnectableChannels@sass@@V?$set@IU?$less@I@std@@V?$allocator@I@2@@std@@U?$less@VDirectlyConnectableChannels@sass@@@4@V?$allocator@U?$pair@$$CBVDirectlyConnectableChannels@sass@@V?$set@IU?$less@I@std@@V?$allocator@I@2@@std@@@std@@@4@$0A@@std@@@std@@QAE?AViterator@12@Vconst_iterator@12@@Z 10007d70 f i Session.obj
 0002:00006060       ?erase@?$_Tree@V?$_Tmap_traits@VChannelIndex@sass@@V?$set@VChannelIndex@sass@@U?$less@VChannelIndex@sass@@@std@@V?$allocator@VChannelIndex@sass@@@4@@std@@U?$less@VChannelIndex@sass@@@4@V?$allocator@U?$pair@$$CBVChannelIndex@sass@@V?$set@VChannelIndex@sass@@U?$less@VChannelIndex@sass@@@std@@V?$allocator@VChannelIndex@sass@@@4@@std@@@std@@@4@$0A@@std@@@std@@QAE?AViterator@12@Vconst_iterator@12@@Z 10008060 f i Session.obj
 0002:00006340       ?_Erase@?$_Tree@V?$_Tset_traits@IU?$less@I@std@@V?$allocator@I@2@$0A@@std@@@std@@IAEXPAU_Node@?$_Tree_nod@V?$_Tset_traits@IU?$less@I@std@@V?$allocator@I@2@$0A@@std@@@2@@Z 10008340 f i Session.obj
 0002:00006380       ?_Lrotate@?$_Tree@V?$_Tset_traits@IU?$less@I@std@@V?$allocator@I@2@$0A@@std@@@std@@IAEXPAU_Node@?$_Tree_nod@V?$_Tset_traits@IU?$less@I@std@@V?$allocator@I@2@$0A@@std@@@2@@Z 10008380 f i Session.obj
 0002:000063e0       ?_Max@?$_Tree@V?$_Tset_traits@IU?$less@I@std@@V?$allocator@I@2@$0A@@std@@@std@@KAPAU_Node@?$_Tree_nod@V?$_Tset_traits@IU?$less@I@std@@V?$allocator@I@2@$0A@@std@@@2@PAU342@@Z 100083e0 f i Session.obj
 0002:00006400       ?_Rrotate@?$_Tree@V?$_Tset_traits@IU?$less@I@std@@V?$allocator@I@2@$0A@@std@@@std@@IAEXPAU_Node@?$_Tree_nod@V?$_Tset_traits@IU?$less@I@std@@V?$allocator@I@2@$0A@@std@@@2@@Z 10008400 f i Session.obj
 0002:00006460       ?_Erase@?$_Tree@V?$_Tmap_traits@VDirectlyConnectableChannels@sass@@V?$set@IU?$less@I@std@@V?$allocator@I@2@@std@@U?$less@VDirectlyConnectableChannels@sass@@@4@V?$allocator@U?$pair@$$CBVDirectlyConnectableChannels@sass@@V?$set@IU?$less@I@std@@V?$allocator@I@2@@std@@@std@@@4@$0A@@std@@@std@@IAEXPAU_Node@?$_Tree_nod@V?$_Tmap_traits@VDirectlyConnectableChannels@sass@@V?$set@IU?$less@I@std@@V?$allocator@I@2@@std@@U?$less@VDirectlyConnectableChannels@sass@@@4@V?$allocator@U?$pair@$$CBVDirectlyConnectableChannels@sass@@V?$set@IU?$less@I@std@@V?$allocator@I@2@@std@@@std@@@4@$0A@@std@@@2@@Z 10008460 f i Session.obj
 0002:00006500       ?_Lrotate@?$_Tree@V?$_Tmap_traits@VDirectlyConnectableChannels@sass@@V?$set@IU?$less@I@std@@V?$allocator@I@2@@std@@U?$less@VDirectlyConnectableChannels@sass@@@4@V?$allocator@U?$pair@$$CBVDirectlyConnectableChannels@sass@@V?$set@IU?$less@I@std@@V?$allocator@I@2@@std@@@std@@@4@$0A@@std@@@std@@IAEXPAU_Node@?$_Tree_nod@V?$_Tmap_traits@VDirectlyConnectableChannels@sass@@V?$set@IU?$less@I@std@@V?$allocator@I@2@@std@@U?$less@VDirectlyConnectableChannels@sass@@@4@V?$allocator@U?$pair@$$CBVDirectlyConnectableChannels@sass@@V?$set@IU?$less@I@std@@V?$allocator@I@2@@std@@@std@@@4@$0A@@std@@@2@@Z 10008500 f i Session.obj
 0002:00006560       ?_Max@?$_Tree@V?$_Tmap_traits@VDirectlyConnectableChannels@sass@@V?$set@IU?$less@I@std@@V?$allocator@I@2@@std@@U?$less@VDirectlyConnectableChannels@sass@@@4@V?$allocator@U?$pair@$$CBVDirectlyConnectableChannels@sass@@V?$set@IU?$less@I@std@@V?$allocator@I@2@@std@@@std@@@4@$0A@@std@@@std@@KAPAU_Node@?$_Tree_nod@V?$_Tmap_traits@VDirectlyConnectableChannels@sass@@V?$set@IU?$less@I@std@@V?$allocator@I@2@@std@@U?$less@VDirectlyConnectableChannels@sass@@@4@V?$allocator@U?$pair@$$CBVDirectlyConnectableChannels@sass@@V?$set@IU?$less@I@std@@V?$allocator@I@2@@std@@@std@@@4@$0A@@std@@@2@PAU342@@Z 10008560 f i Session.obj
 0002:00006580       ?_Rrotate@?$_Tree@V?$_Tmap_traits@VDirectlyConnectableChannels@sass@@V?$set@IU?$less@I@std@@V?$allocator@I@2@@std@@U?$less@VDirectlyConnectableChannels@sass@@@4@V?$allocator@U?$pair@$$CBVDirectlyConnectableChannels@sass@@V?$set@IU?$less@I@std@@V?$allocator@I@2@@std@@@std@@@4@$0A@@std@@@std@@IAEXPAU_Node@?$_Tree_nod@V?$_Tmap_traits@VDirectlyConnectableChannels@sass@@V?$set@IU?$less@I@std@@V?$allocator@I@2@@std@@U?$less@VDirectlyConnectableChannels@sass@@@4@V?$allocator@U?$pair@$$CBVDirectlyConnectableChannels@sass@@V?$set@IU?$less@I@std@@V?$allocator@I@2@@std@@@std@@@4@$0A@@std@@@2@@Z 10008580 f i Session.obj
 0002:000065e0       ?_Erase@?$_Tree@V?$_Tmap_traits@VChannelIndex@sass@@V?$set@VChannelIndex@sass@@U?$less@VChannelIndex@sass@@@std@@V?$allocator@VChannelIndex@sass@@@4@@std@@U?$less@VChannelIndex@sass@@@4@V?$allocator@U?$pair@$$CBVChannelIndex@sass@@V?$set@VChannelIndex@sass@@U?$less@VChannelIndex@sass@@@std@@V?$allocator@VChannelIndex@sass@@@4@@std@@@std@@@4@$0A@@std@@@std@@IAEXPAU_Node@?$_Tree_nod@V?$_Tmap_traits@VChannelIndex@sass@@V?$set@VChannelIndex@sass@@U?$less@VChannelIndex@sass@@@std@@V?$allocator@VChannelIndex@sass@@@4@@std@@U?$less@VChannelIndex@sass@@@4@V?$allocator@U?$pair@$$CBVChannelIndex@sass@@V?$set@VChannelIndex@sass@@U?$less@VChannelIndex@sass@@@std@@V?$allocator@VChannelIndex@sass@@@4@@std@@@std@@@4@$0A@@std@@@2@@Z 100085e0 f i Session.obj
 0002:00006660       ?_Lrotate@?$_Tree@V?$_Tmap_traits@VChannelIndex@sass@@V?$set@VChannelIndex@sass@@U?$less@VChannelIndex@sass@@@std@@V?$allocator@VChannelIndex@sass@@@4@@std@@U?$less@VChannelIndex@sass@@@4@V?$allocator@U?$pair@$$CBVChannelIndex@sass@@V?$set@VChannelIndex@sass@@U?$less@VChannelIndex@sass@@@std@@V?$allocator@VChannelIndex@sass@@@4@@std@@@std@@@4@$0A@@std@@@std@@IAEXPAU_Node@?$_Tree_nod@V?$_Tmap_traits@VChannelIndex@sass@@V?$set@VChannelIndex@sass@@U?$less@VChannelIndex@sass@@@std@@V?$allocator@VChannelIndex@sass@@@4@@std@@U?$less@VChannelIndex@sass@@@4@V?$allocator@U?$pair@$$CBVChannelIndex@sass@@V?$set@VChannelIndex@sass@@U?$less@VChannelIndex@sass@@@std@@V?$allocator@VChannelIndex@sass@@@4@@std@@@std@@@4@$0A@@std@@@2@@Z 10008660 f i Session.obj
 0002:000066c0       ?_Max@?$_Tree@V?$_Tmap_traits@VChannelIndex@sass@@V?$set@VChannelIndex@sass@@U?$less@VChannelIndex@sass@@@std@@V?$allocator@VChannelIndex@sass@@@4@@std@@U?$less@VChannelIndex@sass@@@4@V?$allocator@U?$pair@$$CBVChannelIndex@sass@@V?$set@VChannelIndex@sass@@U?$less@VChannelIndex@sass@@@std@@V?$allocator@VChannelIndex@sass@@@4@@std@@@std@@@4@$0A@@std@@@std@@KAPAU_Node@?$_Tree_nod@V?$_Tmap_traits@VChannelIndex@sass@@V?$set@VChannelIndex@sass@@U?$less@VChannelIndex@sass@@@std@@V?$allocator@VChannelIndex@sass@@@4@@std@@U?$less@VChannelIndex@sass@@@4@V?$allocator@U?$pair@$$CBVChannelIndex@sass@@V?$set@VChannelIndex@sass@@U?$less@VChannelIndex@sass@@@std@@V?$allocator@VChannelIndex@sass@@@4@@std@@@std@@@4@$0A@@std@@@2@PAU342@@Z 100086c0 f i Session.obj
 0002:000066e0       ?_Rrotate@?$_Tree@V?$_Tmap_traits@VChannelIndex@sass@@V?$set@VChannelIndex@sass@@U?$less@VChannelIndex@sass@@@std@@V?$allocator@VChannelIndex@sass@@@4@@std@@U?$less@VChannelIndex@sass@@@4@V?$allocator@U?$pair@$$CBVChannelIndex@sass@@V?$set@VChannelIndex@sass@@U?$less@VChannelIndex@sass@@@std@@V?$allocator@VChannelIndex@sass@@@4@@std@@@std@@@4@$0A@@std@@@std@@IAEXPAU_Node@?$_Tree_nod@V?$_Tmap_traits@VChannelIndex@sass@@V?$set@VChannelIndex@sass@@U?$less@VChannelIndex@sass@@@std@@V?$allocator@VChannelIndex@sass@@@4@@std@@U?$less@VChannelIndex@sass@@@4@V?$allocator@U?$pair@$$CBVChannelIndex@sass@@V?$set@VChannelIndex@sass@@U?$less@VChannelIndex@sass@@@std@@V?$allocator@VChannelIndex@sass@@@4@@std@@@std@@@4@$0A@@std@@@2@@Z 100086e0 f i Session.obj
 0002:00006740       ?_Inc@const_iterator@?$_Tree@V?$_Tset_traits@IU?$less@I@std@@V?$allocator@I@2@$0A@@std@@@std@@QAEXXZ 10008740 f i Session.obj
 0002:000067b0       ?_Inc@const_iterator@?$_Tree@V?$_Tmap_traits@VDirectlyConnectableChannels@sass@@V?$set@IU?$less@I@std@@V?$allocator@I@2@@std@@U?$less@VDirectlyConnectableChannels@sass@@@4@V?$allocator@U?$pair@$$CBVDirectlyConnectableChannels@sass@@V?$set@IU?$less@I@std@@V?$allocator@I@2@@std@@@std@@@4@$0A@@std@@@std@@QAEXXZ 100087b0 f i Session.obj
 0002:00006820       ?_Inc@const_iterator@?$_Tree@V?$_Tmap_traits@VChannelIndex@sass@@V?$set@VChannelIndex@sass@@U?$less@VChannelIndex@sass@@@std@@V?$allocator@VChannelIndex@sass@@@4@@std@@U?$less@VChannelIndex@sass@@@4@V?$allocator@U?$pair@$$CBVChannelIndex@sass@@V?$set@VChannelIndex@sass@@U?$less@VChannelIndex@sass@@@std@@V?$allocator@VChannelIndex@sass@@@4@@std@@@std@@@4@$0A@@std@@@std@@QAEXXZ 10008820 f i Session.obj
 0002:00006890       ??$autoStatusThrower@VtStatus@nNIAPALS100@@@nierr@@YA?AV?$AutoStatusThrower@VtStatus@nNIAPALS100@@@0@XZ 10008890 f i Session.obj
 0002:000068b0       ??0?$Multiton@VRelayInformationFactory@sass@@@atut@@QAE@AAVRelayInformationFactory@sass@@@Z 100088b0 f i Session.obj
 0002:00006980       ??1?$Multiton@VRelayInformationFactory@sass@@@atut@@UAE@XZ 10008980 f i Session.obj
 0002:00006a60       ?get@?$Multiton@VRelayInformationFactory@sass@@@atut@@QAEAAVRelayIndexMap@sass@@ABV?$basic_string@DU?$char_traits@D@std@@V?$allocator@D@2@@std@@@Z 10008a60 f i Session.obj
 0002:00006b90       ?lookupSession@?$SessionManagerBase@_KVSession@slscsl@@USessionParameters@2@Ublank@boost@@@atat@@UBEX_KAAV?$intrusive_ptr@VSession@slscsl@@@boost@@@Z 10008b90 f i Session.obj
 0002:00006cb0       ?open@?$SimpleSessionManager@_KVSession@slscsl@@USessionParameters@2@@atat@@UAE_KPBDAAUSessionParameters@slscsl@@@Z 10008cb0 f i Session.obj
 0002:00006fa0       ?close@?$SimpleSessionManager@_KVSession@slscsl@@USessionParameters@2@@atat@@UAEX_K@Z 10008fa0 f i Session.obj
 0002:00007160       ?size@?$SessionRegistry@_KVSession@slscsl@@Ublank@boost@@@atat@@UBEIXZ 10009160 f i Session.obj
 0002:00007170       ?add@?$SessionRegistry@_KVSession@slscsl@@Ublank@boost@@@atat@@UAEX_KABV?$intrusive_ptr@VSession@slscsl@@@boost@@ABUblank@4@@Z 10009170 f i Session.obj
 0002:00007200       ?remove@?$SessionRegistry@_KVSession@slscsl@@Ublank@boost@@@atat@@UAE?AV?$intrusive_ptr@VSession@slscsl@@@boost@@_KAAUblank@4@@Z 10009200 f i Session.obj
 0002:000073b0       ?find@?$SessionRegistry@_KVSession@slscsl@@Ublank@boost@@@atat@@UBE?AV?$intrusive_ptr@VSession@slscsl@@@boost@@PBDAAUblank@4@@Z 100093b0 f i Session.obj
 0002:000074a0       ?find@?$SessionRegistry@_KVSession@slscsl@@Ublank@boost@@@atat@@UBE?AV?$intrusive_ptr@VSession@slscsl@@@boost@@_KAAUblank@4@@Z 100094a0 f i Session.obj
 0002:000075a0       ??_E?$Multiton@VRelayInformationFactory@sass@@@atut@@UAEPAXI@Z 100095a0 f i  CIL library: CIL module
 0002:000075a0       ??_G?$Multiton@VRelayInformationFactory@sass@@@atut@@UAEPAXI@Z 100095a0 f i Session.obj
 0002:000075d0       ??1?$map@V?$basic_string@DU?$char_traits@D@std@@V?$allocator@D@2@@std@@PAVRelayIndexMap@sass@@U?$less@V?$basic_string@DU?$char_traits@D@std@@V?$allocator@D@2@@std@@@2@V?$allocator@U?$pair@$$CBV?$basic_string@DU?$char_traits@D@std@@V?$allocator@D@2@@std@@PAVRelayIndexMap@sass@@@std@@@2@@std@@QAE@XZ 100095d0 f i Session.obj
 0002:00007620       ??_G?$SessionManagerBase@_KVSession@slscsl@@USessionParameters@2@Ublank@boost@@@atat@@UAEPAXI@Z 10009620 f i Session.obj
 0002:00007620       ??_E?$SimpleSessionManager@_KVSession@slscsl@@USessionParameters@2@@atat@@UAEPAXI@Z 10009620 f i  CIL library: CIL module
 0002:00007620       ??_G?$SimpleSessionManager@_KVSession@slscsl@@USessionParameters@2@@atat@@UAEPAXI@Z 10009620 f i Session.obj
 0002:00007620       ??_E?$SessionManagerBase@_KVSession@slscsl@@USessionParameters@2@Ublank@boost@@@atat@@UAEPAXI@Z 10009620 f i  CIL library: CIL module
 0002:00007660       ??1?$tuple@_KV?$intrusive_ptr@VSession@slscsl@@@boost@@Ublank@2@Unull_type@tuples@2@U452@U452@U452@U452@U452@U452@@tuples@boost@@QAE@XZ 10009660 f i Session.obj
 0002:000076a0       ??1?$pair@$$CBVDirectlyConnectableChannels@sass@@V?$set@IU?$less@I@std@@V?$allocator@I@2@@std@@@std@@QAE@XZ 100096a0 f i Session.obj
 0002:00007700       ??1?$pair@$$CBVChannelIndex@sass@@V?$set@VChannelIndex@sass@@U?$less@VChannelIndex@sass@@@std@@V?$allocator@VChannelIndex@sass@@@4@@std@@@std@@QAE@XZ 10009700 f i Session.obj
 0002:00007750       ??1?$set@VChannelIndex@sass@@U?$less@VChannelIndex@sass@@@std@@V?$allocator@VChannelIndex@sass@@@4@@std@@QAE@XZ 10009750 f i Session.obj
 0002:000077a0       ?insert@?$_Tree@V?$_Tmap_traits@V?$basic_string@DU?$char_traits@D@std@@V?$allocator@D@2@@std@@PAVRelayIndexMap@sass@@U?$less@V?$basic_string@DU?$char_traits@D@std@@V?$allocator@D@2@@std@@@2@V?$allocator@U?$pair@$$CBV?$basic_string@DU?$char_traits@D@std@@V?$allocator@D@2@@std@@PAVRelayIndexMap@sass@@@std@@@2@$0A@@std@@@std@@QAE?AU?$pair@Viterator@?$_Tree@V?$_Tmap_traits@V?$basic_string@DU?$char_traits@D@std@@V?$allocator@D@2@@std@@PAVRelayIndexMap@sass@@U?$less@V?$basic_string@DU?$char_traits@D@std@@V?$allocator@D@2@@std@@@2@V?$allocator@U?$pair@$$CBV?$basic_string@DU?$char_traits@D@std@@V?$allocator@D@2@@std@@PAVRelayIndexMap@sass@@@std@@@2@$0A@@std@@@std@@_N@2@ABU?$pair@$$CBV?$basic_string@DU?$char_traits@D@std@@V?$allocator@D@2@@std@@PAVRelayIndexMap@sass@@@2@@Z 100097a0 f i Session.obj
 0002:000078b0       ?find@?$_Tree@V?$_Tmap_traits@V?$basic_string@DU?$char_traits@D@std@@V?$allocator@D@2@@std@@PAVRelayIndexMap@sass@@U?$less@V?$basic_string@DU?$char_traits@D@std@@V?$allocator@D@2@@std@@@2@V?$allocator@U?$pair@$$CBV?$basic_string@DU?$char_traits@D@std@@V?$allocator@D@2@@std@@PAVRelayIndexMap@sass@@@std@@@2@$0A@@std@@@std@@QAE?AViterator@12@ABV?$basic_string@DU?$char_traits@D@std@@V?$allocator@D@2@@2@@Z 100098b0 f i Session.obj
 0002:00007930       ?push_back@?$vector@V?$tuple@_KV?$intrusive_ptr@VSession@slscsl@@@boost@@Ublank@2@Unull_type@tuples@2@U452@U452@U452@U452@U452@U452@@tuples@boost@@V?$allocator@V?$tuple@_KV?$intrusive_ptr@VSession@slscsl@@@boost@@Ublank@2@Unull_type@tuples@2@U452@U452@U452@U452@U452@U452@@tuples@boost@@@std@@@std@@QAEXABV?$tuple@_KV?$intrusive_ptr@VSession@slscsl@@@boost@@Ublank@2@Unull_type@tuples@2@U452@U452@U452@U452@U452@U452@@tuples@boost@@@Z 10009930 f i Session.obj
 0002:000079a0       ?erase@?$vector@V?$tuple@_KV?$intrusive_ptr@VSession@slscsl@@@boost@@Ublank@2@Unull_type@tuples@2@U452@U452@U452@U452@U452@U452@@tuples@boost@@V?$allocator@V?$tuple@_KV?$intrusive_ptr@VSession@slscsl@@@boost@@Ublank@2@Unull_type@tuples@2@U452@U452@U452@U452@U452@U452@@tuples@boost@@@std@@@std@@QAE?AV?$_Vector_iterator@V?$tuple@_KV?$intrusive_ptr@VSession@slscsl@@@boost@@Ublank@2@Unull_type@tuples@2@U452@U452@U452@U452@U452@U452@@tuples@boost@@V?$allocator@V?$tuple@_KV?$intrusive_ptr@VSession@slscsl@@@boost@@Ublank@2@Unull_type@tuples@2@U452@U452@U452@U452@U452@U452@@tuples@boost@@@std@@@2@V?$_Vector_const_iterator@V?$tuple@_KV?$intrusive_ptr@VSession@slscsl@@@boost@@Ublank@2@Unull_type@tuples@2@U452@U452@U452@U452@U452@U452@@tuples@boost@@V?$allocator@V?$tuple@_KV?$intrusive_ptr@VSession@slscsl@@@boost@@Ublank@2@Unull_type@tuples@2@U452@U452@U452@U452@U452@U452@@tuples@boost@@@std@@@2@@Z 100099a0 f i Session.obj
 0002:00007a10       ??1?$intrusive_ptr@VSession@slscsl@@@boost@@QAE@XZ 10009a10 f i Session.obj
 0002:00007a40       ??1?$tAutoLock@VtMutex@nNIAPAL000@slscsl@@@nNIAPAL000@slscsl@@QAE@XZ 10009a40 f i Session.obj
 0002:00007a50       ?_Insert@?$_Tree@V?$_Tmap_traits@V?$basic_string@DU?$char_traits@D@std@@V?$allocator@D@2@@std@@PAVRelayIndexMap@sass@@U?$less@V?$basic_string@DU?$char_traits@D@std@@V?$allocator@D@2@@std@@@2@V?$allocator@U?$pair@$$CBV?$basic_string@DU?$char_traits@D@std@@V?$allocator@D@2@@std@@PAVRelayIndexMap@sass@@@std@@@2@$0A@@std@@@std@@IAE?AViterator@12@_NPAU_Node@?$_Tree_nod@V?$_Tmap_traits@V?$basic_string@DU?$char_traits@D@std@@V?$allocator@D@2@@std@@PAVRelayIndexMap@sass@@U?$less@V?$basic_string@DU?$char_traits@D@std@@V?$allocator@D@2@@std@@@2@V?$allocator@U?$pair@$$CBV?$basic_string@DU?$char_traits@D@std@@V?$allocator@D@2@@std@@PAVRelayIndexMap@sass@@@std@@@2@$0A@@std@@@2@ABU?$pair@$$CBV?$basic_string@DU?$char_traits@D@std@@V?$allocator@D@2@@std@@PAVRelayIndexMap@sass@@@2@@Z 10009a50 f i Session.obj
 0002:00007c60       ?_Tidy@?$_Tree@V?$_Tmap_traits@V?$basic_string@DU?$char_traits@D@std@@V?$allocator@D@2@@std@@PAVRelayIndexMap@sass@@U?$less@V?$basic_string@DU?$char_traits@D@std@@V?$allocator@D@2@@std@@@2@V?$allocator@U?$pair@$$CBV?$basic_string@DU?$char_traits@D@std@@V?$allocator@D@2@@std@@PAVRelayIndexMap@sass@@@std@@@2@$0A@@std@@@std@@IAEXXZ 10009c60 f i Session.obj
 0002:00007ca0       ?insert@?$vector@V?$tuple@_KV?$intrusive_ptr@VSession@slscsl@@@boost@@Ublank@2@Unull_type@tuples@2@U452@U452@U452@U452@U452@U452@@tuples@boost@@V?$allocator@V?$tuple@_KV?$intrusive_ptr@VSession@slscsl@@@boost@@Ublank@2@Unull_type@tuples@2@U452@U452@U452@U452@U452@U452@@tuples@boost@@@std@@@std@@QAE?AV?$_Vector_iterator@V?$tuple@_KV?$intrusive_ptr@VSession@slscsl@@@boost@@Ublank@2@Unull_type@tuples@2@U452@U452@U452@U452@U452@U452@@tuples@boost@@V?$allocator@V?$tuple@_KV?$intrusive_ptr@VSession@slscsl@@@boost@@Ublank@2@Unull_type@tuples@2@U452@U452@U452@U452@U452@U452@@tuples@boost@@@std@@@2@V?$_Vector_const_iterator@V?$tuple@_KV?$intrusive_ptr@VSession@slscsl@@@boost@@Ublank@2@Unull_type@tuples@2@U452@U452@U452@U452@U452@U452@@tuples@boost@@V?$allocator@V?$tuple@_KV?$intrusive_ptr@VSession@slscsl@@@boost@@Ublank@2@Unull_type@tuples@2@U452@U452@U452@U452@U452@U452@@tuples@boost@@@std@@@2@ABV?$tuple@_KV?$intrusive_ptr@VSession@slscsl@@@boost@@Ublank@2@Unull_type@tuples@2@U452@U452@U452@U452@U452@U452@@tuples@boost@@@Z 10009ca0 f i Session.obj
 0002:00007d50       ?_Ufill@?$vector@V?$tuple@_KV?$intrusive_ptr@VSession@slscsl@@@boost@@Ublank@2@Unull_type@tuples@2@U452@U452@U452@U452@U452@U452@@tuples@boost@@V?$allocator@V?$tuple@_KV?$intrusive_ptr@VSession@slscsl@@@boost@@Ublank@2@Unull_type@tuples@2@U452@U452@U452@U452@U452@U452@@tuples@boost@@@std@@@std@@IAEPAV?$tuple@_KV?$intrusive_ptr@VSession@slscsl@@@boost@@Ublank@2@Unull_type@tuples@2@U452@U452@U452@U452@U452@U452@@tuples@boost@@PAV345@IABV345@@Z 10009d50 f i Session.obj
 0002:00007d80       ?_Tidy@?$_Tree@V?$_Tset_traits@VChannelIndex@sass@@U?$less@VChannelIndex@sass@@@std@@V?$allocator@VChannelIndex@sass@@@4@$0A@@std@@@std@@IAEXXZ 10009d80 f i Session.obj
 0002:00007dc0       ?erase@?$_Tree@V?$_Tmap_traits@V?$basic_string@DU?$char_traits@D@std@@V?$allocator@D@2@@std@@PAVRelayIndexMap@sass@@U?$less@V?$basic_string@DU?$char_traits@D@std@@V?$allocator@D@2@@std@@@2@V?$allocator@U?$pair@$$CBV?$basic_string@DU?$char_traits@D@std@@V?$allocator@D@2@@std@@PAVRelayIndexMap@sass@@@std@@@2@$0A@@std@@@std@@QAE?AViterator@12@Vconst_iterator@12@0@Z 10009dc0 f i Session.obj
 0002:00007ea0       ?_Lbound@?$_Tree@V?$_Tmap_traits@V?$basic_string@DU?$char_traits@D@std@@V?$allocator@D@2@@std@@PAVRelayIndexMap@sass@@U?$less@V?$basic_string@DU?$char_traits@D@std@@V?$allocator@D@2@@std@@@2@V?$allocator@U?$pair@$$CBV?$basic_string@DU?$char_traits@D@std@@V?$allocator@D@2@@std@@PAVRelayIndexMap@sass@@@std@@@2@$0A@@std@@@std@@IBEPAU_Node@?$_Tree_nod@V?$_Tmap_traits@V?$basic_string@DU?$char_traits@D@std@@V?$allocator@D@2@@std@@PAVRelayIndexMap@sass@@U?$less@V?$basic_string@DU?$char_traits@D@std@@V?$allocator@D@2@@std@@@2@V?$allocator@U?$pair@$$CBV?$basic_string@DU?$char_traits@D@std@@V?$allocator@D@2@@std@@PAVRelayIndexMap@sass@@@std@@@2@$0A@@std@@@2@ABV?$basic_string@DU?$char_traits@D@std@@V?$allocator@D@2@@2@@Z 10009ea0 f i Session.obj
 0002:00007ef0       ?_Buynode@?$_Tree@V?$_Tmap_traits@V?$basic_string@DU?$char_traits@D@std@@V?$allocator@D@2@@std@@PAVRelayIndexMap@sass@@U?$less@V?$basic_string@DU?$char_traits@D@std@@V?$allocator@D@2@@std@@@2@V?$allocator@U?$pair@$$CBV?$basic_string@DU?$char_traits@D@std@@V?$allocator@D@2@@std@@PAVRelayIndexMap@sass@@@std@@@2@$0A@@std@@@std@@IAEPAU_Node@?$_Tree_nod@V?$_Tmap_traits@V?$basic_string@DU?$char_traits@D@std@@V?$allocator@D@2@@std@@PAVRelayIndexMap@sass@@U?$less@V?$basic_string@DU?$char_traits@D@std@@V?$allocator@D@2@@std@@@2@V?$allocator@U?$pair@$$CBV?$basic_string@DU?$char_traits@D@std@@V?$allocator@D@2@@std@@PAVRelayIndexMap@sass@@@std@@@2@$0A@@std@@@2@PAU342@00ABU?$pair@$$CBV?$basic_string@DU?$char_traits@D@std@@V?$allocator@D@2@@std@@PAVRelayIndexMap@sass@@@2@D@Z 10009ef0 f i Session.obj
 0002:00007f90       ?_Insert_n@?$vector@V?$tuple@_KV?$intrusive_ptr@VSession@slscsl@@@boost@@Ublank@2@Unull_type@tuples@2@U452@U452@U452@U452@U452@U452@@tuples@boost@@V?$allocator@V?$tuple@_KV?$intrusive_ptr@VSession@slscsl@@@boost@@Ublank@2@Unull_type@tuples@2@U452@U452@U452@U452@U452@U452@@tuples@boost@@@std@@@std@@IAEXV?$_Vector_const_iterator@V?$tuple@_KV?$intrusive_ptr@VSession@slscsl@@@boost@@Ublank@2@Unull_type@tuples@2@U452@U452@U452@U452@U452@U452@@tuples@boost@@V?$allocator@V?$tuple@_KV?$intrusive_ptr@VSession@slscsl@@@boost@@Ublank@2@Unull_type@tuples@2@U452@U452@U452@U452@U452@U452@@tuples@boost@@@std@@@2@IABV?$tuple@_KV?$intrusive_ptr@VSession@slscsl@@@boost@@Ublank@2@Unull_type@tuples@2@U452@U452@U452@U452@U452@U452@@tuples@boost@@@Z 10009f90 f i Session.obj
 0002:00008210       ?erase@?$_Tree@V?$_Tset_traits@GU?$less@G@std@@V?$allocator@G@2@$0A@@std@@@std@@QAE?AViterator@12@Vconst_iterator@12@0@Z 1000a210 f i RelayInformationFactory.obj
 0002:00008210       ?erase@?$_Tree@V?$_Tset_traits@VChannelIndex@sass@@U?$less@VChannelIndex@sass@@@std@@V?$allocator@VChannelIndex@sass@@@4@$0A@@std@@@std@@QAE?AViterator@12@Vconst_iterator@12@0@Z 1000a210 f i Session.obj
 0002:000082f0       ?_Inc@const_iterator@?$_Tree@V?$_Tmap_traits@V?$basic_string@DU?$char_traits@D@std@@V?$allocator@D@2@@std@@PAVRelayIndexMap@sass@@U?$less@V?$basic_string@DU?$char_traits@D@std@@V?$allocator@D@2@@std@@@2@V?$allocator@U?$pair@$$CBV?$basic_string@DU?$char_traits@D@std@@V?$allocator@D@2@@std@@PAVRelayIndexMap@sass@@@std@@@2@$0A@@std@@@std@@QAEXXZ 1000a2f0 f i Session.obj
 0002:000082f0       ?_Inc@const_iterator@?$_Tree@V?$_Tmap_traits@V?$basic_string@DU?$char_traits@D@std@@V?$allocator@D@2@@std@@PAUTopology@sass@@U?$less@V?$basic_string@DU?$char_traits@D@std@@V?$allocator@D@2@@std@@@2@V?$allocator@U?$pair@$$CBV?$basic_string@DU?$char_traits@D@std@@V?$allocator@D@2@@std@@PAUTopology@sass@@@std@@@2@$0A@@std@@@std@@QAEXXZ 1000a2f0 f i multitons.obj
 0002:00008360       ??0?$tuple@_KV?$intrusive_ptr@VSession@slscsl@@@boost@@Ublank@2@Unull_type@tuples@2@U452@U452@U452@U452@U452@U452@@tuples@boost@@QAE@ABV012@@Z 1000a360 f i Session.obj
 0002:000083a0       ?erase@?$_Tree@V?$_Tmap_traits@V?$basic_string@DU?$char_traits@D@std@@V?$allocator@D@2@@std@@PAVRelayIndexMap@sass@@U?$less@V?$basic_string@DU?$char_traits@D@std@@V?$allocator@D@2@@std@@@2@V?$allocator@U?$pair@$$CBV?$basic_string@DU?$char_traits@D@std@@V?$allocator@D@2@@std@@PAVRelayIndexMap@sass@@@std@@@2@$0A@@std@@@std@@QAE?AViterator@12@Vconst_iterator@12@@Z 1000a3a0 f i Session.obj
 0002:00008670       ?erase@?$_Tree@V?$_Tset_traits@GU?$less@G@std@@V?$allocator@G@2@$0A@@std@@@std@@QAE?AViterator@12@Vconst_iterator@12@@Z 1000a670 f i RelayInformationFactory.obj
 0002:00008670       ?erase@?$_Tree@V?$_Tset_traits@VChannelIndex@sass@@U?$less@VChannelIndex@sass@@@std@@V?$allocator@VChannelIndex@sass@@@4@$0A@@std@@@std@@QAE?AViterator@12@Vconst_iterator@12@@Z 1000a670 f i Session.obj
 0002:00008930       ?_Dec@const_iterator@?$_Tree@V?$_Tmap_traits@V?$basic_string@DU?$char_traits@D@std@@V?$allocator@D@2@@std@@PAVRelayIndexMap@sass@@U?$less@V?$basic_string@DU?$char_traits@D@std@@V?$allocator@D@2@@std@@@2@V?$allocator@U?$pair@$$CBV?$basic_string@DU?$char_traits@D@std@@V?$allocator@D@2@@std@@PAVRelayIndexMap@sass@@@std@@@2@$0A@@std@@@std@@QAEXXZ 1000a930 f i Session.obj
 0002:000089c0       ?_Erase@?$_Tree@V?$_Tmap_traits@V?$basic_string@DU?$char_traits@D@std@@V?$allocator@D@2@@std@@PAVRelayIndexMap@sass@@U?$less@V?$basic_string@DU?$char_traits@D@std@@V?$allocator@D@2@@std@@@2@V?$allocator@U?$pair@$$CBV?$basic_string@DU?$char_traits@D@std@@V?$allocator@D@2@@std@@PAVRelayIndexMap@sass@@@std@@@2@$0A@@std@@@std@@IAEXPAU_Node@?$_Tree_nod@V?$_Tmap_traits@V?$basic_string@DU?$char_traits@D@std@@V?$allocator@D@2@@std@@PAVRelayIndexMap@sass@@U?$less@V?$basic_string@DU?$char_traits@D@std@@V?$allocator@D@2@@std@@@2@V?$allocator@U?$pair@$$CBV?$basic_string@DU?$char_traits@D@std@@V?$allocator@D@2@@std@@PAVRelayIndexMap@sass@@@std@@@2@$0A@@std@@@2@@Z 1000a9c0 f i Session.obj
 0002:000089c0       ?_Erase@?$_Tree@V?$_Tmap_traits@V?$basic_string@DU?$char_traits@D@std@@V?$allocator@D@2@@std@@PAUTopology@sass@@U?$less@V?$basic_string@DU?$char_traits@D@std@@V?$allocator@D@2@@std@@@2@V?$allocator@U?$pair@$$CBV?$basic_string@DU?$char_traits@D@std@@V?$allocator@D@2@@std@@PAUTopology@sass@@@std@@@2@$0A@@std@@@std@@IAEXPAU_Node@?$_Tree_nod@V?$_Tmap_traits@V?$basic_string@DU?$char_traits@D@std@@V?$allocator@D@2@@std@@PAUTopology@sass@@U?$less@V?$basic_string@DU?$char_traits@D@std@@V?$allocator@D@2@@std@@@2@V?$allocator@U?$pair@$$CBV?$basic_string@DU?$char_traits@D@std@@V?$allocator@D@2@@std@@PAUTopology@sass@@@std@@@2@$0A@@std@@@2@@Z 1000a9c0 f i multitons.obj
 0002:00008a10       ?_Max@?$_Tree@V?$_Tmap_traits@V?$basic_string@DU?$char_traits@D@std@@V?$allocator@D@2@@std@@PAVRelayIndexMap@sass@@U?$less@V?$basic_string@DU?$char_traits@D@std@@V?$allocator@D@2@@std@@@2@V?$allocator@U?$pair@$$CBV?$basic_string@DU?$char_traits@D@std@@V?$allocator@D@2@@std@@PAVRelayIndexMap@sass@@@std@@@2@$0A@@std@@@std@@KAPAU_Node@?$_Tree_nod@V?$_Tmap_traits@V?$basic_string@DU?$char_traits@D@std@@V?$allocator@D@2@@std@@PAVRelayIndexMap@sass@@U?$less@V?$basic_string@DU?$char_traits@D@std@@V?$allocator@D@2@@std@@@2@V?$allocator@U?$pair@$$CBV?$basic_string@DU?$char_traits@D@std@@V?$allocator@D@2@@std@@PAVRelayIndexMap@sass@@@std@@@2@$0A@@std@@@2@PAU342@@Z 1000aa10 f i Session.obj
 0002:00008a30       ?_Erase@?$_Tree@V?$_Tset_traits@GU?$less@G@std@@V?$allocator@G@2@$0A@@std@@@std@@IAEXPAU_Node@?$_Tree_nod@V?$_Tset_traits@GU?$less@G@std@@V?$allocator@G@2@$0A@@std@@@2@@Z 1000aa30 f i RelayInformationFactory.obj
 0002:00008a30       ?_Erase@?$_Tree@V?$_Tset_traits@VChannelIndex@sass@@U?$less@VChannelIndex@sass@@@std@@V?$allocator@VChannelIndex@sass@@@4@$0A@@std@@@std@@IAEXPAU_Node@?$_Tree_nod@V?$_Tset_traits@VChannelIndex@sass@@U?$less@VChannelIndex@sass@@@std@@V?$allocator@VChannelIndex@sass@@@4@$0A@@std@@@2@@Z 1000aa30 f i Session.obj
 0002:00008a70       ?_Lrotate@?$_Tree@V?$_Tset_traits@VChannelIndex@sass@@U?$less@VChannelIndex@sass@@@std@@V?$allocator@VChannelIndex@sass@@@4@$0A@@std@@@std@@IAEXPAU_Node@?$_Tree_nod@V?$_Tset_traits@VChannelIndex@sass@@U?$less@VChannelIndex@sass@@@std@@V?$allocator@VChannelIndex@sass@@@4@$0A@@std@@@2@@Z 1000aa70 f i Session.obj
 0002:00008a70       ?_Lrotate@?$_Tree@V?$_Tset_traits@GU?$less@G@std@@V?$allocator@G@2@$0A@@std@@@std@@IAEXPAU_Node@?$_Tree_nod@V?$_Tset_traits@GU?$less@G@std@@V?$allocator@G@2@$0A@@std@@@2@@Z 1000aa70 f i RelayInformationFactory.obj
 0002:00008ad0       ?_Max@?$_Tree@V?$_Tset_traits@VChannelIndex@sass@@U?$less@VChannelIndex@sass@@@std@@V?$allocator@VChannelIndex@sass@@@4@$0A@@std@@@std@@KAPAU_Node@?$_Tree_nod@V?$_Tset_traits@VChannelIndex@sass@@U?$less@VChannelIndex@sass@@@std@@V?$allocator@VChannelIndex@sass@@@4@$0A@@std@@@2@PAU342@@Z 1000aad0 f i Session.obj
 0002:00008ad0       ?_Max@?$_Tree@V?$_Tset_traits@GU?$less@G@std@@V?$allocator@G@2@$0A@@std@@@std@@KAPAU_Node@?$_Tree_nod@V?$_Tset_traits@GU?$less@G@std@@V?$allocator@G@2@$0A@@std@@@2@PAU342@@Z 1000aad0 f i RelayInformationFactory.obj
 0002:00008af0       ?_Rrotate@?$_Tree@V?$_Tset_traits@GU?$less@G@std@@V?$allocator@G@2@$0A@@std@@@std@@IAEXPAU_Node@?$_Tree_nod@V?$_Tset_traits@GU?$less@G@std@@V?$allocator@G@2@$0A@@std@@@2@@Z 1000aaf0 f i RelayInformationFactory.obj
 0002:00008af0       ?_Rrotate@?$_Tree@V?$_Tset_traits@VChannelIndex@sass@@U?$less@VChannelIndex@sass@@@std@@V?$allocator@VChannelIndex@sass@@@4@$0A@@std@@@std@@IAEXPAU_Node@?$_Tree_nod@V?$_Tset_traits@VChannelIndex@sass@@U?$less@VChannelIndex@sass@@@std@@V?$allocator@VChannelIndex@sass@@@4@$0A@@std@@@2@@Z 1000aaf0 f i Session.obj
 0002:00008b50       ?findAvailableHandle@?$SessionManagerBase@_KVSession@slscsl@@USessionParameters@2@Ublank@boost@@@atat@@IBE_KXZ 1000ab50 f i Session.obj
 0002:00008c00       ?sessionHandleIsEqual@?$SessionRegistry@_KVSession@slscsl@@Ublank@boost@@@atat@@CA_N_KABV?$tuple@_KV?$intrusive_ptr@VSession@slscsl@@@boost@@Ublank@2@Unull_type@tuples@2@U452@U452@U452@U452@U452@U452@@tuples@boost@@@Z 1000ac00 f i Session.obj
 0002:00008c20       ?sessionIdentifierIsEqual@?$SessionRegistry@_KVSession@slscsl@@Ublank@boost@@@atat@@CA_NPBDABV?$tuple@_KV?$intrusive_ptr@VSession@slscsl@@@boost@@Ublank@2@Unull_type@tuples@2@U452@U452@U452@U452@U452@U452@@tuples@boost@@@Z 1000ac20 f i Session.obj
 0002:00008cd0       ??$make_tuple@_KV?$intrusive_ptr@VSession@slscsl@@@boost@@Ublank@2@@tuples@boost@@YA?AV?$tuple@_KV?$intrusive_ptr@VSession@slscsl@@@boost@@Ublank@2@Unull_type@tuples@2@U452@U452@U452@U452@U452@U452@@01@AB_KABV?$intrusive_ptr@VSession@slscsl@@@1@ABUblank@1@@Z 1000acd0 f i Session.obj
 0002:00008d00       ??$bind@_N_KABV?$tuple@_KV?$intrusive_ptr@VSession@slscsl@@@boost@@Ublank@2@Unull_type@tuples@2@U452@U452@U452@U452@U452@U452@@tuples@boost@@_KU?$arg@$00@3@@boost@@YA?AV?$bind_t@_NP6A_N_KABV?$tuple@_KV?$intrusive_ptr@VSession@slscsl@@@boost@@Ublank@2@Unull_type@tuples@2@U452@U452@U452@U452@U452@U452@@tuples@boost@@@ZV?$list2@V?$value@_K@_bi@boost@@U?$arg@$00@3@@_bi@3@@_bi@0@P6A_N_KABV?$tuple@_KV?$intrusive_ptr@VSession@slscsl@@@boost@@Ublank@2@Unull_type@tuples@2@U452@U452@U452@U452@U452@U452@@tuples@0@@Z0U?$arg@$00@0@@Z 1000ad00 f i Session.obj
 0002:00008d20       ??$find_if@V?$_Vector_iterator@V?$tuple@_KV?$intrusive_ptr@VSession@slscsl@@@boost@@Ublank@2@Unull_type@tuples@2@U452@U452@U452@U452@U452@U452@@tuples@boost@@V?$allocator@V?$tuple@_KV?$intrusive_ptr@VSession@slscsl@@@boost@@Ublank@2@Unull_type@tuples@2@U452@U452@U452@U452@U452@U452@@tuples@boost@@@std@@@std@@V?$bind_t@_NP6A_N_KABV?$tuple@_KV?$intrusive_ptr@VSession@slscsl@@@boost@@Ublank@2@Unull_type@tuples@2@U452@U452@U452@U452@U452@U452@@tuples@boost@@@ZV?$list2@V?$value@_K@_bi@boost@@U?$arg@$00@3@@_bi@3@@_bi@boost@@@std@@YA?AV?$_Vector_iterator@V?$tuple@_KV?$intrusive_ptr@VSession@slscsl@@@boost@@Ublank@2@Unull_type@tuples@2@U452@U452@U452@U452@U452@U452@@tuples@boost@@V?$allocator@V?$tuple@_KV?$intrusive_ptr@VSession@slscsl@@@boost@@Ublank@2@Unull_type@tuples@2@U452@U452@U452@U452@U452@U452@@tuples@boost@@@std@@@0@V10@0V?$bind_t@_NP6A_N_KABV?$tuple@_KV?$intrusive_ptr@VSession@slscsl@@@boost@@Ublank@2@Unull_type@tuples@2@U452@U452@U452@U452@U452@U452@@tuples@boost@@@ZV?$list2@V?$value@_K@_bi@boost@@U?$arg@$00@3@@_bi@3@@_bi@boost@@@Z 1000ad20 f i Session.obj
 0002:00008d80       ??$find_if@V?$_Vector_const_iterator@V?$tuple@_KV?$intrusive_ptr@VSession@slscsl@@@boost@@Ublank@2@Unull_type@tuples@2@U452@U452@U452@U452@U452@U452@@tuples@boost@@V?$allocator@V?$tuple@_KV?$intrusive_ptr@VSession@slscsl@@@boost@@Ublank@2@Unull_type@tuples@2@U452@U452@U452@U452@U452@U452@@tuples@boost@@@std@@@std@@V?$bind_t@_NP6A_NPBDABV?$tuple@_KV?$intrusive_ptr@VSession@slscsl@@@boost@@Ublank@2@Unull_type@tuples@2@U452@U452@U452@U452@U452@U452@@tuples@boost@@@ZV?$list2@V?$value@PBD@_bi@boost@@U?$arg@$00@3@@_bi@3@@_bi@boost@@@std@@YA?AV?$_Vector_const_iterator@V?$tuple@_KV?$intrusive_ptr@VSession@slscsl@@@boost@@Ublank@2@Unull_type@tuples@2@U452@U452@U452@U452@U452@U452@@tuples@boost@@V?$allocator@V?$tuple@_KV?$intrusive_ptr@VSession@slscsl@@@boost@@Ublank@2@Unull_type@tuples@2@U452@U452@U452@U452@U452@U452@@tuples@boost@@@std@@@0@V10@0V?$bind_t@_NP6A_NPBDABV?$tuple@_KV?$intrusive_ptr@VSession@slscsl@@@boost@@Ublank@2@Unull_type@tuples@2@U452@U452@U452@U452@U452@U452@@tuples@boost@@@ZV?$list2@V?$value@PBD@_bi@boost@@U?$arg@$00@3@@_bi@3@@_bi@boost@@@Z 1000ad80 f i Session.obj
 0002:00008dd0       ??$find_if@V?$_Vector_const_iterator@V?$tuple@_KV?$intrusive_ptr@VSession@slscsl@@@boost@@Ublank@2@Unull_type@tuples@2@U452@U452@U452@U452@U452@U452@@tuples@boost@@V?$allocator@V?$tuple@_KV?$intrusive_ptr@VSession@slscsl@@@boost@@Ublank@2@Unull_type@tuples@2@U452@U452@U452@U452@U452@U452@@tuples@boost@@@std@@@std@@V?$bind_t@_NP6A_N_KABV?$tuple@_KV?$intrusive_ptr@VSession@slscsl@@@boost@@Ublank@2@Unull_type@tuples@2@U452@U452@U452@U452@U452@U452@@tuples@boost@@@ZV?$list2@V?$value@_K@_bi@boost@@U?$arg@$00@3@@_bi@3@@_bi@boost@@@std@@YA?AV?$_Vector_const_iterator@V?$tuple@_KV?$intrusive_ptr@VSession@slscsl@@@boost@@Ublank@2@Unull_type@tuples@2@U452@U452@U452@U452@U452@U452@@tuples@boost@@V?$allocator@V?$tuple@_KV?$intrusive_ptr@VSession@slscsl@@@boost@@Ublank@2@Unull_type@tuples@2@U452@U452@U452@U452@U452@U452@@tuples@boost@@@std@@@0@V10@0V?$bind_t@_NP6A_N_KABV?$tuple@_KV?$intrusive_ptr@VSession@slscsl@@@boost@@Ublank@2@Unull_type@tuples@2@U452@U452@U452@U452@U452@U452@@tuples@boost@@@ZV?$list2@V?$value@_K@_bi@boost@@U?$arg@$00@3@@_bi@3@@_bi@boost@@@Z 1000add0 f i Session.obj
 0002:00008e30       ??$_Destroy_range@V?$allocator@V?$tuple@_KV?$intrusive_ptr@VSession@slscsl@@@boost@@Ublank@2@Unull_type@tuples@2@U452@U452@U452@U452@U452@U452@@tuples@boost@@@std@@@std@@YAXPAV?$tuple@_KV?$intrusive_ptr@VSession@slscsl@@@boost@@Ublank@2@Unull_type@tuples@2@U452@U452@U452@U452@U452@U452@@tuples@boost@@0AAV?$allocator@V?$tuple@_KV?$intrusive_ptr@VSession@slscsl@@@boost@@Ublank@2@Unull_type@tuples@2@U452@U452@U452@U452@U452@U452@@tuples@boost@@@0@U_Nonscalar_ptr_iterator_tag@0@@Z 1000ae30 f i Session.obj
 0002:00008e80       ??$_Umove@PAV?$tuple@_KV?$intrusive_ptr@VSession@slscsl@@@boost@@Ublank@2@Unull_type@tuples@2@U452@U452@U452@U452@U452@U452@@tuples@boost@@@?$vector@V?$tuple@_KV?$intrusive_ptr@VSession@slscsl@@@boost@@Ublank@2@Unull_type@tuples@2@U452@U452@U452@U452@U452@U452@@tuples@boost@@V?$allocator@V?$tuple@_KV?$intrusive_ptr@VSession@slscsl@@@boost@@Ublank@2@Unull_type@tuples@2@U452@U452@U452@U452@U452@U452@@tuples@boost@@@std@@@std@@IAEPAV?$tuple@_KV?$intrusive_ptr@VSession@slscsl@@@boost@@Ublank@2@Unull_type@tuples@2@U452@U452@U452@U452@U452@U452@@tuples@boost@@PAV234@00@Z 1000ae80 f i Session.obj
 0002:00008eb0       ??$_Unchecked_move_backward@PAV?$tuple@_KV?$intrusive_ptr@VSession@slscsl@@@boost@@Ublank@2@Unull_type@tuples@2@U452@U452@U452@U452@U452@U452@@tuples@boost@@PAV123@@stdext@@YAPAV?$tuple@_KV?$intrusive_ptr@VSession@slscsl@@@boost@@Ublank@2@Unull_type@tuples@2@U452@U452@U452@U452@U452@U452@@tuples@boost@@PAV123@00@Z 1000aeb0 f i Session.obj
 0002:00008ef0       ??$_Uninit_fill_n@PAV?$tuple@_KV?$intrusive_ptr@VSession@slscsl@@@boost@@Ublank@2@Unull_type@tuples@2@U452@U452@U452@U452@U452@U452@@tuples@boost@@IV123@V?$allocator@V?$tuple@_KV?$intrusive_ptr@VSession@slscsl@@@boost@@Ublank@2@Unull_type@tuples@2@U452@U452@U452@U452@U452@U452@@tuples@boost@@@std@@@std@@YAXPAV?$tuple@_KV?$intrusive_ptr@VSession@slscsl@@@boost@@Ublank@2@Unull_type@tuples@2@U452@U452@U452@U452@U452@U452@@tuples@boost@@IABV123@AAV?$allocator@V?$tuple@_KV?$intrusive_ptr@VSession@slscsl@@@boost@@Ublank@2@Unull_type@tuples@2@U452@U452@U452@U452@U452@U452@@tuples@boost@@@0@U_Nonscalar_ptr_iterator_tag@0@U_Range_checked_iterator_tag@0@@Z 1000aef0 f i Session.obj
 0002:00008f40       ??$_Fill@PAV?$tuple@_KV?$intrusive_ptr@VSession@slscsl@@@boost@@Ublank@2@Unull_type@tuples@2@U452@U452@U452@U452@U452@U452@@tuples@boost@@V123@@std@@YAXPAV?$tuple@_KV?$intrusive_ptr@VSession@slscsl@@@boost@@Ublank@2@Unull_type@tuples@2@U452@U452@U452@U452@U452@U452@@tuples@boost@@0ABV123@@Z 1000af40 f i Session.obj
 0002:00008fb0       ??$_Copy_opt@PAV?$tuple@_KV?$intrusive_ptr@VSession@slscsl@@@boost@@Ublank@2@Unull_type@tuples@2@U452@U452@U452@U452@U452@U452@@tuples@boost@@PAV123@Uforward_iterator_tag@std@@@std@@YAPAV?$tuple@_KV?$intrusive_ptr@VSession@slscsl@@@boost@@Ublank@2@Unull_type@tuples@2@U452@U452@U452@U452@U452@U452@@tuples@boost@@PAV123@00Uforward_iterator_tag@0@U_Nonscalar_ptr_iterator_tag@0@U_Range_checked_iterator_tag@0@@Z 1000afb0 f i Session.obj
 0002:00009030       ??$_Copy_backward_opt@PAV?$tuple@_KV?$intrusive_ptr@VSession@slscsl@@@boost@@Ublank@2@Unull_type@tuples@2@U452@U452@U452@U452@U452@U452@@tuples@boost@@PAV123@Uforward_iterator_tag@std@@@std@@YAPAV?$tuple@_KV?$intrusive_ptr@VSession@slscsl@@@boost@@Ublank@2@Unull_type@tuples@2@U452@U452@U452@U452@U452@U452@@tuples@boost@@PAV123@00Uforward_iterator_tag@0@U_Nonscalar_ptr_iterator_tag@0@U_Range_checked_iterator_tag@0@@Z 1000b030 f i Session.obj
 0002:000090b0       ??$_Uninit_copy@PAV?$tuple@_KV?$intrusive_ptr@VSession@slscsl@@@boost@@Ublank@2@Unull_type@tuples@2@U452@U452@U452@U452@U452@U452@@tuples@boost@@PAV123@V?$allocator@V?$tuple@_KV?$intrusive_ptr@VSession@slscsl@@@boost@@Ublank@2@Unull_type@tuples@2@U452@U452@U452@U452@U452@U452@@tuples@boost@@@std@@@std@@YAPAV?$tuple@_KV?$intrusive_ptr@VSession@slscsl@@@boost@@Ublank@2@Unull_type@tuples@2@U452@U452@U452@U452@U452@U452@@tuples@boost@@PAV123@00AAV?$allocator@V?$tuple@_KV?$intrusive_ptr@VSession@slscsl@@@boost@@Ublank@2@Unull_type@tuples@2@U452@U452@U452@U452@U452@U452@@tuples@boost@@@0@U_Nonscalar_ptr_iterator_tag@0@U_Range_checked_iterator_tag@0@@Z 1000b0b0 f i Session.obj
 0002:00009100       ?newSession@SessionFactory@slscsl@@UAE?AV?$intrusive_ptr@VSession@slscsl@@@boost@@PBDAAUSessionParameters@2@@Z 1000b100 f   SessionFactory.obj
 0002:00009170       ?deleteSession@SessionFactory@slscsl@@UAEXAAV?$intrusive_ptr@VSession@slscsl@@@boost@@@Z 1000b170 f   SessionFactory.obj
 0002:000091c0       ??0SessionImplementation@slscsl@@QAE@PBDAAUTopology@sass@@AAVSwitchStateFactory@1@AAVChannelAPIInputProcessor@3@AAVRelayAPIInputProcessor@3@@Z 1000b1c0 f   SessionImplementation.obj
 0002:00009240       ??_ESessionImplementation@slscsl@@UAEPAXI@Z 1000b240 f i  CIL library: CIL module
 0002:00009240       ??_GSessionImplementation@slscsl@@UAEPAXI@Z 1000b240 f i SessionImplementation.obj
 0002:00009270       ??1SessionImplementation@slscsl@@UAE@XZ 1000b270 f   SessionImplementation.obj
 0002:000092d0       ?relayControl@SessionImplementation@slscsl@@QAEXPBDW4RelayAction@sass@@AAV?$vector@VSwitchAction@sass@@V?$allocator@VSwitchAction@sass@@@std@@@std@@@Z 1000b2d0 f   SessionImplementation.obj
 0002:00009410       ?connectOrDisconnect@SessionImplementation@slscsl@@AAEXPBDW4ChannelActionType@ChannelAction@sass@@AAV?$vector@VSwitchAction@sass@@V?$allocator@VSwitchAction@sass@@@std@@@std@@@Z 1000b410 f   SessionImplementation.obj
 0002:000095a0       ??_GSwitchStateFactory@slscsl@@UAEPAXI@Z 1000b5a0 f i SwitchStateFactory.obj
 0002:000095a0       ??_ESwitchStateFactory@slscsl@@UAEPAXI@Z 1000b5a0 f i  CIL library: CIL module
 0002:000095d0       ??1SwitchStateFactory@slscsl@@UAE@XZ 1000b5d0 f   SwitchStateFactory.obj
 0002:000095e0       ?newSwitchStateBuffer@SwitchStateFactory@slscsl@@QAE?AV?$vector@EV?$allocator@E@std@@@std@@XZ 1000b5e0 f   SwitchStateFactory.obj
 0002:000096c0       ?newSwitchState@SwitchStateFactory@slscsl@@QAEPAVSwitchState@sass@@AAV?$vector@EV?$allocator@E@std@@@std@@@Z 1000b6c0 f   SwitchStateFactory.obj
 0002:00009730       ??0?$vector@EV?$allocator@E@std@@@std@@QAE@I@Z 1000b730 f i SwitchStateFactory.obj
 0002:00009790       ?_Construct_n@?$vector@EV?$allocator@E@std@@@std@@QAEXIABE@Z 1000b790 f i SwitchStateFactory.obj
 0002:000097e0       ??1TopologyFilePathsInterface@sass@@UAE@XZ 1000b7e0 f i TopologyFilePaths.obj
 0002:000097f0       ??_GTopologyFilePathsInterface@sass@@UAEPAXI@Z 1000b7f0 f i TopologyFilePaths.obj
 0002:000097f0       ??_ETopologyFilePathsInterface@sass@@UAEPAXI@Z 1000b7f0 f i  CIL library: CIL module
 0002:000097f0       ??_GTopologyFilePaths@sass@@UAEPAXI@Z 1000b7f0 f i TopologyFilePaths.obj
 0002:000097f0       ??_ETopologyFilePaths@sass@@UAEPAXI@Z 1000b7f0 f i  CIL library: CIL module
 0002:00009820       ??0TopologyFilePaths@slscsl@@QAE@PBD00@Z 1000b820 f   TopologyFilePaths.obj
 0002:00009890       ??_ETopologyFilePaths@slscsl@@UAEPAXI@Z 1000b890 f i  CIL library: CIL module
 0002:00009890       ??_GTopologyFilePaths@slscsl@@UAEPAXI@Z 1000b890 f i TopologyFilePaths.obj
 0002:000098c0       ??1TopologyFilePaths@slscsl@@UAE@XZ 1000b8c0 f   TopologyFilePaths.obj
 0002:00009930       ?getTOPFilePath@TopologyFilePaths@slscsl@@UBE?AV?$basic_string@DU?$char_traits@D@std@@V?$allocator@D@2@@std@@PBD@Z 1000b930 f   TopologyFilePaths.obj
 0002:00009960       ?getSHWFilePath@TopologyFilePaths@slscsl@@UBE?AV?$basic_string@DU?$char_traits@D@std@@V?$allocator@D@2@@std@@PBD@Z 1000b960 f   TopologyFilePaths.obj
 0002:00009990       ?setCode@Status@nierr@@QAE_NHABVLocation@2@PA_N@Z 1000b990 f i slscsl.obj
 0002:000099f0       ?what@bad_numeric_cast@numeric@boost@@UBEPBDXZ 1000b9f0 f i slscsl.obj
 0002:00009a00       ?what@negative_overflow@numeric@boost@@UBEPBDXZ 1000ba00 f i slscsl.obj
 0002:00009a10       ?what@positive_overflow@numeric@boost@@UBEPBDXZ 1000ba10 f i slscsl.obj
 0002:00009a20       ??Rdef_overflow_handler@numeric@boost@@QAEXW4range_check_result@12@@Z 1000ba20 f i slscsl.obj
 0002:00009a80       ??1positive_overflow@numeric@boost@@UAE@XZ 1000ba80 f i slscsl.obj
 0002:00009a80       ??1negative_overflow@numeric@boost@@UAE@XZ 1000ba80 f i slscsl.obj
 0002:00009a90       ??0negative_overflow@numeric@boost@@QAE@ABV012@@Z 1000ba90 f i slscsl.obj
 0002:00009ab0       ??0bad_numeric_cast@numeric@boost@@QAE@ABV012@@Z 1000bab0 f i slscsl.obj
 0002:00009ad0       ??0positive_overflow@numeric@boost@@QAE@ABV012@@Z 1000bad0 f i slscsl.obj
 0002:00009af0       ??_Gbad_numeric_cast@numeric@boost@@UAEPAXI@Z 1000baf0 f i slscsl.obj
 0002:00009af0       ??_Gnegative_overflow@numeric@boost@@UAEPAXI@Z 1000baf0 f i slscsl.obj
 0002:00009af0       ??_Enegative_overflow@numeric@boost@@UAEPAXI@Z 1000baf0 f i  CIL library: CIL module
 0002:00009af0       ??_Gpositive_overflow@numeric@boost@@UAEPAXI@Z 1000baf0 f i slscsl.obj
 0002:00009af0       ??_Ebad_numeric_cast@numeric@boost@@UAEPAXI@Z 1000baf0 f i  CIL library: CIL module
 0002:00009af0       ??_Epositive_overflow@numeric@boost@@UAEPAXI@Z 1000baf0 f i  CIL library: CIL module
 0002:00009b20       _slscsl_open               1000bb20 f   slscsl.obj
 0002:00009c00       _slscsl_close              1000bc00 f   slscsl.obj
 0002:00009ca0       _slscsl_connect            1000bca0 f   slscsl.obj
 0002:00009ee0       _slscsl_disconnect         1000bee0 f   slscsl.obj
 0002:0000a130       _slscsl_relayControl       1000c130 f   slscsl.obj
 0002:0000a390       ??$translateException@UErrors@slscsl@@@atat@@YAXAAVStatus@nierr@@@Z 1000c390 f i slscsl.obj
 0002:0000a480       ??$convert@VSwitchAction@sass@@Uslscsl_SwitchAction@@@lvdataconv@@YAXABV?$vector@VSwitchAction@sass@@V?$allocator@VSwitchAction@sass@@@std@@@std@@AAU?$LVArrayHandle@Uslscsl_SwitchAction@@$00@0@@Z 1000c480 f i slscsl.obj
 0002:0000a560       ?clear@?$LVArrayHandle@Uslscsl_SwitchAction@@$00@lvdataconv@@QAEXXZ 1000c560 f i slscsl.obj
 0002:0000a5e0       ?dataPtr@?$LVArrayHandle@Uslscsl_SwitchAction@@$00@lvdataconv@@QAEPAUslscsl_SwitchAction@@XZ 1000c5e0 f i slscsl.obj
 0002:0000a600       ??$convertRange@V?$_Vector_const_iterator@VSwitchAction@sass@@V?$allocator@VSwitchAction@sass@@@std@@@std@@PAUslscsl_SwitchAction@@@lvdataconv@@YAPAUslscsl_SwitchAction@@V?$_Vector_const_iterator@VSwitchAction@sass@@V?$allocator@VSwitchAction@sass@@@std@@@std@@0PAU1@@Z 1000c600 f i slscsl.obj
 0002:0000a6b0       ??1ChannelAction@sass@@UAE@XZ 1000c6b0 f   ChannelAction.obj
 0002:0000a6f0       ?reserve@?$vector@VSwitchAction@sass@@V?$allocator@VSwitchAction@sass@@@std@@@std@@QAEXI@Z 1000c6f0 f i SwitchActionWriter.obj
 0002:0000a800       ?push_back@?$vector@VSwitchAction@sass@@V?$allocator@VSwitchAction@sass@@@std@@@std@@QAEXABVSwitchAction@sass@@@Z 1000c800 f i SwitchActionWriter.obj
 0002:0000a8a0       ?insert@?$vector@VSwitchAction@sass@@V?$allocator@VSwitchAction@sass@@@std@@@std@@QAE?AV?$_Vector_iterator@VSwitchAction@sass@@V?$allocator@VSwitchAction@sass@@@std@@@2@V?$_Vector_const_iterator@VSwitchAction@sass@@V?$allocator@VSwitchAction@sass@@@std@@@2@ABVSwitchAction@sass@@@Z 1000c8a0 f i SwitchActionWriter.obj
 0002:0000a970       ?_Ufill@?$vector@V?$stored_edge_iter@IV?$_Iterator@$00@?$list@U?$list_edge@IU?$property@W4edge_weight_t@boost@@EUno_property@2@@boost@@@boost@@V?$allocator@U?$list_edge@IU?$property@W4edge_weight_t@boost@@EUno_property@2@@boost@@@boost@@@std@@@std@@U?$property@W4edge_weight_t@boost@@EUno_property@2@@boost@@@detail@boost@@V?$allocator@V?$stored_edge_iter@IV?$_Iterator@$00@?$list@U?$list_edge@IU?$property@W4edge_weight_t@boost@@EUno_property@2@@boost@@@boost@@V?$allocator@U?$list_edge@IU?$property@W4edge_weight_t@boost@@EUno_property@2@@boost@@@boost@@@std@@@std@@U?$property@W4edge_weight_t@boost@@EUno_property@2@@boost@@@detail@boost@@@std@@@std@@IAEPAV?$stored_edge_iter@IV?$_Iterator@$00@?$list@U?$list_edge@IU?$property@W4edge_weight_t@boost@@EUno_property@2@@boost@@@boost@@V?$allocator@U?$list_edge@IU?$property@W4edge_weight_t@boost@@EUno_property@2@@boost@@@boost@@@std@@@std@@U?$property@W4edge_weight_t@boost@@EUno_property@2@@boost@@@detail@boost@@PAV345@IABV345@@Z 1000c970 f i PathFindingGraph.obj
 0002:0000a970       ?_Ufill@?$vector@VSwitchAction@sass@@V?$allocator@VSwitchAction@sass@@@std@@@std@@IAEPAVSwitchAction@sass@@PAV34@IABV34@@Z 1000c970 f i SwitchActionWriter.obj
 0002:0000a9a0       ?_Insert_n@?$vector@VSwitchAction@sass@@V?$allocator@VSwitchAction@sass@@@std@@@std@@IAEXV?$_Vector_const_iterator@VSwitchAction@sass@@V?$allocator@VSwitchAction@sass@@@std@@@2@IABVSwitchAction@sass@@@Z 1000c9a0 f i SwitchActionWriter.obj
 0002:0000abf0       ??$_Uninit_fill_n@PAV?$stored_edge_iter@IV?$_Iterator@$00@?$list@U?$list_edge@IU?$property@W4edge_weight_t@boost@@EUno_property@2@@boost@@@boost@@V?$allocator@U?$list_edge@IU?$property@W4edge_weight_t@boost@@EUno_property@2@@boost@@@boost@@@std@@@std@@U?$property@W4edge_weight_t@boost@@EUno_property@2@@boost@@@detail@boost@@IV123@V?$allocator@V?$stored_edge_iter@IV?$_Iterator@$00@?$list@U?$list_edge@IU?$property@W4edge_weight_t@boost@@EUno_property@2@@boost@@@boost@@V?$allocator@U?$list_edge@IU?$property@W4edge_weight_t@boost@@EUno_property@2@@boost@@@boost@@@std@@@std@@U?$property@W4edge_weight_t@boost@@EUno_property@2@@boost@@@detail@boost@@@std@@@std@@YAXPAV?$stored_edge_iter@IV?$_Iterator@$00@?$list@U?$list_edge@IU?$property@W4edge_weight_t@boost@@EUno_property@2@@boost@@@boost@@V?$allocator@U?$list_edge@IU?$property@W4edge_weight_t@boost@@EUno_property@2@@boost@@@boost@@@std@@@std@@U?$property@W4edge_weight_t@boost@@EUno_property@2@@boost@@@detail@boost@@IABV123@AAV?$allocator@V?$stored_edge_iter@IV?$_Iterator@$00@?$list@U?$list_edge@IU?$property@W4edge_weight_t@boost@@EUno_property@2@@boost@@@boost@@V?$allocator@U?$list_edge@IU?$property@W4edge_weight_t@boost@@EUno_property@2@@boost@@@boost@@@std@@@std@@U?$property@W4edge_weight_t@boost@@EUno_property@2@@boost@@@detail@boost@@@0@U_Nonscalar_ptr_iterator_tag@0@U_Range_checked_iterator_tag@0@@Z 1000cbf0 f i PathFindingGraph.obj
 0002:0000abf0       ??$_Uninit_fill_n@PAVSwitchAction@sass@@IV12@V?$allocator@VSwitchAction@sass@@@std@@@std@@YAXPAVSwitchAction@sass@@IABV12@AAV?$allocator@VSwitchAction@sass@@@0@U_Nonscalar_ptr_iterator_tag@0@U_Range_checked_iterator_tag@0@@Z 1000cbf0 f i SwitchActionWriter.obj
 0002:0000ac20       ?convert@ChannelToSwitchActionConverter@sass@@QBE?AV?$vector@VSwitchAction@sass@@V?$allocator@VSwitchAction@sass@@@std@@@std@@ABV?$vector@VChannelAction@sass@@V?$allocator@VChannelAction@sass@@@std@@@4@@Z 1000cc20 f   ChannelToSwitchActionConverter.obj
 0002:0000ad40       ?convertChannelActionToSwitchAction@ChannelToSwitchActionConverter@sass@@ABEXABVChannelAction@2@AAV?$vector@VSwitchAction@sass@@V?$allocator@VSwitchAction@sass@@@std@@@std@@@Z 1000cd40 f   ChannelToSwitchActionConverter.obj
 0002:0000ae40       ?createSwitchActions@ChannelToSwitchActionConverter@sass@@ABEXABVDirectlyConnectableChannels@2@ABV?$map@VDirectlyConnectableChannels@sass@@V?$set@IU?$less@I@std@@V?$allocator@I@2@@std@@U?$less@VDirectlyConnectableChannels@sass@@@4@V?$allocator@U?$pair@$$CBVDirectlyConnectableChannels@sass@@V?$set@IU?$less@I@std@@V?$allocator@I@2@@std@@@std@@@4@@std@@W4ChannelActionType@ChannelAction@2@AAV?$vector@VSwitchAction@sass@@V?$allocator@VSwitchAction@sass@@@std@@@5@@Z 1000ce40 f   ChannelToSwitchActionConverter.obj
 0002:0000af20       ?find@?$_Tree@V?$_Tmap_traits@VDirectlyConnectableChannels@sass@@V?$set@IU?$less@I@std@@V?$allocator@I@2@@std@@U?$less@VDirectlyConnectableChannels@sass@@@4@V?$allocator@U?$pair@$$CBVDirectlyConnectableChannels@sass@@V?$set@IU?$less@I@std@@V?$allocator@I@2@@std@@@std@@@4@$0A@@std@@@std@@QBE?AVconst_iterator@12@ABVDirectlyConnectableChannels@sass@@@Z 1000cf20 f i ChannelToSwitchActionConverter.obj
 0002:0000afa0       ?_Lbound@?$_Tree@V?$_Tmap_traits@VDirectlyConnectableChannels@sass@@V?$set@IU?$less@I@std@@V?$allocator@I@2@@std@@U?$less@VDirectlyConnectableChannels@sass@@@4@V?$allocator@U?$pair@$$CBVDirectlyConnectableChannels@sass@@V?$set@IU?$less@I@std@@V?$allocator@I@2@@std@@@std@@@4@$0A@@std@@@std@@IBEPAU_Node@?$_Tree_nod@V?$_Tmap_traits@VDirectlyConnectableChannels@sass@@V?$set@IU?$less@I@std@@V?$allocator@I@2@@std@@U?$less@VDirectlyConnectableChannels@sass@@@4@V?$allocator@U?$pair@$$CBVDirectlyConnectableChannels@sass@@V?$set@IU?$less@I@std@@V?$allocator@I@2@@std@@@std@@@4@$0A@@std@@@2@ABVDirectlyConnectableChannels@sass@@@Z 1000cfa0 f i ChannelToSwitchActionConverter.obj
 0002:0000afe0       ?throwIfInvalidPathStatus@ChannelActionWriter@sass@@SAXW4PathStatus@2@W4ChannelActionType@ChannelAction@2@@Z 1000cfe0 f   ChannelActionWriter.obj
 0002:0000b100       ?getExternalErrorCode@ChannelActionWriter@sass@@CAHW4PathStatus@2@W4ChannelActionType@ChannelAction@2@@Z 1000d100 f   ChannelActionWriter.obj
 0002:0000b160       ?push_back@?$vector@VChannelIndex@sass@@V?$allocator@VChannelIndex@sass@@@std@@@std@@QAEXABVChannelIndex@sass@@@Z 1000d160 f i ChannelActionWriter.obj
 0002:0000b1d0       ?insert@?$vector@VChannelIndex@sass@@V?$allocator@VChannelIndex@sass@@@std@@@std@@QAE?AV?$_Vector_iterator@VChannelIndex@sass@@V?$allocator@VChannelIndex@sass@@@std@@@2@V?$_Vector_const_iterator@VChannelIndex@sass@@V?$allocator@VChannelIndex@sass@@@std@@@2@ABVChannelIndex@sass@@@Z 1000d1d0 f i ChannelActionWriter.obj
 0002:0000b280       ?_Insert_n@?$vector@VChannelIndex@sass@@V?$allocator@VChannelIndex@sass@@@std@@@std@@IAEXV?$_Vector_const_iterator@VChannelIndex@sass@@V?$allocator@VChannelIndex@sass@@@std@@@2@IABVChannelIndex@sass@@@Z 1000d280 f i ChannelActionWriter.obj
 0002:0000b4c0       ??$_Unchecked_move_backward@PAVChannelIndex@sass@@PAV12@@stdext@@YAPAVChannelIndex@sass@@PAV12@00@Z 1000d4c0 f i ChannelActionWriter.obj
 0002:0000b500       ??$_Uninit_fill_n@PAVChannelIndex@sass@@IV12@V?$allocator@VChannelIndex@sass@@@std@@@std@@YAXPAVChannelIndex@sass@@IABV12@AAV?$allocator@VChannelIndex@sass@@@0@U_Nonscalar_ptr_iterator_tag@0@U_Range_checked_iterator_tag@0@@Z 1000d500 f i ChannelActionWriter.obj
 0002:0000b520       ??$_Insert@PBVChannelIndex@sass@@@?$vector@VChannelIndex@sass@@V?$allocator@VChannelIndex@sass@@@std@@@std@@QAEXV?$_Vector_const_iterator@VChannelIndex@sass@@V?$allocator@VChannelIndex@sass@@@std@@@1@PBVChannelIndex@sass@@1Uforward_iterator_tag@1@@Z 1000d520 f i ChannelActionWriter.obj
 0002:0000b6c0       ??6nimxl@@YAAAV?$ArrayInserter@V?$ObjectInserter@V?$ObjectInserter@VInserterBase@jsonz@@@jsonz@@@jsonz@@@jsonz@@AAV12@ABVComment@0@@Z 1000d6c0 f i IniReader.obj
 0002:0000b710       ?what@invalid_code_point@utf8@@UBEPBDXZ 1000d710 f i IniReader.obj
 0002:0000b720       ??_Gexception@utf8@@UAEPAXI@Z 1000d720 f i IniReader.obj
 0002:0000b720       ??_Enot_enough_room@utf8@@UAEPAXI@Z 1000d720 f i  CIL library: CIL module
 0002:0000b720       ??_Einvalid_code_point@utf8@@UAEPAXI@Z 1000d720 f i  CIL library: CIL module
 0002:0000b720       ??_Gnot_enough_room@utf8@@UAEPAXI@Z 1000d720 f i IniReader.obj
 0002:0000b720       ??_Einvalid_utf8@utf8@@UAEPAXI@Z 1000d720 f i  CIL library: CIL module
 0002:0000b720       ??_Eexception@utf8@@UAEPAXI@Z 1000d720 f i  CIL library: CIL module
 0002:0000b720       ??_Ginvalid_code_point@utf8@@UAEPAXI@Z 1000d720 f i IniReader.obj
 0002:0000b720       ??_Ginvalid_utf8@utf8@@UAEPAXI@Z 1000d720 f i IniReader.obj
 0002:0000b750       ?what@invalid_utf8@utf8@@UBEPBDXZ 1000d750 f i IniReader.obj
 0002:0000b760       ?what@not_enough_room@utf8@@UBEPBDXZ 1000d760 f i IniReader.obj
 0002:0000b770       ??0IniReader@sass@@QAE@PBD_N@Z 1000d770 f   IniReader.obj
 0002:0000bc70       ??_EIniReader@sass@@UAEPAXI@Z 1000dc70 f i  CIL library: CIL module
 0002:0000bc70       ??_GIniReader@sass@@UAEPAXI@Z 1000dc70 f i IniReader.obj
 0002:0000bce0       ??1IniReader@sass@@UAE@XZ  1000dce0 f   IniReader.obj
 0002:0000bd30       ?sectionExists@IniReader@sass@@QBE_NPBD@Z 1000dd30 f   IniReader.obj
 0002:0000bfd0       ?getNumberOfItems@IniReader@sass@@QBEIPBD@Z 1000dfd0 f   IniReader.obj
 0002:0000c150       ?getItemNameByIndex@IniReader@sass@@QBE?AV?$basic_string@DU?$char_traits@D@std@@V?$allocator@D@2@@std@@PBDI@Z 1000e150 f   IniReader.obj
 0002:0000c400       ?itemExists@IniReader@sass@@QBE_NPBD0@Z 1000e400 f   IniReader.obj
 0002:0000c7c0       ??$getItemData_@V?$basic_string@DU?$char_traits@D@std@@V?$allocator@D@2@@std@@@IniReader@sass@@ABE?AV?$basic_string@DU?$char_traits@D@std@@V?$allocator@D@2@@std@@PBD0@Z 1000e7c0 f   IniReader.obj
 0002:0000c8f0       ??$utf8to16@V?$back_insert_iterator@V?$basic_string@GU?$char_traits@G@std@@V?$allocator@G@2@@std@@@std@@PBD@utf8@@YA?AV?$back_insert_iterator@V?$basic_string@GU?$char_traits@G@std@@V?$allocator@G@2@@std@@@std@@PBD0V12@@Z 1000e8f0 f i IniReader.obj
 0002:0000c960       ??$next@PBD@utf8@@YAIAAPBDPBD@Z 1000e960 f i IniReader.obj
 0002:0000ca10       ??1invalid_utf8@utf8@@UAE@XZ 1000ea10 f i IniReader.obj
 0002:0000ca10       ??1invalid_code_point@utf8@@UAE@XZ 1000ea10 f i IniReader.obj
 0002:0000ca10       ??1not_enough_room@utf8@@UAE@XZ 1000ea10 f i IniReader.obj
 0002:0000ca20       ??0not_enough_room@utf8@@QAE@ABV01@@Z 1000ea20 f i IniReader.obj
 0002:0000ca40       ??0exception@utf8@@QAE@ABV01@@Z 1000ea40 f i IniReader.obj
 0002:0000ca60       ??0invalid_utf8@utf8@@QAE@ABV01@@Z 1000ea60 f i IniReader.obj
 0002:0000ca90       ??0invalid_code_point@utf8@@QAE@ABV01@@Z 1000ea90 f i IniReader.obj
 0002:0000cac0       ??$validate_next@PBD@internal@utf8@@YA?AW4utf_error@01@AAPBDPBDAAI@Z 1000eac0 f i IniReader.obj
 0002:0000cbf0       ??$get_sequence_2@PBD@internal@utf8@@YA?AW4utf_error@01@AAPBDPBDAAI@Z 1000ebf0 f i IniReader.obj
 0002:0000cc40       ??$get_sequence_3@PBD@internal@utf8@@YA?AW4utf_error@01@AAPBDPBDAAI@Z 1000ec40 f i IniReader.obj
 0002:0000ccb0       ??$get_sequence_4@PBD@internal@utf8@@YA?AW4utf_error@01@AAPBDPBDAAI@Z 1000ecb0 f i IniReader.obj
 0002:0000cd40       ??1is_classifiedF@detail@algorithm@boost@@QAE@XZ 1000ed40 f i RelayAPIInputProcessor.obj
 0002:0000cd50       ?is_space@algorithm@boost@@YA?AUis_classifiedF@detail@12@ABVlocale@std@@@Z 1000ed50 f i RelayAPIInputProcessor.obj
 0002:0000cd70       ?getSwitchActions@RelayAPIInputProcessor@sass@@QBE?AV?$vector@VSwitchAction@sass@@V?$allocator@VSwitchAction@sass@@@std@@@std@@PBDW4RelayAction@2@@Z 1000ed70 f   RelayAPIInputProcessor.obj
 0002:0000d020       ?getRelaySWIndices@RelayAPIInputProcessor@sass@@QBE?AV?$vector@IV?$allocator@I@std@@@std@@PBD@Z 1000f020 f   RelayAPIInputProcessor.obj
 0002:0000d400       ??1?$vector@V?$basic_string@DU?$char_traits@D@std@@V?$allocator@D@2@@std@@V?$allocator@V?$basic_string@DU?$char_traits@D@std@@V?$allocator@D@2@@std@@@2@@std@@QAE@XZ 1000f400 f i RelayAPIInputProcessor.obj
 0002:0000d480       ??0?$vector@IV?$allocator@I@std@@@std@@QAE@ABV01@@Z 1000f480 f i RelayAPIInputProcessor.obj
 0002:0000d550       ?reserve@?$vector@IV?$allocator@I@std@@@std@@QAEXI@Z 1000f550 f i RelayAPIInputProcessor.obj
 0002:0000d600       ?push_back@?$vector@IV?$allocator@I@std@@@std@@QAEXABI@Z 1000f600 f i RelayAPIInputProcessor.obj
 0002:0000d660       ?_Tidy@?$vector@V?$basic_string@DU?$char_traits@D@std@@V?$allocator@D@2@@std@@V?$allocator@V?$basic_string@DU?$char_traits@D@std@@V?$allocator@D@2@@std@@@2@@std@@IAEXXZ 1000f660 f i RelayAPIInputProcessor.obj
 0002:0000d6a0       ?insert@?$vector@IV?$allocator@I@std@@@std@@QAE?AV?$_Vector_iterator@IV?$allocator@I@std@@@2@V?$_Vector_const_iterator@IV?$allocator@I@std@@@2@ABI@Z 1000f6a0 f i RelayAPIInputProcessor.obj
 0002:0000d750       ?_Ufill@?$vector@IV?$allocator@I@std@@@std@@IAEPAIPAIIABI@Z 1000f750 f i RelayAPIInputProcessor.obj
 0002:0000d780       ??E?$_String_const_iterator@DU?$char_traits@D@std@@V?$allocator@D@2@@std@@QAEAAV01@XZ 1000f780 f i RelayAPIInputProcessor.obj
 0002:0000d7c0       ?_Destroy@?$vector@V?$basic_string@DU?$char_traits@D@std@@V?$allocator@D@2@@std@@V?$allocator@V?$basic_string@DU?$char_traits@D@std@@V?$allocator@D@2@@std@@@2@@std@@IAEXPAV?$basic_string@DU?$char_traits@D@std@@V?$allocator@D@2@@2@0@Z 1000f7c0 f i RelayAPIInputProcessor.obj
 0002:0000d7e0       ?_Insert_n@?$vector@IV?$allocator@I@std@@@std@@IAEXV?$_Vector_const_iterator@IV?$allocator@I@std@@@2@IABI@Z 1000f7e0 f i RelayAPIInputProcessor.obj
 0002:0000d9b0       ??H?$_Vector_iterator@IV?$allocator@I@std@@@std@@QBE?AV01@H@Z 1000f9b0 f i RelayAPIInputProcessor.obj
 0002:0000da00       ??8?$_String_const_iterator@DU?$char_traits@D@std@@V?$allocator@D@2@@std@@QBE_NABV01@@Z 1000fa00 f i RelayAPIInputProcessor.obj
 0002:0000da30       ??$use_facet@V?$ctype@D@std@@@std@@YAABV?$ctype@D@0@ABVlocale@0@@Z 1000fa30 f i RelayAPIInputProcessor.obj
 0002:0000db00       ??$?6PBD@nimxl@@YAAAV?$ArrayInserter@V?$ObjectInserter@V?$ObjectInserter@VInserterBase@jsonz@@@jsonz@@@jsonz@@@jsonz@@AAV12@ABU?$Usage@PBD@0@@Z 1000fb00 f i RelayAPIInputProcessor.obj
 0002:0000dbb0       ??$?6W4RelayAction@sass@@@nimxl@@YAAAV?$ArrayInserter@V?$ObjectInserter@V?$ObjectInserter@VInserterBase@jsonz@@@jsonz@@@jsonz@@@jsonz@@AAV12@ABU?$Usage@W4RelayAction@sass@@@0@@Z 1000fbb0 f i RelayAPIInputProcessor.obj
 0002:0000dc60       ??$trim@V?$basic_string@DU?$char_traits@D@std@@V?$allocator@D@2@@std@@@algorithm@boost@@YAXAAV?$basic_string@DU?$char_traits@D@std@@V?$allocator@D@2@@std@@ABVlocale@3@@Z 1000fc60 f i RelayAPIInputProcessor.obj
 0002:0000dc90       ??$next@V?$vector@V?$basic_string@DU?$char_traits@D@std@@V?$allocator@D@2@@std@@V?$allocator@V?$basic_string@DU?$char_traits@D@std@@V?$allocator@D@2@@std@@@2@@std@@U?$bool_@$0A@@mpl@boost@@@foreach_detail_@boost@@YAXABUauto_any_base@01@PAU?$type2type@V?$vector@V?$basic_string@DU?$char_traits@D@std@@V?$allocator@D@2@@std@@V?$allocator@V?$basic_string@DU?$char_traits@D@std@@V?$allocator@D@2@@std@@@2@@std@@U?$bool_@$0A@@mpl@boost@@@01@@Z 1000fc90 f i RelayAPIInputProcessor.obj
 0002:0000dcc0       ??$trim_if@V?$basic_string@DU?$char_traits@D@std@@V?$allocator@D@2@@std@@Uis_classifiedF@detail@algorithm@boost@@@algorithm@boost@@YAXAAV?$basic_string@DU?$char_traits@D@std@@V?$allocator@D@2@@std@@Uis_classifiedF@detail@01@@Z 1000fcc0 f i RelayAPIInputProcessor.obj
 0002:0000dd50       ??$trim_right_if@V?$basic_string@DU?$char_traits@D@std@@V?$allocator@D@2@@std@@Uis_classifiedF@detail@algorithm@boost@@@algorithm@boost@@YAXAAV?$basic_string@DU?$char_traits@D@std@@V?$allocator@D@2@@std@@Uis_classifiedF@detail@01@@Z 1000fd50 f i RelayAPIInputProcessor.obj
 0002:0000de20       ??$trim_left_if@V?$basic_string@DU?$char_traits@D@std@@V?$allocator@D@2@@std@@Uis_classifiedF@detail@algorithm@boost@@@algorithm@boost@@YAXAAV?$basic_string@DU?$char_traits@D@std@@V?$allocator@D@2@@std@@Uis_classifiedF@detail@01@@Z 1000fe20 f i RelayAPIInputProcessor.obj
 0002:0000dee0       ??$trim_end@V?$_String_iterator@DU?$char_traits@D@std@@V?$allocator@D@2@@std@@Uis_classifiedF@detail@algorithm@boost@@@detail@algorithm@boost@@YA?AV?$_String_iterator@DU?$char_traits@D@std@@V?$allocator@D@2@@std@@V34@0Uis_classifiedF@012@@Z 1000fee0 f i RelayAPIInputProcessor.obj
 0002:0000df60       ??$trim_begin@V?$_String_iterator@DU?$char_traits@D@std@@V?$allocator@D@2@@std@@Uis_classifiedF@detail@algorithm@boost@@@detail@algorithm@boost@@YA?AV?$_String_iterator@DU?$char_traits@D@std@@V?$allocator@D@2@@std@@V34@0Uis_classifiedF@012@@Z 1000ff60 f i RelayAPIInputProcessor.obj
 0002:0000e060       ??$trim_end_iter_select@V?$_String_iterator@DU?$char_traits@D@std@@V?$allocator@D@2@@std@@Uis_classifiedF@detail@algorithm@boost@@@detail@algorithm@boost@@YA?AV?$_String_iterator@DU?$char_traits@D@std@@V?$allocator@D@2@@std@@V34@0Uis_classifiedF@012@Ubidirectional_iterator_tag@4@@Z 10010060 f i RelayAPIInputProcessor.obj
 0002:0000e1b0       ?icmp@nisstutf8@@YAHABV?$basic_string@DU?$char_traits@D@std@@V?$allocator@D@2@@std@@0@Z 100101b0 f i ChannelAPIInputProcessor.obj
 0002:0000e220       ??0bad_function_call@boost@@QAE@XZ 10010220 f i ChannelAPIInputProcessor.obj
 0002:0000e2a0       ??1bad_function_call@boost@@UAE@XZ 100102a0 f i ChannelAPIInputProcessor.obj
 0002:0000e2c0       ?has_empty_target@function@detail@boost@@YA_NZZ 100102c0 f i ChannelAPIInputProcessor.obj
 0002:0000e2d0       ?process@ChannelAPIInputProcessor@sass@@QBE?AV?$vector@VChannelAction@sass@@V?$allocator@VChannelAction@sass@@@std@@@std@@PBDW4ChannelActionType@ChannelAction@2@@Z 100102d0 f   ChannelAPIInputProcessor.obj
 0002:0000e340       ?coerceChannelName@ChannelAPIInputProcessor@sass@@QBE?BV?$basic_string@DU?$char_traits@D@std@@V?$allocator@D@2@@std@@PBDH0@Z 10010340 f   ChannelAPIInputProcessor.obj
 0002:0000e570       ?checkFormatAndSplitChannelNames@ChannelAPIInputProcessor@sass@@ABE?AV?$vector@V?$basic_string@DU?$char_traits@D@std@@V?$allocator@D@2@@std@@V?$allocator@V?$basic_string@DU?$char_traits@D@std@@V?$allocator@D@2@@std@@@2@@std@@ABV?$basic_string@DU?$char_traits@D@std@@V?$allocator@D@2@@4@H@Z 10010570 f   ChannelAPIInputProcessor.obj
 0002:0000e730       ?removeBracketsIfExplicit@ChannelAPIInputProcessor@sass@@ABE?B_NAAV?$basic_string@DU?$char_traits@D@std@@V?$allocator@D@2@@std@@@Z 10010730 f   ChannelAPIInputProcessor.obj
 0002:0000e920       ?createChannelAction@ChannelAPIInputProcessor@sass@@ABE?AVChannelAction@2@W4ChannelActionType@32@_NABV?$vector@V?$basic_string@DU?$char_traits@D@std@@V?$allocator@D@2@@std@@V?$allocator@V?$basic_string@DU?$char_traits@D@std@@V?$allocator@D@2@@std@@@2@@std@@@Z 10010920 f   ChannelAPIInputProcessor.obj
 0002:0000ec50       ??1?$set@V?$basic_string@DU?$char_traits@D@std@@V?$allocator@D@2@@std@@U?$less@V?$basic_string@DU?$char_traits@D@std@@V?$allocator@D@2@@std@@@2@V?$allocator@V?$basic_string@DU?$char_traits@D@std@@V?$allocator@D@2@@std@@@2@@std@@QAE@XZ 10010c50 f i ChannelAPIInputProcessor.obj
 0002:0000eca0       ?createChannelActions@ChannelAPIInputProcessor@sass@@ABE?AV?$vector@VChannelAction@sass@@V?$allocator@VChannelAction@sass@@@std@@@std@@ABV?$basic_string@DU?$char_traits@D@std@@V?$allocator@D@2@@4@W4ChannelActionType@ChannelAction@2@@Z 10010ca0 f   ChannelAPIInputProcessor.obj
 0002:0000f010       ?getSanitizedConnectionString@ChannelAPIInputProcessor@sass@@ABE?BV?$basic_string@DU?$char_traits@D@std@@V?$allocator@D@2@@std@@PBDH@Z 10011010 f   ChannelAPIInputProcessor.obj
 0002:0000f240       ??0?$vector@V?$basic_string@DU?$char_traits@D@std@@V?$allocator@D@2@@std@@V?$allocator@V?$basic_string@DU?$char_traits@D@std@@V?$allocator@D@2@@std@@@2@@std@@QAE@ABV01@@Z 10011240 f i ChannelAPIInputProcessor.obj
 0002:0000f350       ??A?$vector@V?$basic_string@DU?$char_traits@D@std@@V?$allocator@D@2@@std@@V?$allocator@V?$basic_string@DU?$char_traits@D@std@@V?$allocator@D@2@@std@@@2@@std@@QAEAAV?$basic_string@DU?$char_traits@D@std@@V?$allocator@D@2@@1@I@Z 10011350 f i ChannelAPIInputProcessor.obj
 0002:0000f390       ?push_back@?$vector@V?$basic_string@DU?$char_traits@D@std@@V?$allocator@D@2@@std@@V?$allocator@V?$basic_string@DU?$char_traits@D@std@@V?$allocator@D@2@@std@@@2@@std@@QAEXABV?$basic_string@DU?$char_traits@D@std@@V?$allocator@D@2@@2@@Z 10011390 f i ChannelAPIInputProcessor.obj
 0002:0000f440       ??1?$_Tree@V?$_Tset_traits@V?$basic_string@DU?$char_traits@D@std@@V?$allocator@D@2@@std@@U?$less@V?$basic_string@DU?$char_traits@D@std@@V?$allocator@D@2@@std@@@2@V?$allocator@V?$basic_string@DU?$char_traits@D@std@@V?$allocator@D@2@@std@@@2@$0A@@std@@@std@@QAE@XZ 10011440 f i ChannelAPIInputProcessor.obj
 0002:0000f490       ?insert@?$_Tree@V?$_Tset_traits@V?$basic_string@DU?$char_traits@D@std@@V?$allocator@D@2@@std@@U?$less@V?$basic_string@DU?$char_traits@D@std@@V?$allocator@D@2@@std@@@2@V?$allocator@V?$basic_string@DU?$char_traits@D@std@@V?$allocator@D@2@@std@@@2@$0A@@std@@@std@@QAE?AU?$pair@Viterator@?$_Tree@V?$_Tset_traits@V?$basic_string@DU?$char_traits@D@std@@V?$allocator@D@2@@std@@U?$less@V?$basic_string@DU?$char_traits@D@std@@V?$allocator@D@2@@std@@@2@V?$allocator@V?$basic_string@DU?$char_traits@D@std@@V?$allocator@D@2@@std@@@2@$0A@@std@@@std@@_N@2@ABV?$basic_string@DU?$char_traits@D@std@@V?$allocator@D@2@@2@@Z 10011490 f i ChannelAPIInputProcessor.obj
 0002:0000f5a0       ?insert@?$vector@V?$basic_string@DU?$char_traits@D@std@@V?$allocator@D@2@@std@@V?$allocator@V?$basic_string@DU?$char_traits@D@std@@V?$allocator@D@2@@std@@@2@@std@@QAE?AV?$_Vector_iterator@V?$basic_string@DU?$char_traits@D@std@@V?$allocator@D@2@@std@@V?$allocator@V?$basic_string@DU?$char_traits@D@std@@V?$allocator@D@2@@std@@@2@@2@V?$_Vector_const_iterator@V?$basic_string@DU?$char_traits@D@std@@V?$allocator@D@2@@std@@V?$allocator@V?$basic_string@DU?$char_traits@D@std@@V?$allocator@D@2@@std@@@2@@2@ABV?$basic_string@DU?$char_traits@D@std@@V?$allocator@D@2@@2@@Z 100115a0 f i ChannelAPIInputProcessor.obj
 0002:0000f680       ?_Ufill@?$vector@V?$basic_string@DU?$char_traits@D@std@@V?$allocator@D@2@@std@@V?$allocator@V?$basic_string@DU?$char_traits@D@std@@V?$allocator@D@2@@std@@@2@@std@@IAEPAV?$basic_string@DU?$char_traits@D@std@@V?$allocator@D@2@@2@PAV32@IABV32@@Z 10011680 f i ChannelAPIInputProcessor.obj
 0002:0000f6b0       ??0?$_Tree@V?$_Tset_traits@V?$basic_string@DU?$char_traits@D@std@@V?$allocator@D@2@@std@@U?$less@V?$basic_string@DU?$char_traits@D@std@@V?$allocator@D@2@@std@@@2@V?$allocator@V?$basic_string@DU?$char_traits@D@std@@V?$allocator@D@2@@std@@@2@$0A@@std@@@std@@QAE@ABU?$less@V?$basic_string@DU?$char_traits@D@std@@V?$allocator@D@2@@std@@@1@ABV?$allocator@V?$basic_string@DU?$char_traits@D@std@@V?$allocator@D@2@@std@@@1@@Z 100116b0 f i ChannelAPIInputProcessor.obj
 0002:0000f720       ?_Insert@?$_Tree@V?$_Tset_traits@V?$basic_string@DU?$char_traits@D@std@@V?$allocator@D@2@@std@@U?$less@V?$basic_string@DU?$char_traits@D@std@@V?$allocator@D@2@@std@@@2@V?$allocator@V?$basic_string@DU?$char_traits@D@std@@V?$allocator@D@2@@std@@@2@$0A@@std@@@std@@IAE?AViterator@12@_NPAU_Node@?$_Tree_nod@V?$_Tset_traits@V?$basic_string@DU?$char_traits@D@std@@V?$allocator@D@2@@std@@U?$less@V?$basic_string@DU?$char_traits@D@std@@V?$allocator@D@2@@std@@@2@V?$allocator@V?$basic_string@DU?$char_traits@D@std@@V?$allocator@D@2@@std@@@2@$0A@@std@@@2@ABV?$basic_string@DU?$char_traits@D@std@@V?$allocator@D@2@@2@@Z 10011720 f i ChannelAPIInputProcessor.obj
 0002:0000f930       ?_Tidy@?$_Tree@V?$_Tset_traits@V?$basic_string@DU?$char_traits@D@std@@V?$allocator@D@2@@std@@U?$less@V?$basic_string@DU?$char_traits@D@std@@V?$allocator@D@2@@std@@@2@V?$allocator@V?$basic_string@DU?$char_traits@D@std@@V?$allocator@D@2@@std@@@2@$0A@@std@@@std@@IAEXXZ 10011930 f i ChannelAPIInputProcessor.obj
 0002:0000f970       ??Y?$_String_const_iterator@DU?$char_traits@D@std@@V?$allocator@D@2@@std@@QAEAAV01@H@Z 10011970 f i ChannelAPIInputProcessor.obj
 0002:0000f9d0       ?_Insert_n@?$vector@V?$basic_string@DU?$char_traits@D@std@@V?$allocator@D@2@@std@@V?$allocator@V?$basic_string@DU?$char_traits@D@std@@V?$allocator@D@2@@std@@@2@@std@@IAEXV?$_Vector_const_iterator@V?$basic_string@DU?$char_traits@D@std@@V?$allocator@D@2@@std@@V?$allocator@V?$basic_string@DU?$char_traits@D@std@@V?$allocator@D@2@@std@@@2@@2@IABV?$basic_string@DU?$char_traits@D@std@@V?$allocator@D@2@@2@@Z 100119d0 f i ChannelAPIInputProcessor.obj
 0002:0000fd50       ?erase@?$_Tree@V?$_Tset_traits@V?$basic_string@DU?$char_traits@D@std@@V?$allocator@D@2@@std@@U?$less@V?$basic_string@DU?$char_traits@D@std@@V?$allocator@D@2@@std@@@2@V?$allocator@V?$basic_string@DU?$char_traits@D@std@@V?$allocator@D@2@@std@@@2@$0A@@std@@@std@@QAE?AViterator@12@Vconst_iterator@12@0@Z 10011d50 f i ChannelAPIInputProcessor.obj
 0002:0000fe30       ?_Lrotate@?$_Tree@V?$_Tset_traits@V?$basic_string@DU?$char_traits@D@std@@V?$allocator@D@2@@std@@U?$less@V?$basic_string@DU?$char_traits@D@std@@V?$allocator@D@2@@std@@@2@V?$allocator@V?$basic_string@DU?$char_traits@D@std@@V?$allocator@D@2@@std@@@2@$0A@@std@@@std@@IAEXPAU_Node@?$_Tree_nod@V?$_Tset_traits@V?$basic_string@DU?$char_traits@D@std@@V?$allocator@D@2@@std@@U?$less@V?$basic_string@DU?$char_traits@D@std@@V?$allocator@D@2@@std@@@2@V?$allocator@V?$basic_string@DU?$char_traits@D@std@@V?$allocator@D@2@@std@@@2@$0A@@std@@@2@@Z 10011e30 f i ChannelAPIInputProcessor.obj
 0002:0000fe90       ?_Rrotate@?$_Tree@V?$_Tset_traits@V?$basic_string@DU?$char_traits@D@std@@V?$allocator@D@2@@std@@U?$less@V?$basic_string@DU?$char_traits@D@std@@V?$allocator@D@2@@std@@@2@V?$allocator@V?$basic_string@DU?$char_traits@D@std@@V?$allocator@D@2@@std@@@2@$0A@@std@@@std@@IAEXPAU_Node@?$_Tree_nod@V?$_Tset_traits@V?$basic_string@DU?$char_traits@D@std@@V?$allocator@D@2@@std@@U?$less@V?$basic_string@DU?$char_traits@D@std@@V?$allocator@D@2@@std@@@2@V?$allocator@V?$basic_string@DU?$char_traits@D@std@@V?$allocator@D@2@@std@@@2@$0A@@std@@@2@@Z 10011e90 f i ChannelAPIInputProcessor.obj
 0002:0000fef0       ?_Buynode@?$_Tree@V?$_Tset_traits@V?$basic_string@DU?$char_traits@D@std@@V?$allocator@D@2@@std@@U?$less@V?$basic_string@DU?$char_traits@D@std@@V?$allocator@D@2@@std@@@2@V?$allocator@V?$basic_string@DU?$char_traits@D@std@@V?$allocator@D@2@@std@@@2@$0A@@std@@@std@@IAEPAU_Node@?$_Tree_nod@V?$_Tset_traits@V?$basic_string@DU?$char_traits@D@std@@V?$allocator@D@2@@std@@U?$less@V?$basic_string@DU?$char_traits@D@std@@V?$allocator@D@2@@std@@@2@V?$allocator@V?$basic_string@DU?$char_traits@D@std@@V?$allocator@D@2@@std@@@2@$0A@@std@@@2@PAU342@00ABV?$basic_string@DU?$char_traits@D@std@@V?$allocator@D@2@@2@D@Z 10011ef0 f i ChannelAPIInputProcessor.obj
 0002:0000ff80       ?erase@?$_Tree@V?$_Tset_traits@V?$basic_string@DU?$char_traits@D@std@@V?$allocator@D@2@@std@@U?$less@V?$basic_string@DU?$char_traits@D@std@@V?$allocator@D@2@@std@@@2@V?$allocator@V?$basic_string@DU?$char_traits@D@std@@V?$allocator@D@2@@std@@@2@$0A@@std@@@std@@QAE?AViterator@12@Vconst_iterator@12@@Z 10011f80 f i ChannelAPIInputProcessor.obj
 0002:00010250       ?_Buynode@?$_Tree@V?$_Tset_traits@V?$basic_string@DU?$char_traits@D@std@@V?$allocator@D@2@@std@@U?$less@V?$basic_string@DU?$char_traits@D@std@@V?$allocator@D@2@@std@@@2@V?$allocator@V?$basic_string@DU?$char_traits@D@std@@V?$allocator@D@2@@std@@@2@$0A@@std@@@std@@IAEPAU_Node@?$_Tree_nod@V?$_Tset_traits@V?$basic_string@DU?$char_traits@D@std@@V?$allocator@D@2@@std@@U?$less@V?$basic_string@DU?$char_traits@D@std@@V?$allocator@D@2@@std@@@2@V?$allocator@V?$basic_string@DU?$char_traits@D@std@@V?$allocator@D@2@@std@@@2@$0A@@std@@@2@XZ 10012250 f i ChannelAPIInputProcessor.obj
 0002:00010290       ?_Dec@const_iterator@?$_Tree@V?$_Tset_traits@V?$basic_string@DU?$char_traits@D@std@@V?$allocator@D@2@@std@@U?$less@V?$basic_string@DU?$char_traits@D@std@@V?$allocator@D@2@@std@@@2@V?$allocator@V?$basic_string@DU?$char_traits@D@std@@V?$allocator@D@2@@std@@@2@$0A@@std@@@std@@QAEXXZ 10012290 f i ChannelAPIInputProcessor.obj
 0002:00010320       ?_Erase@?$_Tree@V?$_Tset_traits@V?$basic_string@DU?$char_traits@D@std@@V?$allocator@D@2@@std@@U?$less@V?$basic_string@DU?$char_traits@D@std@@V?$allocator@D@2@@std@@@2@V?$allocator@V?$basic_string@DU?$char_traits@D@std@@V?$allocator@D@2@@std@@@2@$0A@@std@@@std@@IAEXPAU_Node@?$_Tree_nod@V?$_Tset_traits@V?$basic_string@DU?$char_traits@D@std@@V?$allocator@D@2@@std@@U?$less@V?$basic_string@DU?$char_traits@D@std@@V?$allocator@D@2@@std@@@2@V?$allocator@V?$basic_string@DU?$char_traits@D@std@@V?$allocator@D@2@@std@@@2@$0A@@std@@@2@@Z 10012320 f i ChannelAPIInputProcessor.obj
 0002:00010370       ?_Max@?$_Tree@V?$_Tset_traits@V?$basic_string@DU?$char_traits@D@std@@V?$allocator@D@2@@std@@U?$less@V?$basic_string@DU?$char_traits@D@std@@V?$allocator@D@2@@std@@@2@V?$allocator@V?$basic_string@DU?$char_traits@D@std@@V?$allocator@D@2@@std@@@2@$0A@@std@@@std@@KAPAU_Node@?$_Tree_nod@V?$_Tset_traits@V?$basic_string@DU?$char_traits@D@std@@V?$allocator@D@2@@std@@U?$less@V?$basic_string@DU?$char_traits@D@std@@V?$allocator@D@2@@std@@@2@V?$allocator@V?$basic_string@DU?$char_traits@D@std@@V?$allocator@D@2@@std@@@2@$0A@@std@@@2@PAU342@@Z 10012370 f i ChannelAPIInputProcessor.obj
 0002:00010390       ?_Inc@const_iterator@?$_Tree@V?$_Tset_traits@V?$basic_string@DU?$char_traits@D@std@@V?$allocator@D@2@@std@@U?$less@V?$basic_string@DU?$char_traits@D@std@@V?$allocator@D@2@@std@@@2@V?$allocator@V?$basic_string@DU?$char_traits@D@std@@V?$allocator@D@2@@std@@@2@$0A@@std@@@std@@QAEXXZ 10012390 f i ChannelAPIInputProcessor.obj
 0002:00010400       ??$iter_split@V?$vector@V?$basic_string@DU?$char_traits@D@std@@V?$allocator@D@2@@std@@V?$allocator@V?$basic_string@DU?$char_traits@D@std@@V?$allocator@D@2@@std@@@2@@std@@$$CBV?$basic_string@DU?$char_traits@D@std@@V?$allocator@D@2@@2@U?$first_finderF@PBDUis_equal@algorithm@boost@@@detail@algorithm@boost@@@algorithm@boost@@YAAAV?$vector@V?$basic_string@DU?$char_traits@D@std@@V?$allocator@D@2@@std@@V?$allocator@V?$basic_string@DU?$char_traits@D@std@@V?$allocator@D@2@@std@@@2@@std@@AAV23@ABV?$basic_string@DU?$char_traits@D@std@@V?$allocator@D@2@@3@U?$first_finderF@PBDUis_equal@algorithm@boost@@@detail@01@@Z 10012400 f i ChannelAPIInputProcessor.obj
 0002:00010580       ??$_Ucopy@V?$_Vector_const_iterator@V?$basic_string@DU?$char_traits@D@std@@V?$allocator@D@2@@std@@V?$allocator@V?$basic_string@DU?$char_traits@D@std@@V?$allocator@D@2@@std@@@2@@std@@@?$vector@V?$basic_string@DU?$char_traits@D@std@@V?$allocator@D@2@@std@@V?$allocator@V?$basic_string@DU?$char_traits@D@std@@V?$allocator@D@2@@std@@@2@@std@@IAEPAV?$basic_string@DU?$char_traits@D@std@@V?$allocator@D@2@@1@V?$_Vector_const_iterator@V?$basic_string@DU?$char_traits@D@std@@V?$allocator@D@2@@std@@V?$allocator@V?$basic_string@DU?$char_traits@D@std@@V?$allocator@D@2@@std@@@2@@1@0PAV21@@Z 10012580 f i ChannelAPIInputProcessor.obj
 0002:000105b0       ??$_Umove@PAV?$basic_string@DU?$char_traits@D@std@@V?$allocator@D@2@@std@@@?$vector@V?$basic_string@DU?$char_traits@D@std@@V?$allocator@D@2@@std@@V?$allocator@V?$basic_string@DU?$char_traits@D@std@@V?$allocator@D@2@@std@@@2@@std@@IAEPAV?$basic_string@DU?$char_traits@D@std@@V?$allocator@D@2@@1@PAV21@00@Z 100125b0 f i ChannelAPIInputProcessor.obj
 0002:000105e0       ?swap@?$vector@V?$basic_string@DU?$char_traits@D@std@@V?$allocator@D@2@@std@@V?$allocator@V?$basic_string@DU?$char_traits@D@std@@V?$allocator@D@2@@std@@@2@@std@@QAEXAAV12@@Z 100125e0 f i ChannelAPIInputProcessor.obj
 0002:00010640       ??$make_transform_iterator@U?$copy_iterator_rangeF@V?$basic_string@DU?$char_traits@D@std@@V?$allocator@D@2@@std@@V?$_String_iterator@DU?$char_traits@D@std@@V?$allocator@D@2@@2@@detail@algorithm@boost@@V?$split_iterator@V?$_String_iterator@DU?$char_traits@D@std@@V?$allocator@D@2@@std@@@34@@boost@@YA?AV?$transform_iterator@U?$copy_iterator_rangeF@V?$basic_string@DU?$char_traits@D@std@@V?$allocator@D@2@@std@@V?$_String_iterator@DU?$char_traits@D@std@@V?$allocator@D@2@@2@@detail@algorithm@boost@@V?$split_iterator@V?$_String_iterator@DU?$char_traits@D@std@@V?$allocator@D@2@@std@@@34@Uuse_default@4@U64@@0@V?$split_iterator@V?$_String_iterator@DU?$char_traits@D@std@@V?$allocator@D@2@@std@@@algorithm@0@U?$copy_iterator_rangeF@V?$basic_string@DU?$char_traits@D@std@@V?$allocator@D@2@@std@@V?$_String_iterator@DU?$char_traits@D@std@@V?$allocator@D@2@@2@@detail@30@@Z 10012640 f i TopologyFactory.obj
 0002:00010640       ??$make_transform_iterator@U?$copy_iterator_rangeF@V?$basic_string@DU?$char_traits@D@std@@V?$allocator@D@2@@std@@V?$_String_const_iterator@DU?$char_traits@D@std@@V?$allocator@D@2@@2@@detail@algorithm@boost@@V?$split_iterator@V?$_String_const_iterator@DU?$char_traits@D@std@@V?$allocator@D@2@@std@@@34@@boost@@YA?AV?$transform_iterator@U?$copy_iterator_rangeF@V?$basic_string@DU?$char_traits@D@std@@V?$allocator@D@2@@std@@V?$_String_const_iterator@DU?$char_traits@D@std@@V?$allocator@D@2@@2@@detail@algorithm@boost@@V?$split_iterator@V?$_String_const_iterator@DU?$char_traits@D@std@@V?$allocator@D@2@@std@@@34@Uuse_default@4@U64@@0@V?$split_iterator@V?$_String_const_iterator@DU?$char_traits@D@std@@V?$allocator@D@2@@std@@@algorithm@0@U?$copy_iterator_rangeF@V?$basic_string@DU?$char_traits@D@std@@V?$allocator@D@2@@std@@V?$_String_const_iterator@DU?$char_traits@D@std@@V?$allocator@D@2@@2@@detail@30@@Z 10012640 f i ChannelAPIInputProcessor.obj
 0002:000106c0       ??$?0V?$transform_iterator@U?$copy_iterator_rangeF@V?$basic_string@DU?$char_traits@D@std@@V?$allocator@D@2@@std@@V?$_String_const_iterator@DU?$char_traits@D@std@@V?$allocator@D@2@@2@@detail@algorithm@boost@@V?$split_iterator@V?$_String_const_iterator@DU?$char_traits@D@std@@V?$allocator@D@2@@std@@@34@Uuse_default@4@U64@@boost@@@?$vector@V?$basic_string@DU?$char_traits@D@std@@V?$allocator@D@2@@std@@V?$allocator@V?$basic_string@DU?$char_traits@D@std@@V?$allocator@D@2@@std@@@2@@std@@QAE@V?$transform_iterator@U?$copy_iterator_rangeF@V?$basic_string@DU?$char_traits@D@std@@V?$allocator@D@2@@std@@V?$_String_const_iterator@DU?$char_traits@D@std@@V?$allocator@D@2@@2@@detail@algorithm@boost@@V?$split_iterator@V?$_String_const_iterator@DU?$char_traits@D@std@@V?$allocator@D@2@@std@@@34@Uuse_default@4@U64@@boost@@0@Z 100126c0 f i ChannelAPIInputProcessor.obj
 0002:000107a0       ??$_Uninit_fill_n@PAV?$basic_string@DU?$char_traits@D@std@@V?$allocator@D@2@@std@@IV12@V?$allocator@V?$basic_string@DU?$char_traits@D@std@@V?$allocator@D@2@@std@@@2@@std@@YAXPAV?$basic_string@DU?$char_traits@D@std@@V?$allocator@D@2@@0@IABV10@AAV?$allocator@V?$basic_string@DU?$char_traits@D@std@@V?$allocator@D@2@@std@@@0@U_Nonscalar_ptr_iterator_tag@0@U_Range_checked_iterator_tag@0@@Z 100127a0 f i ChannelAPIInputProcessor.obj
 0002:00010830       ??$_Move_backward_opt@PAV?$basic_string@DU?$char_traits@D@std@@V?$allocator@D@2@@std@@PAV12@@std@@YAPAV?$basic_string@DU?$char_traits@D@std@@V?$allocator@D@2@@0@PAV10@00Urandom_access_iterator_tag@0@U_Swap_move_tag@0@U_Range_checked_iterator_tag@0@@Z 10012830 f i ChannelAPIInputProcessor.obj
 0002:00010890       ??R?$function2@V?$iterator_range@V?$_String_const_iterator@DU?$char_traits@D@std@@V?$allocator@D@2@@std@@@boost@@V?$_String_const_iterator@DU?$char_traits@D@std@@V?$allocator@D@2@@std@@V34@@boost@@QBE?AV?$iterator_range@V?$_String_const_iterator@DU?$char_traits@D@std@@V?$allocator@D@2@@std@@@1@V?$_String_const_iterator@DU?$char_traits@D@std@@V?$allocator@D@2@@std@@0@Z 10012890 f i ChannelAPIInputProcessor.obj
 0002:00010890       ??R?$function2@V?$iterator_range@V?$_String_iterator@DU?$char_traits@D@std@@V?$allocator@D@2@@std@@@boost@@V?$_String_iterator@DU?$char_traits@D@std@@V?$allocator@D@2@@std@@V34@@boost@@QBE?AV?$iterator_range@V?$_String_iterator@DU?$char_traits@D@std@@V?$allocator@D@2@@std@@@1@V?$_String_iterator@DU?$char_traits@D@std@@V?$allocator@D@2@@std@@0@Z 10012890 f i TopologyFactory.obj
 0002:00010920       ??$_Construct@V?$transform_iterator@U?$copy_iterator_rangeF@V?$basic_string@DU?$char_traits@D@std@@V?$allocator@D@2@@std@@V?$_String_const_iterator@DU?$char_traits@D@std@@V?$allocator@D@2@@2@@detail@algorithm@boost@@V?$split_iterator@V?$_String_const_iterator@DU?$char_traits@D@std@@V?$allocator@D@2@@std@@@34@Uuse_default@4@U64@@boost@@@?$vector@V?$basic_string@DU?$char_traits@D@std@@V?$allocator@D@2@@std@@V?$allocator@V?$basic_string@DU?$char_traits@D@std@@V?$allocator@D@2@@std@@@2@@std@@QAEXV?$transform_iterator@U?$copy_iterator_rangeF@V?$basic_string@DU?$char_traits@D@std@@V?$allocator@D@2@@std@@V?$_String_const_iterator@DU?$char_traits@D@std@@V?$allocator@D@2@@2@@detail@algorithm@boost@@V?$split_iterator@V?$_String_const_iterator@DU?$char_traits@D@std@@V?$allocator@D@2@@std@@@34@Uuse_default@4@U64@@boost@@0Uinput_iterator_tag@1@@Z 10012920 f i ChannelAPIInputProcessor.obj
 0002:00010a10       ??$_Uninit_copy@PBV?$basic_string@DU?$char_traits@D@std@@V?$allocator@D@2@@std@@PAV12@V?$allocator@V?$basic_string@DU?$char_traits@D@std@@V?$allocator@D@2@@std@@@2@@std@@YAPAV?$basic_string@DU?$char_traits@D@std@@V?$allocator@D@2@@0@PBV10@0PAV10@AAV?$allocator@V?$basic_string@DU?$char_traits@D@std@@V?$allocator@D@2@@std@@@0@U_Nonscalar_ptr_iterator_tag@0@U_Range_checked_iterator_tag@0@@Z 10012a10 f i ChannelAPIInputProcessor.obj
 0002:00010aa0       ??$_Uninit_move@PAV?$basic_string@DU?$char_traits@D@std@@V?$allocator@D@2@@std@@PAV12@V?$allocator@V?$basic_string@DU?$char_traits@D@std@@V?$allocator@D@2@@std@@@2@@std@@YAPAV?$basic_string@DU?$char_traits@D@std@@V?$allocator@D@2@@0@PAV10@00AAV?$allocator@V?$basic_string@DU?$char_traits@D@std@@V?$allocator@D@2@@std@@@0@U_Swap_move_tag@0@U_Range_checked_iterator_tag@0@@Z 10012aa0 f i ChannelAPIInputProcessor.obj
 0002:00010b60       ??$throw_exception@Vbad_function_call@boost@@@boost@@YAXABVbad_function_call@0@@Z 10012b60 f i ChannelAPIInputProcessor.obj
 0002:00010bb0       ??_D?$clone_impl@U?$error_info_injector@Vbad_function_call@boost@@@exception_detail@boost@@@exception_detail@boost@@QAEXXZ 10012bb0 f i ChannelAPIInputProcessor.obj
 0002:00010bd0       ??0?$clone_impl@U?$error_info_injector@Vbad_function_call@boost@@@exception_detail@boost@@@exception_detail@boost@@QAE@ABV012@@Z 10012bd0 f i ChannelAPIInputProcessor.obj
 0002:00010c70       ??0?$error_info_injector@Vbad_function_call@boost@@@exception_detail@boost@@QAE@ABU012@@Z 10012c70 f i ChannelAPIInputProcessor.obj
 0002:00010d00       ??0bad_function_call@boost@@QAE@ABV01@@Z 10012d00 f i ChannelAPIInputProcessor.obj
 0002:00010d20       ??_E?$clone_impl@U?$error_info_injector@Vbad_function_call@boost@@@exception_detail@boost@@@exception_detail@boost@@UAEPAXI@Z 10012d20 f i  CIL library: CIL module
 0002:00010d20       ??_G?$clone_impl@U?$error_info_injector@Vbad_function_call@boost@@@exception_detail@boost@@@exception_detail@boost@@UAEPAXI@Z 10012d20 f i ChannelAPIInputProcessor.obj
 0002:00010d50       ??_E?$error_info_injector@Vbad_function_call@boost@@@exception_detail@boost@@UAEPAXI@Z 10012d50 f i  CIL library: CIL module
 0002:00010d50       ??_G?$error_info_injector@Vbad_function_call@boost@@@exception_detail@boost@@UAEPAXI@Z 10012d50 f i ChannelAPIInputProcessor.obj
 0002:00010db0       ??1?$error_info_injector@Vbad_function_call@boost@@@exception_detail@boost@@UAE@XZ 10012db0 f i ChannelAPIInputProcessor.obj
 0002:00010e00       ??1?$clone_impl@U?$error_info_injector@Vbad_function_call@boost@@@exception_detail@boost@@@exception_detail@boost@@UAE@XZ 10012e00 f i ChannelAPIInputProcessor.obj
 0002:00010e70       ?clone@?$clone_impl@U?$error_info_injector@Vbad_function_call@boost@@@exception_detail@boost@@@exception_detail@boost@@EBEPBVclone_base@23@XZ 10012e70 f i ChannelAPIInputProcessor.obj
 0002:00010ef0       ?rethrow@?$clone_impl@U?$error_info_injector@Vbad_function_call@boost@@@exception_detail@boost@@@exception_detail@boost@@EBEXXZ 10012ef0 f i ChannelAPIInputProcessor.obj
 0002:00010f20       ??0?$clone_impl@U?$error_info_injector@Vbad_function_call@boost@@@exception_detail@boost@@@exception_detail@boost@@AAE@ABV012@Uclone_tag@012@@Z 10012f20 f i ChannelAPIInputProcessor.obj
 0002:00010fc0       ??$insert@V?$transform_iterator@U?$copy_iterator_rangeF@V?$basic_string@DU?$char_traits@D@std@@V?$allocator@D@2@@std@@V?$_String_const_iterator@DU?$char_traits@D@std@@V?$allocator@D@2@@2@@detail@algorithm@boost@@V?$split_iterator@V?$_String_const_iterator@DU?$char_traits@D@std@@V?$allocator@D@2@@std@@@34@Uuse_default@4@U64@@boost@@@?$vector@V?$basic_string@DU?$char_traits@D@std@@V?$allocator@D@2@@std@@V?$allocator@V?$basic_string@DU?$char_traits@D@std@@V?$allocator@D@2@@std@@@2@@std@@QAEXV?$_Vector_const_iterator@V?$basic_string@DU?$char_traits@D@std@@V?$allocator@D@2@@std@@V?$allocator@V?$basic_string@DU?$char_traits@D@std@@V?$allocator@D@2@@std@@@2@@1@V?$transform_iterator@U?$copy_iterator_rangeF@V?$basic_string@DU?$char_traits@D@std@@V?$allocator@D@2@@std@@V?$_String_const_iterator@DU?$char_traits@D@std@@V?$allocator@D@2@@2@@detail@algorithm@boost@@V?$split_iterator@V?$_String_const_iterator@DU?$char_traits@D@std@@V?$allocator@D@2@@std@@@34@Uuse_default@4@U64@@boost@@1@Z 10012fc0 f i ChannelAPIInputProcessor.obj
 0002:00011090       ??$enable_error_info@Vbad_function_call@boost@@@boost@@YA?AU?$error_info_injector@Vbad_function_call@boost@@@exception_detail@0@ABVbad_function_call@0@@Z 10013090 f i ChannelAPIInputProcessor.obj
 0002:000110d0       ??$enable_current_exception@U?$error_info_injector@Vbad_function_call@boost@@@exception_detail@boost@@@boost@@YA?AV?$clone_impl@U?$error_info_injector@Vbad_function_call@boost@@@exception_detail@boost@@@exception_detail@0@ABU?$error_info_injector@Vbad_function_call@boost@@@20@@Z 100130d0 f i ChannelAPIInputProcessor.obj
 0002:000110f0       ??0?$clone_impl@U?$error_info_injector@Vbad_function_call@boost@@@exception_detail@boost@@@exception_detail@boost@@QAE@ABU?$error_info_injector@Vbad_function_call@boost@@@12@@Z 100130f0 f i ChannelAPIInputProcessor.obj
 0002:00011190       ??$assign_to@U?$first_finderF@PBDUis_equal@algorithm@boost@@@detail@algorithm@boost@@@?$function2@V?$iterator_range@V?$_String_const_iterator@DU?$char_traits@D@std@@V?$allocator@D@2@@std@@@boost@@V?$_String_const_iterator@DU?$char_traits@D@std@@V?$allocator@D@2@@std@@V34@@boost@@AAEXU?$first_finderF@PBDUis_equal@algorithm@boost@@@detail@algorithm@1@@Z 10013190 f i ChannelAPIInputProcessor.obj
 0002:00011190       ??$assign_to@U?$first_finderF@PBDUis_equal@algorithm@boost@@@detail@algorithm@boost@@@?$function2@V?$iterator_range@V?$_String_iterator@DU?$char_traits@D@std@@V?$allocator@D@2@@std@@@boost@@V?$_String_iterator@DU?$char_traits@D@std@@V?$allocator@D@2@@std@@V34@@boost@@AAEXU?$first_finderF@PBDUis_equal@algorithm@boost@@@detail@algorithm@1@@Z 10013190 f i TopologyFactory.obj
 0002:000111f0       ??$_Insert@V?$transform_iterator@U?$copy_iterator_rangeF@V?$basic_string@DU?$char_traits@D@std@@V?$allocator@D@2@@std@@V?$_String_const_iterator@DU?$char_traits@D@std@@V?$allocator@D@2@@2@@detail@algorithm@boost@@V?$split_iterator@V?$_String_const_iterator@DU?$char_traits@D@std@@V?$allocator@D@2@@std@@@34@Uuse_default@4@U64@@boost@@@?$vector@V?$basic_string@DU?$char_traits@D@std@@V?$allocator@D@2@@std@@V?$allocator@V?$basic_string@DU?$char_traits@D@std@@V?$allocator@D@2@@std@@@2@@std@@QAEXV?$_Vector_const_iterator@V?$basic_string@DU?$char_traits@D@std@@V?$allocator@D@2@@std@@V?$allocator@V?$basic_string@DU?$char_traits@D@std@@V?$allocator@D@2@@std@@@2@@1@V?$transform_iterator@U?$copy_iterator_rangeF@V?$basic_string@DU?$char_traits@D@std@@V?$allocator@D@2@@std@@V?$_String_const_iterator@DU?$char_traits@D@std@@V?$allocator@D@2@@2@@detail@algorithm@boost@@V?$split_iterator@V?$_String_const_iterator@DU?$char_traits@D@std@@V?$allocator@D@2@@std@@@34@Uuse_default@4@U64@@boost@@1Uinput_iterator_tag@1@@Z 100131f0 f i ChannelAPIInputProcessor.obj
 0002:000113c0       ??D?$iterator_facade@V?$transform_iterator@U?$copy_iterator_rangeF@V?$basic_string@DU?$char_traits@D@std@@V?$allocator@D@2@@std@@V?$_String_const_iterator@DU?$char_traits@D@std@@V?$allocator@D@2@@2@@detail@algorithm@boost@@V?$split_iterator@V?$_String_const_iterator@DU?$char_traits@D@std@@V?$allocator@D@2@@std@@@34@Uuse_default@4@U64@@boost@@V?$basic_string@DU?$char_traits@D@std@@V?$allocator@D@2@@std@@Uforward_traversal_tag@2@V34@H@boost@@QBE?AV?$basic_string@DU?$char_traits@D@std@@V?$allocator@D@2@@std@@XZ 100133c0 f i ChannelAPIInputProcessor.obj
 0002:000113e0       ?manage@?$functor_manager@U?$first_finderF@PBDUis_equal@algorithm@boost@@@detail@algorithm@boost@@@function@detail@boost@@SAXABTfunction_buffer@234@AAT5234@W4functor_manager_operation_type@234@@Z 100133e0 f i ChannelAPIInputProcessor.obj
 0002:00011420       ?manager@?$functor_manager@U?$first_finderF@PBDUis_equal@algorithm@boost@@@detail@algorithm@boost@@@function@detail@boost@@CAXABTfunction_buffer@234@AAT5234@W4functor_manager_operation_type@234@Ufunction_obj_tag@234@@Z 10013420 f i ChannelAPIInputProcessor.obj
 0002:00011470       ??$dereference@V?$transform_iterator@U?$copy_iterator_rangeF@V?$basic_string@DU?$char_traits@D@std@@V?$allocator@D@2@@std@@V?$_String_const_iterator@DU?$char_traits@D@std@@V?$allocator@D@2@@2@@detail@algorithm@boost@@V?$split_iterator@V?$_String_const_iterator@DU?$char_traits@D@std@@V?$allocator@D@2@@std@@@34@Uuse_default@4@U64@@boost@@@iterator_core_access@boost@@CA?AV?$basic_string@DU?$char_traits@D@std@@V?$allocator@D@2@@std@@ABV?$transform_iterator@U?$copy_iterator_rangeF@V?$basic_string@DU?$char_traits@D@std@@V?$allocator@D@2@@std@@V?$_String_const_iterator@DU?$char_traits@D@std@@V?$allocator@D@2@@2@@detail@algorithm@boost@@V?$split_iterator@V?$_String_const_iterator@DU?$char_traits@D@std@@V?$allocator@D@2@@std@@@34@Uuse_default@4@U64@@1@@Z 10013470 f i ChannelAPIInputProcessor.obj
 0002:00011490       ?dereference@?$transform_iterator@U?$copy_iterator_rangeF@V?$basic_string@DU?$char_traits@D@std@@V?$allocator@D@2@@std@@V?$_String_const_iterator@DU?$char_traits@D@std@@V?$allocator@D@2@@2@@detail@algorithm@boost@@V?$split_iterator@V?$_String_const_iterator@DU?$char_traits@D@std@@V?$allocator@D@2@@std@@@34@Uuse_default@4@U64@@boost@@ABE?AV?$basic_string@DU?$char_traits@D@std@@V?$allocator@D@2@@std@@XZ 10013490 f i ChannelAPIInputProcessor.obj
 0002:000114b0       ??R?$copy_iterator_rangeF@V?$basic_string@DU?$char_traits@D@std@@V?$allocator@D@2@@std@@V?$_String_const_iterator@DU?$char_traits@D@std@@V?$allocator@D@2@@2@@detail@algorithm@boost@@QBE?AV?$basic_string@DU?$char_traits@D@std@@V?$allocator@D@2@@std@@ABV?$iterator_range@V?$_String_const_iterator@DU?$char_traits@D@std@@V?$allocator@D@2@@std@@@3@@Z 100134b0 f i ChannelAPIInputProcessor.obj
 0002:000114d0       ??$copy_range@V?$basic_string@DU?$char_traits@D@std@@V?$allocator@D@2@@std@@V?$iterator_range@V?$_String_const_iterator@DU?$char_traits@D@std@@V?$allocator@D@2@@std@@@boost@@@boost@@YA?AV?$basic_string@DU?$char_traits@D@std@@V?$allocator@D@2@@std@@ABV?$iterator_range@V?$_String_const_iterator@DU?$char_traits@D@std@@V?$allocator@D@2@@std@@@0@@Z 100134d0 f i ChannelAPIInputProcessor.obj
 0002:00011500       ?equal@?$split_iterator@V?$_String_const_iterator@DU?$char_traits@D@std@@V?$allocator@D@2@@std@@@algorithm@boost@@ABE_NABV123@@Z 10013500 f i ChannelAPIInputProcessor.obj
 0002:000115c0       ??$equal_impl@V?$_String_const_iterator@DU?$char_traits@D@std@@V?$allocator@D@2@@std@@V12@@range_detail@boost@@YA_NV?$_String_const_iterator@DU?$char_traits@D@std@@V?$allocator@D@2@@std@@000Urandom_access_iterator_tag@3@1@Z 100135c0 f i ChannelAPIInputProcessor.obj
 0002:00011640       ?rethrow@?$clone_impl@U?$error_info_injector@Vbad_function_call@boost@@@exception_detail@boost@@@exception_detail@boost@@$0PPPPPPPM@A@BEXXZ 10013640 f i ChannelAPIInputProcessor.obj
 0002:00011650       ??_E?$error_info_injector@Vbad_function_call@boost@@@exception_detail@boost@@WCI@AEPAXI@Z 10013650 f i ChannelAPIInputProcessor.obj
 0002:00011660       ?clone@?$clone_impl@U?$error_info_injector@Vbad_function_call@boost@@@exception_detail@boost@@@exception_detail@boost@@$0PPPPPPPM@A@BEPBVclone_base@23@XZ 10013660 f i ChannelAPIInputProcessor.obj
 0002:00011670       ??_E?$clone_impl@U?$error_info_injector@Vbad_function_call@boost@@@exception_detail@boost@@@exception_detail@boost@@$4PPPPPPPM@EE@AEPAXI@Z 10013670 f i ChannelAPIInputProcessor.obj
 0002:00011680       ??_E?$clone_impl@U?$error_info_injector@Vbad_function_call@boost@@@exception_detail@boost@@@exception_detail@boost@@WCI@AEPAXI@Z 10013680 f i ChannelAPIInputProcessor.obj
 0002:00011690       ??1negative_edge@boost@@UAE@XZ 10013690 f i PathFinder.obj
 0002:00011690       ??1bad_graph@boost@@UAE@XZ 10013690 f i PathFinder.obj
 0002:000116b0       ??_GPathFinder@sass@@UAEPAXI@Z 100136b0 f i PathFinder.obj
 0002:000116b0       ??_EPathFinder@sass@@UAEPAXI@Z 100136b0 f i  CIL library: CIL module
 0002:000116e0       ??1PathFinder@sass@@UAE@XZ 100136e0 f   PathFinder.obj
 0002:000116f0       ?validateExplicitPath@PathFinder@sass@@QBE?BW4PathStatus@2@ABV?$vector@VChannelIndex@sass@@V?$allocator@VChannelIndex@sass@@@std@@@std@@@Z 100136f0 f   PathFinder.obj
 0002:000117c0       ?findPath@PathFinder@sass@@QBE?BU?$pair@W4PathStatus@sass@@V?$vector@VChannelIndex@sass@@V?$allocator@VChannelIndex@sass@@@std@@@std@@@std@@VChannelIndex@2@0@Z 100137c0 f   PathFinder.obj
 0002:00011990       ?findPath_@PathFinder@sass@@ABE?AV?$vector@VChannelIndex@sass@@V?$allocator@VChannelIndex@sass@@@std@@@std@@VChannelIndex@2@0@Z 10013990 f   PathFinder.obj
 0002:00011c70       ?validateEndpoints@PathFinder@sass@@ABE?AW4PathStatus@2@VChannelIndex@2@0@Z 10013c70 f   PathFinder.obj
 0002:00011df0       ?doesPathViolateMuxRule@PathFinder@sass@@ABE_NABV?$vector@VChannelIndex@sass@@V?$allocator@VChannelIndex@sass@@@std@@@std@@@Z 10013df0 f   PathFinder.obj
 0002:000120a0       ?validateExplicitPath_@PathFinder@sass@@ABE?AW4PathStatus@2@ABV?$vector@VChannelIndex@sass@@V?$allocator@VChannelIndex@sass@@@std@@@std@@@Z 100140a0 f   PathFinder.obj
 0002:000123f0       ?find@?$_Tree@V?$_Tmap_traits@VChannelIndex@sass@@V?$set@VChannelIndex@sass@@U?$less@VChannelIndex@sass@@@std@@V?$allocator@VChannelIndex@sass@@@4@@std@@U?$less@VChannelIndex@sass@@@4@V?$allocator@U?$pair@$$CBVChannelIndex@sass@@V?$set@VChannelIndex@sass@@U?$less@VChannelIndex@sass@@@std@@V?$allocator@VChannelIndex@sass@@@4@@std@@@std@@@4@$0A@@std@@@std@@QBE?AVconst_iterator@12@ABVChannelIndex@sass@@@Z 100143f0 f i PathFinder.obj
 0002:00012490       ?reserve@?$vector@VChannelIndex@sass@@V?$allocator@VChannelIndex@sass@@@std@@@std@@QAEXI@Z 10014490 f i PathFinder.obj
 0002:000125a0       ??0?$vector@IV?$allocator@I@std@@@std@@QAE@I@Z 100145a0 f i PathFinder.obj
 0002:00012600       ??A?$vector@IV?$allocator@I@std@@@std@@QAEAAII@Z 10014600 f i PathFinder.obj
 0002:00012620       ??E?$_Vector_const_iterator@VChannelIndex@sass@@V?$allocator@VChannelIndex@sass@@@std@@@std@@QAEAAV01@XZ 10014620 f i PathFinder.obj
 0002:00012650       ?find@?$_Tree@V?$_Tset_traits@VChannelIndex@sass@@U?$less@VChannelIndex@sass@@@std@@V?$allocator@VChannelIndex@sass@@@4@$0A@@std@@@std@@QBE?AVconst_iterator@12@ABVChannelIndex@sass@@@Z 10014650 f i PathFinder.obj
 0002:000126f0       ?_Construct_n@?$vector@IV?$allocator@I@std@@@std@@QAEXIABI@Z 100146f0 f i PathFinder.obj
 0002:00012750       ?_Lbound@?$_Tree@V?$_Tmap_traits@VChannelIndex@sass@@V?$set@VChannelIndex@sass@@U?$less@VChannelIndex@sass@@@std@@V?$allocator@VChannelIndex@sass@@@4@@std@@U?$less@VChannelIndex@sass@@@4@V?$allocator@U?$pair@$$CBVChannelIndex@sass@@V?$set@VChannelIndex@sass@@U?$less@VChannelIndex@sass@@@std@@V?$allocator@VChannelIndex@sass@@@4@@std@@@std@@@4@$0A@@std@@@std@@IBEPAU_Node@?$_Tree_nod@V?$_Tmap_traits@VChannelIndex@sass@@V?$set@VChannelIndex@sass@@U?$less@VChannelIndex@sass@@@std@@V?$allocator@VChannelIndex@sass@@@4@@std@@U?$less@VChannelIndex@sass@@@4@V?$allocator@U?$pair@$$CBVChannelIndex@sass@@V?$set@VChannelIndex@sass@@U?$less@VChannelIndex@sass@@@std@@V?$allocator@VChannelIndex@sass@@@4@@std@@@std@@@4@$0A@@std@@@2@ABVChannelIndex@sass@@@Z 10014750 f i PathFinder.obj
 0002:000127a0       ?_Lbound@?$_Tree@V?$_Tset_traits@VChannelIndex@sass@@U?$less@VChannelIndex@sass@@@std@@V?$allocator@VChannelIndex@sass@@@4@$0A@@std@@@std@@IBEPAU_Node@?$_Tree_nod@V?$_Tset_traits@VChannelIndex@sass@@U?$less@VChannelIndex@sass@@@std@@V?$allocator@VChannelIndex@sass@@@4@$0A@@std@@@2@ABVChannelIndex@sass@@@Z 100147a0 f i PathFinder.obj
 0002:000127f0       ??$make_pair@W4PathStatus@sass@@V?$vector@VChannelIndex@sass@@V?$allocator@VChannelIndex@sass@@@std@@@std@@@std@@YA?AU?$pair@W4PathStatus@sass@@V?$vector@VChannelIndex@sass@@V?$allocator@VChannelIndex@sass@@@std@@@std@@@0@W4PathStatus@sass@@V?$vector@VChannelIndex@sass@@V?$allocator@VChannelIndex@sass@@@std@@@0@@Z 100147f0 f i PathFinder.obj
 0002:00012860       ??$dijkstra_dispatch1@VPathFindingGraph@sass@@V?$iterator_property_map@PAEU?$vec_adj_list_vertex_id_map@Uno_property@boost@@I@boost@@EAAE@boost@@U?$adj_list_edge_property_map@Uundirected_tag@boost@@EABEI$$CBU?$property@W4edge_weight_t@boost@@EUno_property@2@@2@W4edge_weight_t@2@@4@U?$vec_adj_list_vertex_id_map@Uno_property@boost@@I@4@U?$bgl_named_params@V?$iterator_property_map@PAEU?$vec_adj_list_vertex_id_map@Uno_property@boost@@I@boost@@EAAE@boost@@W4vertex_distance_t@2@U?$bgl_named_params@V?$iterator_property_map@PAIU?$vec_adj_list_vertex_id_map@Uno_property@boost@@I@boost@@IAAI@boost@@W4vertex_predecessor_t@2@Uno_property@2@@2@@4@@detail@boost@@YAXABVPathFindingGraph@sass@@IV?$iterator_property_map@PAEU?$vec_adj_list_vertex_id_map@Uno_property@boost@@I@boost@@EAAE@1@U?$adj_list_edge_property_map@Uundirected_tag@boost@@EABEI$$CBU?$property@W4edge_weight_t@boost@@EUno_property@2@@2@W4edge_weight_t@2@@1@U?$vec_adj_list_vertex_id_map@Uno_property@boost@@I@1@ABU?$bgl_named_params@V?$iterator_property_map@PAEU?$vec_adj_list_vertex_id_map@Uno_property@boost@@I@boost@@EAAE@boost@@W4vertex_distance_t@2@U?$bgl_named_params@V?$iterator_property_map@PAIU?$vec_adj_list_vertex_id_map@Uno_property@boost@@I@boost@@IAAI@boost@@W4vertex_predecessor_t@2@Uno_property@2@@2@@1@@Z 10014860 f i PathFinder.obj
 0002:00012930       ??$dijkstra_shortest_paths@VPathFindingGraph@sass@@PAIV?$dijkstra_visitor@Unull_visitor@boost@@@boost@@V?$iterator_property_map@PAIU?$vec_adj_list_vertex_id_map@Uno_property@boost@@I@boost@@IAAI@4@V?$iterator_property_map@PAEU?$vec_adj_list_vertex_id_map@Uno_property@boost@@I@boost@@EAAE@4@U?$adj_list_edge_property_map@Uundirected_tag@boost@@EABEI$$CBU?$property@W4edge_weight_t@boost@@EUno_property@2@@2@W4edge_weight_t@2@@4@U?$vec_adj_list_vertex_id_map@Uno_property@boost@@I@4@U?$less@E@std@@U?$closed_plus@E@4@EEDUunused_tag_type@detail@4@Uno_property@4@@boost@@YAXABVPathFindingGraph@sass@@PAI1V?$iterator_property_map@PAIU?$vec_adj_list_vertex_id_map@Uno_property@boost@@I@boost@@IAAI@0@V?$iterator_property_map@PAEU?$vec_adj_list_vertex_id_map@Uno_property@boost@@I@boost@@EAAE@0@U?$adj_list_edge_property_map@Uundirected_tag@boost@@EABEI$$CBU?$property@W4edge_weight_t@boost@@EUno_property@2@@2@W4edge_weight_t@2@@0@U?$vec_adj_list_vertex_id_map@Uno_property@boost@@I@0@U?$less@E@std@@U?$closed_plus@E@0@EEV?$dijkstra_visitor@Unull_visitor@boost@@@0@ABU?$bgl_named_params@DUunused_tag_type@detail@boost@@Uno_property@3@@0@Uno_parameter@detail@graph@0@@Z 10014930 f i PathFinder.obj
 0002:00012a60       ??1?$two_bit_color_map@U?$vec_adj_list_vertex_id_map@Uno_property@boost@@I@boost@@@boost@@QAE@XZ 10014a60 f i PathFinder.obj
 0002:00012aa0       ??$dijkstra_shortest_paths@VPathFindingGraph@sass@@PAIV?$dijkstra_visitor@Unull_visitor@boost@@@boost@@V?$iterator_property_map@PAIU?$vec_adj_list_vertex_id_map@Uno_property@boost@@I@boost@@IAAI@4@V?$iterator_property_map@PAEU?$vec_adj_list_vertex_id_map@Uno_property@boost@@I@boost@@EAAE@4@U?$adj_list_edge_property_map@Uundirected_tag@boost@@EABEI$$CBU?$property@W4edge_weight_t@boost@@EUno_property@2@@2@W4edge_weight_t@2@@4@U?$vec_adj_list_vertex_id_map@Uno_property@boost@@I@4@U?$less@E@std@@U?$closed_plus@E@4@EEU?$two_bit_color_map@U?$vec_adj_list_vertex_id_map@Uno_property@boost@@I@boost@@@4@@boost@@YAXABVPathFindingGraph@sass@@PAI1V?$iterator_property_map@PAIU?$vec_adj_list_vertex_id_map@Uno_property@boost@@I@boost@@IAAI@0@V?$iterator_property_map@PAEU?$vec_adj_list_vertex_id_map@Uno_property@boost@@I@boost@@EAAE@0@U?$adj_list_edge_property_map@Uundirected_tag@boost@@EABEI$$CBU?$property@W4edge_weight_t@boost@@EUno_property@2@@2@W4edge_weight_t@2@@0@U?$vec_adj_list_vertex_id_map@Uno_property@boost@@I@0@U?$less@E@std@@U?$closed_plus@E@0@EEV?$dijkstra_visitor@Unull_visitor@boost@@@0@U?$two_bit_color_map@U?$vec_adj_list_vertex_id_map@Uno_property@boost@@I@boost@@@0@@Z 10014aa0 f i PathFinder.obj
 0002:00012c10       ??$dijkstra_shortest_paths_no_init@VPathFindingGraph@sass@@PAIV?$dijkstra_visitor@Unull_visitor@boost@@@boost@@V?$iterator_property_map@PAIU?$vec_adj_list_vertex_id_map@Uno_property@boost@@I@boost@@IAAI@4@V?$iterator_property_map@PAEU?$vec_adj_list_vertex_id_map@Uno_property@boost@@I@boost@@EAAE@4@U?$adj_list_edge_property_map@Uundirected_tag@boost@@EABEI$$CBU?$property@W4edge_weight_t@boost@@EUno_property@2@@2@W4edge_weight_t@2@@4@U?$vec_adj_list_vertex_id_map@Uno_property@boost@@I@4@U?$less@E@std@@U?$closed_plus@E@4@EU?$two_bit_color_map@U?$vec_adj_list_vertex_id_map@Uno_property@boost@@I@boost@@@4@@boost@@YAXABVPathFindingGraph@sass@@PAI1V?$iterator_property_map@PAIU?$vec_adj_list_vertex_id_map@Uno_property@boost@@I@boost@@IAAI@0@V?$iterator_property_map@PAEU?$vec_adj_list_vertex_id_map@Uno_property@boost@@I@boost@@EAAE@0@U?$adj_list_edge_property_map@Uundirected_tag@boost@@EABEI$$CBU?$property@W4edge_weight_t@boost@@EUno_property@2@@2@W4edge_weight_t@2@@0@U?$vec_adj_list_vertex_id_map@Uno_property@boost@@I@0@U?$less@E@std@@U?$closed_plus@E@0@EV?$dijkstra_visitor@Unull_visitor@boost@@@0@U?$two_bit_color_map@U?$vec_adj_list_vertex_id_map@Uno_property@boost@@I@boost@@@0@@Z 10014c10 f i PathFinder.obj
 0002:00012dc0       ??$?0PAEU?$checked_array_deleter@E@boost@@@shared_count@detail@boost@@QAE@PAEU?$checked_array_deleter@E@2@@Z 10014dc0 f i PathFinder.obj
 0002:00012e50       ??1?$d_ary_heap_indirect@I$03V?$iterator_property_map@PAIU?$vec_adj_list_vertex_id_map@Uno_property@boost@@I@boost@@IAAI@boost@@V?$iterator_property_map@PAEU?$vec_adj_list_vertex_id_map@Uno_property@boost@@I@boost@@EAAE@2@U?$less@E@std@@V?$vector@IV?$allocator@I@std@@@5@@boost@@QAE@XZ 10014e50 f i PathFinder.obj
 0002:00012e50       ??1?$pair@W4PathStatus@sass@@V?$vector@VChannelIndex@sass@@V?$allocator@VChannelIndex@sass@@@std@@@std@@@std@@QAE@XZ 10014e50 f i ChannelActionProcessor.obj
 0002:00012e80       ??1?$scoped_array@I@boost@@QAE@XZ 10014e80 f i PathFinder.obj
 0002:00012e90       ?dispose@?$sp_counted_impl_pd@PAEU?$checked_array_deleter@E@boost@@@detail@boost@@UAEXXZ 10014e90 f i PathFinder.obj
 0002:00012ea0       ?get_deleter@?$sp_counted_impl_pd@PAEU?$checked_array_deleter@E@boost@@@detail@boost@@UAEPAXABVtype_info@@@Z 10014ea0 f i PathFinder.obj
 0002:00012ed0       ?get_untyped_deleter@?$sp_counted_impl_pd@PAEU?$checked_array_deleter@E@boost@@@detail@boost@@UAEPAXXZ 10014ed0 f i PathFinder.obj
 0002:00012ee0       ?build@?$vertex_property_map_generator_helper@VPathFindingGraph@sass@@U?$vec_adj_list_vertex_id_map@Uno_property@boost@@I@boost@@I$00@detail@boost@@SA?AV?$iterator_property_map@PAIU?$vec_adj_list_vertex_id_map@Uno_property@boost@@I@boost@@IAAI@3@ABVPathFindingGraph@sass@@ABU?$vec_adj_list_vertex_id_map@Uno_property@boost@@I@3@AAV?$scoped_array@I@3@@Z 10014ee0 f i PathFinder.obj
 0002:00012f80       ??$breadth_first_visit@VPathFindingGraph@sass@@V?$d_ary_heap_indirect@I$03V?$iterator_property_map@PAIU?$vec_adj_list_vertex_id_map@Uno_property@boost@@I@boost@@IAAI@boost@@V?$iterator_property_map@PAEU?$vec_adj_list_vertex_id_map@Uno_property@boost@@I@boost@@EAAE@2@U?$less@E@std@@V?$vector@IV?$allocator@I@std@@@5@@boost@@U?$dijkstra_bfs_visitor@V?$dijkstra_visitor@Unull_visitor@boost@@@boost@@V?$d_ary_heap_indirect@I$03V?$iterator_property_map@PAIU?$vec_adj_list_vertex_id_map@Uno_property@boost@@I@boost@@IAAI@boost@@V?$iterator_property_map@PAEU?$vec_adj_list_vertex_id_map@Uno_property@boost@@I@boost@@EAAE@2@U?$less@E@std@@V?$vector@IV?$allocator@I@std@@@5@@2@U?$adj_list_edge_property_map@Uundirected_tag@boost@@EABEI$$CBU?$property@W4edge_weight_t@boost@@EUno_property@2@@2@W4edge_weight_t@2@@2@V?$iterator_property_map@PAIU?$vec_adj_list_vertex_id_map@Uno_property@boost@@I@boost@@IAAI@2@V?$iterator_property_map@PAEU?$vec_adj_list_vertex_id_map@Uno_property@boost@@I@boost@@EAAE@2@U?$closed_plus@E@2@U?$less@E@std@@@detail@4@U?$two_bit_color_map@U?$vec_adj_list_vertex_id_map@Uno_property@boost@@I@boost@@@4@PAI@boost@@YAXABVPathFindingGraph@sass@@PAI1AAV?$d_ary_heap_indirect@I$03V?$iterator_property_map@PAIU?$vec_adj_list_vertex_id_map@Uno_property@boost@@I@boost@@IAAI@boost@@V?$iterator_property_map@PAEU?$vec_adj_list_vertex_id_map@Uno_property@boost@@I@boost@@EAAE@2@U?$less@E@std@@V?$vector@IV?$allocator@I@std@@@5@@0@U?$dijkstra_bfs_visitor@V?$dijkstra_visitor@Unull_visitor@boost@@@boost@@V?$d_ary_heap_indirect@I$03V?$iterator_property_map@PAIU?$vec_adj_list_vertex_id_map@Uno_property@boost@@I@boost@@IAAI@boost@@V?$iterator_property_map@PAEU?$vec_adj_list_vertex_id_map@Uno_property@boost@@I@boost@@EAAE@2@U?$less@E@std@@V?$vector@IV?$allocator@I@std@@@5@@2@U?$adj_list_edge_property_map@Uundirected_tag@boost@@EABEI$$CBU?$property@W4edge_weight_t@boost@@EUno_property@2@@2@W4edge_weight_t@2@@2@V?$iterator_property_map@PAIU?$vec_adj_list_vertex_id_map@Uno_property@boost@@I@boost@@IAAI@2@V?$iterator_property_map@PAEU?$vec_adj_list_vertex_id_map@Uno_property@boost@@I@boost@@EAAE@2@U?$closed_plus@E@2@U?$less@E@std@@@detail@0@U?$two_bit_color_map@U?$vec_adj_list_vertex_id_map@Uno_property@boost@@I@boost@@@0@@Z 10014f80 f i PathFinder.obj
 0002:000133c0       ?pop@?$d_ary_heap_indirect@I$03V?$iterator_property_map@PAIU?$vec_adj_list_vertex_id_map@Uno_property@boost@@I@boost@@IAAI@boost@@V?$iterator_property_map@PAEU?$vec_adj_list_vertex_id_map@Uno_property@boost@@I@boost@@EAAE@2@U?$less@E@std@@V?$vector@IV?$allocator@I@std@@@5@@boost@@QAEXXZ 100153c0 f i PathFinder.obj
 0002:00013480       ?back@?$vector@IV?$allocator@I@std@@@std@@QAEAAIXZ 10015480 f i PathFinder.obj
 0002:00013500       ?preserve_heap_property_up@?$d_ary_heap_indirect@I$03V?$iterator_property_map@PAIU?$vec_adj_list_vertex_id_map@Uno_property@boost@@I@boost@@IAAI@boost@@V?$iterator_property_map@PAEU?$vec_adj_list_vertex_id_map@Uno_property@boost@@I@boost@@EAAE@2@U?$less@E@std@@V?$vector@IV?$allocator@I@std@@@5@@boost@@AAEXI@Z 10015500 f i PathFinder.obj
 0002:000135e0       ?preserve_heap_property_down@?$d_ary_heap_indirect@I$03V?$iterator_property_map@PAIU?$vec_adj_list_vertex_id_map@Uno_property@boost@@I@boost@@IAAI@boost@@V?$iterator_property_map@PAEU?$vec_adj_list_vertex_id_map@Uno_property@boost@@I@boost@@EAAE@2@U?$less@E@std@@V?$vector@IV?$allocator@I@std@@@5@@boost@@AAEXXZ 100155e0 f i PathFinder.obj
 0002:00013720       ?swap_heap_elements@?$d_ary_heap_indirect@I$03V?$iterator_property_map@PAIU?$vec_adj_list_vertex_id_map@Uno_property@boost@@I@boost@@IAAI@boost@@V?$iterator_property_map@PAEU?$vec_adj_list_vertex_id_map@Uno_property@boost@@I@boost@@EAAE@2@U?$less@E@std@@V?$vector@IV?$allocator@I@std@@@5@@boost@@AAEXII@Z 10015720 f i PathFinder.obj
 0002:000137b0       ??$out_edges@Uconfig@?$adj_list_gen@V?$adjacency_list@UvecS@boost@@U12@UundirectedS@2@Uno_property@2@U?$property@W4edge_weight_t@boost@@EUno_property@2@@2@U42@UlistS@2@@boost@@UvecS@2@U32@UundirectedS@2@Uno_property@2@U?$property@W4edge_weight_t@boost@@EUno_property@2@@2@U52@UlistS@2@@detail@boost@@U?$undirected_graph_helper@Uconfig@?$adj_list_gen@V?$adjacency_list@UvecS@boost@@U12@UundirectedS@2@Uno_property@2@U?$property@W4edge_weight_t@boost@@EUno_property@2@@2@U42@UlistS@2@@boost@@UvecS@2@U32@UundirectedS@2@Uno_property@2@U?$property@W4edge_weight_t@boost@@EUno_property@2@@2@U52@UlistS@2@@detail@boost@@@4@@boost@@YA?AU?$pair@U?$out_edge_iter@V?$_Vector_iterator@V?$stored_edge_iter@IV?$_Iterator@$00@?$list@U?$list_edge@IU?$property@W4edge_weight_t@boost@@EUno_property@2@@boost@@@boost@@V?$allocator@U?$list_edge@IU?$property@W4edge_weight_t@boost@@EUno_property@2@@boost@@@boost@@@std@@@std@@U?$property@W4edge_weight_t@boost@@EUno_property@2@@boost@@@detail@boost@@V?$allocator@V?$stored_edge_iter@IV?$_Iterator@$00@?$list@U?$list_edge@IU?$property@W4edge_weight_t@boost@@EUno_property@2@@boost@@@boost@@V?$allocator@U?$list_edge@IU?$property@W4edge_weight_t@boost@@EUno_property@2@@boost@@@boost@@@std@@@std@@U?$property@W4edge_weight_t@boost@@EUno_property@2@@boost@@@detail@boost@@@std@@@std@@IV?$edge_desc_impl@Uundirected_tag@boost@@I@detail@boost@@H@detail@boost@@U123@@std@@IABU?$adj_list_helper@Uconfig@?$adj_list_gen@V?$adjacency_list@UvecS@boost@@U12@UundirectedS@2@Uno_property@2@U?$property@W4edge_weight_t@boost@@EUno_property@2@@2@U42@UlistS@2@@boost@@UvecS@2@U32@UundirectedS@2@Uno_property@2@U?$property@W4edge_weight_t@boost@@EUno_property@2@@2@U52@UlistS@2@@detail@boost@@U?$undirected_graph_helper@Uconfig@?$adj_list_gen@V?$adjacency_list@UvecS@boost@@U12@UundirectedS@2@Uno_property@2@U?$property@W4edge_weight_t@boost@@EUno_property@2@@2@U42@UlistS@2@@boost@@UvecS@2@U32@UundirectedS@2@Uno_property@2@U?$property@W4edge_weight_t@boost@@EUno_property@2@@2@U52@UlistS@2@@detail@boost@@@4@@0@@Z 100157b0 f i PathFinder.obj
 0002:00013870       ?dereference@?$out_edge_iter@V?$_Vector_iterator@V?$stored_edge_iter@IV?$_Iterator@$00@?$list@U?$list_edge@IU?$property@W4edge_weight_t@boost@@EUno_property@2@@boost@@@boost@@V?$allocator@U?$list_edge@IU?$property@W4edge_weight_t@boost@@EUno_property@2@@boost@@@boost@@@std@@@std@@U?$property@W4edge_weight_t@boost@@EUno_property@2@@boost@@@detail@boost@@V?$allocator@V?$stored_edge_iter@IV?$_Iterator@$00@?$list@U?$list_edge@IU?$property@W4edge_weight_t@boost@@EUno_property@2@@boost@@@boost@@V?$allocator@U?$list_edge@IU?$property@W4edge_weight_t@boost@@EUno_property@2@@boost@@@boost@@@std@@@std@@U?$property@W4edge_weight_t@boost@@EUno_property@2@@boost@@@detail@boost@@@std@@@std@@IV?$edge_desc_impl@Uundirected_tag@boost@@I@detail@boost@@H@detail@boost@@QBE?AV?$edge_desc_impl@Uundirected_tag@boost@@I@23@XZ 10015870 f i PathFinder.obj
 0002:00013900       ??$throw_exception@Unegative_edge@boost@@@boost@@YAXABUnegative_edge@0@@Z 10015900 f i PathFinder.obj
 0002:00013950       ??$relax@VPathFindingGraph@sass@@U?$adj_list_edge_property_map@Uundirected_tag@boost@@EABEI$$CBU?$property@W4edge_weight_t@boost@@EUno_property@2@@2@W4edge_weight_t@2@@boost@@V?$iterator_property_map@PAIU?$vec_adj_list_vertex_id_map@Uno_property@boost@@I@boost@@IAAI@4@V?$iterator_property_map@PAEU?$vec_adj_list_vertex_id_map@Uno_property@boost@@I@boost@@EAAE@4@U?$closed_plus@E@4@U?$less@E@std@@@boost@@YA_NV?$edge_desc_impl@Uundirected_tag@boost@@I@detail@0@ABVPathFindingGraph@sass@@ABU?$adj_list_edge_property_map@Uundirected_tag@boost@@EABEI$$CBU?$property@W4edge_weight_t@boost@@EUno_property@2@@2@W4edge_weight_t@2@@0@AAV?$iterator_property_map@PAIU?$vec_adj_list_vertex_id_map@Uno_property@boost@@I@boost@@IAAI@0@AAV?$iterator_property_map@PAEU?$vec_adj_list_vertex_id_map@Uno_property@boost@@I@boost@@EAAE@0@ABU?$closed_plus@E@0@ABU?$less@E@std@@@Z 10015950 f i PathFinder.obj
 0002:00013a30       ??_D?$clone_impl@U?$error_info_injector@Unegative_edge@boost@@@exception_detail@boost@@@exception_detail@boost@@QAEXXZ 10015a30 f i PathFinder.obj
 0002:00013a50       ??0?$clone_impl@U?$error_info_injector@Unegative_edge@boost@@@exception_detail@boost@@@exception_detail@boost@@QAE@ABV012@@Z 10015a50 f i PathFinder.obj
 0002:00013af0       ??0?$error_info_injector@Unegative_edge@boost@@@exception_detail@boost@@QAE@ABU012@@Z 10015af0 f i PathFinder.obj
 0002:00013b80       ??0negative_edge@boost@@QAE@ABU01@@Z 10015b80 f i PathFinder.obj
 0002:00013ba0       ??0bad_graph@boost@@QAE@ABU01@@Z 10015ba0 f i PathFinder.obj
 0002:00013bc0       ??0invalid_argument@std@@QAE@ABV01@@Z 10015bc0 f i PathFinder.obj
 0002:00013be0       ??_E?$clone_impl@U?$error_info_injector@Unegative_edge@boost@@@exception_detail@boost@@@exception_detail@boost@@UAEPAXI@Z 10015be0 f i  CIL library: CIL module
 0002:00013be0       ??_G?$clone_impl@U?$error_info_injector@Unegative_edge@boost@@@exception_detail@boost@@@exception_detail@boost@@UAEPAXI@Z 10015be0 f i PathFinder.obj
 0002:00013c10       ??_E?$error_info_injector@Unegative_edge@boost@@@exception_detail@boost@@UAEPAXI@Z 10015c10 f i  CIL library: CIL module
 0002:00013c10       ??_G?$error_info_injector@Unegative_edge@boost@@@exception_detail@boost@@UAEPAXI@Z 10015c10 f i PathFinder.obj
 0002:00013c70       ??1?$error_info_injector@Unegative_edge@boost@@@exception_detail@boost@@UAE@XZ 10015c70 f i PathFinder.obj
 0002:00013cc0       ??1?$clone_impl@U?$error_info_injector@Unegative_edge@boost@@@exception_detail@boost@@@exception_detail@boost@@UAE@XZ 10015cc0 f i PathFinder.obj
 0002:00013d30       ?clone@?$clone_impl@U?$error_info_injector@Unegative_edge@boost@@@exception_detail@boost@@@exception_detail@boost@@EBEPBVclone_base@23@XZ 10015d30 f i PathFinder.obj
 0002:00013db0       ?rethrow@?$clone_impl@U?$error_info_injector@Unegative_edge@boost@@@exception_detail@boost@@@exception_detail@boost@@EBEXXZ 10015db0 f i PathFinder.obj
 0002:00013de0       ??0?$clone_impl@U?$error_info_injector@Unegative_edge@boost@@@exception_detail@boost@@@exception_detail@boost@@AAE@ABV012@Uclone_tag@012@@Z 10015de0 f i PathFinder.obj
 0002:00013e80       ??$enable_error_info@Unegative_edge@boost@@@boost@@YA?AU?$error_info_injector@Unegative_edge@boost@@@exception_detail@0@ABUnegative_edge@0@@Z 10015e80 f i PathFinder.obj
 0002:00013ec0       ??$enable_current_exception@U?$error_info_injector@Unegative_edge@boost@@@exception_detail@boost@@@boost@@YA?AV?$clone_impl@U?$error_info_injector@Unegative_edge@boost@@@exception_detail@boost@@@exception_detail@0@ABU?$error_info_injector@Unegative_edge@boost@@@20@@Z 10015ec0 f i PathFinder.obj
 0002:00013ee0       ??0?$clone_impl@U?$error_info_injector@Unegative_edge@boost@@@exception_detail@boost@@@exception_detail@boost@@QAE@ABU?$error_info_injector@Unegative_edge@boost@@@12@@Z 10015ee0 f i PathFinder.obj
 0002:00013f80       ?clone@?$clone_impl@U?$error_info_injector@Unegative_edge@boost@@@exception_detail@boost@@@exception_detail@boost@@$0PPPPPPPM@A@BEPBVclone_base@23@XZ 10015f80 f i PathFinder.obj
 0002:00013f90       ??_E?$clone_impl@U?$error_info_injector@Unegative_edge@boost@@@exception_detail@boost@@@exception_detail@boost@@$4PPPPPPPM@EE@AEPAXI@Z 10015f90 f i PathFinder.obj
 0002:00013fa0       ??_E?$clone_impl@U?$error_info_injector@Unegative_edge@boost@@@exception_detail@boost@@@exception_detail@boost@@WCI@AEPAXI@Z 10015fa0 f i PathFinder.obj
 0002:00013fb0       ?rethrow@?$clone_impl@U?$error_info_injector@Unegative_edge@boost@@@exception_detail@boost@@@exception_detail@boost@@$0PPPPPPPM@A@BEXXZ 10015fb0 f i PathFinder.obj
 0002:00013fc0       ??_E?$error_info_injector@Unegative_edge@boost@@@exception_detail@boost@@WCI@AEPAXI@Z 10015fc0 f i PathFinder.obj
 0002:00013fd0       ?isConfigurationChannel@sass@@YA_NVChannelIndex@1@ABV?$FixedCapacity1DBufferWrapper@VChannelState@sass@@@1@@Z 10015fd0 f   pathFinderHelpers.obj
 0002:00014010       ?isConfigurationChannelUnused@sass@@YA_NVChannelIndex@1@ABV?$FixedCapacity1DBufferWrapper@VChannelState@sass@@@1@@Z 10016010 f   pathFinderHelpers.obj
 0002:00014070       ?doChannelsConflictBySource@sass@@YA_NVChannelIndex@1@0ABV?$FixedCapacity1DBufferWrapper@VChannelState@sass@@@1@@Z 10016070 f   pathFinderHelpers.obj
 0002:000141a0       ?isMuxRuleViolated@sass@@YA_NVChannelIndex@1@0ABV?$FixedCapacity2DBufferWrapper@VConnectionState@sass@@@1@ABUTopology@1@@Z 100161a0 f   pathFinderHelpers.obj
 0002:000142c0       ?getExistingPath@sass@@YA?AV?$vector@VChannelIndex@sass@@V?$allocator@VChannelIndex@sass@@@std@@@std@@VChannelIndex@1@0ABV?$FixedCapacity2DBufferWrapper@VChannelIndex@sass@@@1@@Z 100162c0 f   pathFinderHelpers.obj
 0002:000143a0       ?findExistingPath@sass@@YAPBV?$FixedCapacity1DBufferWrapper@VChannelIndex@sass@@@1@VChannelIndex@1@0ABV?$FixedCapacity2DBufferWrapper@VChannelIndex@sass@@@1@@Z 100163a0 f   pathFinderHelpers.obj
 0002:00014490       ?arePathsEqual@sass@@YA_NABV?$vector@VChannelIndex@sass@@V?$allocator@VChannelIndex@sass@@@std@@@std@@0@Z 10016490 f   pathFinderHelpers.obj
 0002:00014520       ??$deref@V?$set@VChannelIndex@sass@@U?$less@VChannelIndex@sass@@@std@@V?$allocator@VChannelIndex@sass@@@4@@std@@U?$bool_@$00@mpl@boost@@@foreach_detail_@boost@@YAABVChannelIndex@sass@@ABUauto_any_base@01@PAU?$type2type@V?$set@VChannelIndex@sass@@U?$less@VChannelIndex@sass@@@std@@V?$allocator@VChannelIndex@sass@@@4@@std@@U?$bool_@$00@mpl@boost@@@01@@Z 10016520 f i pathFinderHelpers.obj
 0002:00014520       ??$deref@V?$set@IU?$less@I@std@@V?$allocator@I@2@@std@@U?$bool_@$00@mpl@boost@@@foreach_detail_@boost@@YAABIABUauto_any_base@01@PAU?$type2type@V?$set@IU?$less@I@std@@V?$allocator@I@2@@std@@U?$bool_@$00@mpl@boost@@@01@@Z 10016520 f i ChannelToSwitchActionConverter.obj
 0002:00014550       ??$?0V?$reverse_iterator@V?$_Vector_const_iterator@VChannelIndex@sass@@V?$allocator@VChannelIndex@sass@@@std@@@std@@@std@@@?$vector@VChannelIndex@sass@@V?$allocator@VChannelIndex@sass@@@std@@@std@@QAE@V?$reverse_iterator@V?$_Vector_const_iterator@VChannelIndex@sass@@V?$allocator@VChannelIndex@sass@@@std@@@std@@@1@0@Z 10016550 f i pathFinderHelpers.obj
 0002:000145c0       ??$?8VChannelIndex@sass@@V?$allocator@VChannelIndex@sass@@@std@@@std@@YA_NABV?$vector@VChannelIndex@sass@@V?$allocator@VChannelIndex@sass@@@std@@@0@0@Z 100165c0 f i pathFinderHelpers.obj
 0002:00014650       ??$_Construct@V?$reverse_iterator@V?$_Vector_const_iterator@VChannelIndex@sass@@V?$allocator@VChannelIndex@sass@@@std@@@std@@@std@@@?$vector@VChannelIndex@sass@@V?$allocator@VChannelIndex@sass@@@std@@@std@@QAEXV?$reverse_iterator@V?$_Vector_const_iterator@VChannelIndex@sass@@V?$allocator@VChannelIndex@sass@@@std@@@std@@@1@0Uinput_iterator_tag@1@@Z 10016650 f i pathFinderHelpers.obj
 0002:000146d0       ??$_Equal@PBVChannelIndex@sass@@V?$_Vector_const_iterator@VChannelIndex@sass@@V?$allocator@VChannelIndex@sass@@@std@@@std@@@std@@YA_NPBVChannelIndex@sass@@0V?$_Vector_const_iterator@VChannelIndex@sass@@V?$allocator@VChannelIndex@sass@@@std@@@0@Urandom_access_iterator_tag@0@U_Range_checked_iterator_tag@0@@Z 100166d0 f i pathFinderHelpers.obj
 0002:00014740       ??$_Equal@PBVChannelIndex@sass@@PBV12@Uforward_iterator_tag@std@@@std@@YA_NPBVChannelIndex@sass@@00Uforward_iterator_tag@0@U_Range_checked_iterator_tag@0@@Z 10016740 f i pathFinderHelpers.obj
 0002:000147a0       ??$_Insert@V?$reverse_iterator@V?$_Vector_const_iterator@VChannelIndex@sass@@V?$allocator@VChannelIndex@sass@@@std@@@std@@@std@@@?$vector@VChannelIndex@sass@@V?$allocator@VChannelIndex@sass@@@std@@@std@@QAEXV?$_Vector_const_iterator@VChannelIndex@sass@@V?$allocator@VChannelIndex@sass@@@std@@@1@V?$reverse_iterator@V?$_Vector_const_iterator@VChannelIndex@sass@@V?$allocator@VChannelIndex@sass@@@std@@@std@@@1@1Uforward_iterator_tag@1@@Z 100167a0 f i pathFinderHelpers.obj
 0002:00014960       ??$_Uninit_copy@V?$reverse_iterator@PBVChannelIndex@sass@@@std@@PAVChannelIndex@sass@@V?$allocator@VChannelIndex@sass@@@2@@std@@YAPAVChannelIndex@sass@@V?$reverse_iterator@PBVChannelIndex@sass@@@0@0PAV12@AAV?$allocator@VChannelIndex@sass@@@0@U_Nonscalar_ptr_iterator_tag@0@U_Range_checked_iterator_tag@0@@Z 10016960 f i pathFinderHelpers.obj
 0002:00014990       ??0PathFindingGraph@sass@@QAE@VChannelIndex@1@0ABVSwitchState@1@ABUTopology@1@@Z 10016990 f   PathFindingGraph.obj
 0002:00014d40       ??_EPathFindingGraph@sass@@UAEPAXI@Z 10016d40 f i  CIL library: CIL module
 0002:00014d40       ??_GPathFindingGraph@sass@@UAEPAXI@Z 10016d40 f i PathFindingGraph.obj
 0002:00014d80       ??1?$adjacency_list@UvecS@boost@@U12@UundirectedS@2@Uno_property@2@U?$property@W4edge_weight_t@boost@@EUno_property@2@@2@U42@UlistS@2@@boost@@QAE@XZ 10016d80 f i PathFindingGraph.obj
 0002:00014da0       ??1?$vec_adj_list_impl@V?$adjacency_list@UvecS@boost@@U12@UundirectedS@2@Uno_property@2@U?$property@W4edge_weight_t@boost@@EUno_property@2@@2@U42@UlistS@2@@boost@@Uconfig@?$adj_list_gen@V?$adjacency_list@UvecS@boost@@U12@UundirectedS@2@Uno_property@2@U?$property@W4edge_weight_t@boost@@EUno_property@2@@2@U42@UlistS@2@@boost@@UvecS@2@U32@UundirectedS@2@Uno_property@2@U?$property@W4edge_weight_t@boost@@EUno_property@2@@2@U52@UlistS@2@@detail@2@U?$undirected_graph_helper@Uconfig@?$adj_list_gen@V?$adjacency_list@UvecS@boost@@U12@UundirectedS@2@Uno_property@2@U?$property@W4edge_weight_t@boost@@EUno_property@2@@2@U42@UlistS@2@@boost@@UvecS@2@U32@UundirectedS@2@Uno_property@2@U?$property@W4edge_weight_t@boost@@EUno_property@2@@2@U52@UlistS@2@@detail@boost@@@2@@boost@@QAE@XZ 10016da0 f i PathFindingGraph.obj
 0002:00014e00       ??1PathFindingGraph@sass@@UAE@XZ 10016e00 f   PathFindingGraph.obj
 0002:00014e20       ??1?$list@U?$list_edge@IU?$property@W4edge_weight_t@boost@@EUno_property@2@@boost@@@boost@@V?$allocator@U?$list_edge@IU?$property@W4edge_weight_t@boost@@EUno_property@2@@boost@@@boost@@@std@@@std@@QAE@XZ 10016e20 f i PathFindingGraph.obj
 0002:00014e40       ??0?$vec_adj_list_impl@V?$adjacency_list@UvecS@boost@@U12@UundirectedS@2@Uno_property@2@U?$property@W4edge_weight_t@boost@@EUno_property@2@@2@U42@UlistS@2@@boost@@Uconfig@?$adj_list_gen@V?$adjacency_list@UvecS@boost@@U12@UundirectedS@2@Uno_property@2@U?$property@W4edge_weight_t@boost@@EUno_property@2@@2@U42@UlistS@2@@boost@@UvecS@2@U32@UundirectedS@2@Uno_property@2@U?$property@W4edge_weight_t@boost@@EUno_property@2@@2@U52@UlistS@2@@detail@2@U?$undirected_graph_helper@Uconfig@?$adj_list_gen@V?$adjacency_list@UvecS@boost@@U12@UundirectedS@2@Uno_property@2@U?$property@W4edge_weight_t@boost@@EUno_property@2@@2@U42@UlistS@2@@boost@@UvecS@2@U32@UundirectedS@2@Uno_property@2@U?$property@W4edge_weight_t@boost@@EUno_property@2@@2@U52@UlistS@2@@detail@boost@@@2@@boost@@QAE@XZ 10016e40 f i PathFindingGraph.obj
 0002:00014eb0       ?_Tidy@?$list@U?$list_edge@IU?$property@W4edge_weight_t@boost@@EUno_property@2@@boost@@@boost@@V?$allocator@U?$list_edge@IU?$property@W4edge_weight_t@boost@@EUno_property@2@@boost@@@boost@@@std@@@std@@IAEXXZ 10016eb0 f i PathFindingGraph.obj
 0002:00014f00       ??0?$list@U?$list_edge@IU?$property@W4edge_weight_t@boost@@EUno_property@2@@boost@@@boost@@V?$allocator@U?$list_edge@IU?$property@W4edge_weight_t@boost@@EUno_property@2@@boost@@@boost@@@std@@@std@@QAE@XZ 10016f00 f i PathFindingGraph.obj
 0002:00014f60       ?_Destroy@?$vector@Ustored_vertex@config@?$adj_list_gen@V?$adjacency_list@UvecS@boost@@U12@UundirectedS@2@Uno_property@2@U?$property@W4edge_weight_t@boost@@EUno_property@2@@2@U42@UlistS@2@@boost@@UvecS@2@U32@UundirectedS@2@Uno_property@2@U?$property@W4edge_weight_t@boost@@EUno_property@2@@2@U52@UlistS@2@@detail@boost@@V?$allocator@Ustored_vertex@config@?$adj_list_gen@V?$adjacency_list@UvecS@boost@@U12@UundirectedS@2@Uno_property@2@U?$property@W4edge_weight_t@boost@@EUno_property@2@@2@U42@UlistS@2@@boost@@UvecS@2@U32@UundirectedS@2@Uno_property@2@U?$property@W4edge_weight_t@boost@@EUno_property@2@@2@U52@UlistS@2@@detail@boost@@@std@@@std@@IAEXPAUstored_vertex@config@?$adj_list_gen@V?$adjacency_list@UvecS@boost@@U12@UundirectedS@2@Uno_property@2@U?$property@W4edge_weight_t@boost@@EUno_property@2@@2@U42@UlistS@2@@boost@@UvecS@2@U32@UundirectedS@2@Uno_property@2@U?$property@W4edge_weight_t@boost@@EUno_property@2@@2@U52@UlistS@2@@detail@boost@@0@Z 10016f60 f i PathFindingGraph.obj
 0002:00014f80       ?_Buynode@?$list@U?$list_edge@IU?$property@W4edge_weight_t@boost@@EUno_property@2@@boost@@@boost@@V?$allocator@U?$list_edge@IU?$property@W4edge_weight_t@boost@@EUno_property@2@@boost@@@boost@@@std@@@std@@IAEPAU_Node@?$_List_nod@U?$list_edge@IU?$property@W4edge_weight_t@boost@@EUno_property@2@@boost@@@boost@@V?$allocator@U?$list_edge@IU?$property@W4edge_weight_t@boost@@EUno_property@2@@boost@@@boost@@@std@@@2@XZ 10016f80 f i PathFindingGraph.obj
 0002:00014fa0       ??$add_edge@V?$adjacency_list@UvecS@boost@@U12@UundirectedS@2@Uno_property@2@U?$property@W4edge_weight_t@boost@@EUno_property@2@@2@U42@UlistS@2@@boost@@Uconfig@?$adj_list_gen@V?$adjacency_list@UvecS@boost@@U12@UundirectedS@2@Uno_property@2@U?$property@W4edge_weight_t@boost@@EUno_property@2@@2@U42@UlistS@2@@boost@@UvecS@2@U32@UundirectedS@2@Uno_property@2@U?$property@W4edge_weight_t@boost@@EUno_property@2@@2@U52@UlistS@2@@detail@2@U?$undirected_graph_helper@Uconfig@?$adj_list_gen@V?$adjacency_list@UvecS@boost@@U12@UundirectedS@2@Uno_property@2@U?$property@W4edge_weight_t@boost@@EUno_property@2@@2@U42@UlistS@2@@boost@@UvecS@2@U32@UundirectedS@2@Uno_property@2@U?$property@W4edge_weight_t@boost@@EUno_property@2@@2@U52@UlistS@2@@detail@boost@@@2@@boost@@YA?AU?$pair@V?$edge_desc_impl@Uundirected_tag@boost@@I@detail@boost@@_N@std@@IIABU?$property@W4edge_weight_t@boost@@EUno_property@2@@0@AAV?$vec_adj_list_impl@V?$adjacency_list@UvecS@boost@@U12@UundirectedS@2@Uno_property@2@U?$property@W4edge_weight_t@boost@@EUno_property@2@@2@U42@UlistS@2@@boost@@Uconfig@?$adj_list_gen@V?$adjacency_list@UvecS@boost@@U12@UundirectedS@2@Uno_property@2@U?$property@W4edge_weight_t@boost@@EUno_property@2@@2@U42@UlistS@2@@boost@@UvecS@2@U32@UundirectedS@2@Uno_property@2@U?$property@W4edge_weight_t@boost@@EUno_property@2@@2@U52@UlistS@2@@detail@2@U?$undirected_graph_helper@Uconfig@?$adj_list_gen@V?$adjacency_list@UvecS@boost@@U12@UundirectedS@2@Uno_property@2@U?$property@W4edge_weight_t@boost@@EUno_property@2@@2@U42@UlistS@2@@boost@@UvecS@2@U32@UundirectedS@2@Uno_property@2@U?$property@W4edge_weight_t@boost@@EUno_property@2@@2@U52@UlistS@2@@detail@boost@@@2@@0@@Z 10016fa0 f i PathFindingGraph.obj
 0002:00015000       ??$_Allocate@V?$basic_string@DU?$char_traits@D@std@@V?$allocator@D@2@@std@@@std@@YAPAV?$basic_string@DU?$char_traits@D@std@@V?$allocator@D@2@@0@IPAV10@@Z 10017000 f i ChannelAPIInputProcessor.obj
 0002:00015000       ??$_Allocate@Ustored_vertex@config@?$adj_list_gen@V?$adjacency_list@UvecS@boost@@U12@UundirectedS@2@Uno_property@2@U?$property@W4edge_weight_t@boost@@EUno_property@2@@2@U42@UlistS@2@@boost@@UvecS@2@U32@UundirectedS@2@Uno_property@2@U?$property@W4edge_weight_t@boost@@EUno_property@2@@2@U52@UlistS@2@@detail@boost@@@std@@YAPAUstored_vertex@config@?$adj_list_gen@V?$adjacency_list@UvecS@boost@@U12@UundirectedS@2@Uno_property@2@U?$property@W4edge_weight_t@boost@@EUno_property@2@@2@U42@UlistS@2@@boost@@UvecS@2@U32@UundirectedS@2@Uno_property@2@U?$property@W4edge_weight_t@boost@@EUno_property@2@@2@U52@UlistS@2@@detail@boost@@IPAU12345@@Z 10017000 f i PathFindingGraph.obj
 0002:00015060       ?resize@?$vector@Ustored_vertex@config@?$adj_list_gen@V?$adjacency_list@UvecS@boost@@U12@UundirectedS@2@Uno_property@2@U?$property@W4edge_weight_t@boost@@EUno_property@2@@2@U42@UlistS@2@@boost@@UvecS@2@U32@UundirectedS@2@Uno_property@2@U?$property@W4edge_weight_t@boost@@EUno_property@2@@2@U52@UlistS@2@@detail@boost@@V?$allocator@Ustored_vertex@config@?$adj_list_gen@V?$adjacency_list@UvecS@boost@@U12@UundirectedS@2@Uno_property@2@U?$property@W4edge_weight_t@boost@@EUno_property@2@@2@U42@UlistS@2@@boost@@UvecS@2@U32@UundirectedS@2@Uno_property@2@U?$property@W4edge_weight_t@boost@@EUno_property@2@@2@U52@UlistS@2@@detail@boost@@@std@@@std@@QAEXI@Z 10017060 f i PathFindingGraph.obj
 0002:000150d0       ?resize@?$vector@Ustored_vertex@config@?$adj_list_gen@V?$adjacency_list@UvecS@boost@@U12@UundirectedS@2@Uno_property@2@U?$property@W4edge_weight_t@boost@@EUno_property@2@@2@U42@UlistS@2@@boost@@UvecS@2@U32@UundirectedS@2@Uno_property@2@U?$property@W4edge_weight_t@boost@@EUno_property@2@@2@U52@UlistS@2@@detail@boost@@V?$allocator@Ustored_vertex@config@?$adj_list_gen@V?$adjacency_list@UvecS@boost@@U12@UundirectedS@2@Uno_property@2@U?$property@W4edge_weight_t@boost@@EUno_property@2@@2@U42@UlistS@2@@boost@@UvecS@2@U32@UundirectedS@2@Uno_property@2@U?$property@W4edge_weight_t@boost@@EUno_property@2@@2@U52@UlistS@2@@detail@boost@@@std@@@std@@QAEXIUstored_vertex@config@?$adj_list_gen@V?$adjacency_list@UvecS@boost@@U12@UundirectedS@2@Uno_property@2@U?$property@W4edge_weight_t@boost@@EUno_property@2@@2@U42@UlistS@2@@boost@@UvecS@2@U32@UundirectedS@2@Uno_property@2@U?$property@W4edge_weight_t@boost@@EUno_property@2@@2@U52@UlistS@2@@detail@boost@@@Z 100170d0 f i PathFindingGraph.obj
 0002:000151e0       ?erase@?$vector@Ustored_vertex@config@?$adj_list_gen@V?$adjacency_list@UvecS@boost@@U12@UundirectedS@2@Uno_property@2@U?$property@W4edge_weight_t@boost@@EUno_property@2@@2@U42@UlistS@2@@boost@@UvecS@2@U32@UundirectedS@2@Uno_property@2@U?$property@W4edge_weight_t@boost@@EUno_property@2@@2@U52@UlistS@2@@detail@boost@@V?$allocator@Ustored_vertex@config@?$adj_list_gen@V?$adjacency_list@UvecS@boost@@U12@UundirectedS@2@Uno_property@2@U?$property@W4edge_weight_t@boost@@EUno_property@2@@2@U42@UlistS@2@@boost@@UvecS@2@U32@UundirectedS@2@Uno_property@2@U?$property@W4edge_weight_t@boost@@EUno_property@2@@2@U52@UlistS@2@@detail@boost@@@std@@@std@@QAE?AV?$_Vector_iterator@Ustored_vertex@config@?$adj_list_gen@V?$adjacency_list@UvecS@boost@@U12@UundirectedS@2@Uno_property@2@U?$property@W4edge_weight_t@boost@@EUno_property@2@@2@U42@UlistS@2@@boost@@UvecS@2@U32@UundirectedS@2@Uno_property@2@U?$property@W4edge_weight_t@boost@@EUno_property@2@@2@U52@UlistS@2@@detail@boost@@V?$allocator@Ustored_vertex@config@?$adj_list_gen@V?$adjacency_list@UvecS@boost@@U12@UundirectedS@2@Uno_property@2@U?$property@W4edge_weight_t@boost@@EUno_property@2@@2@U42@UlistS@2@@boost@@UvecS@2@U32@UundirectedS@2@Uno_property@2@U?$property@W4edge_weight_t@boost@@EUno_property@2@@2@U52@UlistS@2@@detail@boost@@@std@@@2@V?$_Vector_const_iterator@Ustored_vertex@config@?$adj_list_gen@V?$adjacency_list@UvecS@boost@@U12@UundirectedS@2@Uno_property@2@U?$property@W4edge_weight_t@boost@@EUno_property@2@@2@U42@UlistS@2@@boost@@UvecS@2@U32@UundirectedS@2@Uno_property@2@U?$property@W4edge_weight_t@boost@@EUno_property@2@@2@U52@UlistS@2@@detail@boost@@V?$allocator@Ustored_vertex@config@?$adj_list_gen@V?$adjacency_list@UvecS@boost@@U12@UundirectedS@2@Uno_property@2@U?$property@W4edge_weight_t@boost@@EUno_property@2@@2@U42@UlistS@2@@boost@@UvecS@2@U32@UundirectedS@2@Uno_property@2@U?$property@W4edge_weight_t@boost@@EUno_property@2@@2@U52@UlistS@2@@detail@boost@@@std@@@2@0@Z 100171e0 f i PathFindingGraph.obj
 0002:00015290       ?_Insert_n@?$vector@Ustored_vertex@config@?$adj_list_gen@V?$adjacency_list@UvecS@boost@@U12@UundirectedS@2@Uno_property@2@U?$property@W4edge_weight_t@boost@@EUno_property@2@@2@U42@UlistS@2@@boost@@UvecS@2@U32@UundirectedS@2@Uno_property@2@U?$property@W4edge_weight_t@boost@@EUno_property@2@@2@U52@UlistS@2@@detail@boost@@V?$allocator@Ustored_vertex@config@?$adj_list_gen@V?$adjacency_list@UvecS@boost@@U12@UundirectedS@2@Uno_property@2@U?$property@W4edge_weight_t@boost@@EUno_property@2@@2@U42@UlistS@2@@boost@@UvecS@2@U32@UundirectedS@2@Uno_property@2@U?$property@W4edge_weight_t@boost@@EUno_property@2@@2@U52@UlistS@2@@detail@boost@@@std@@@std@@IAEXV?$_Vector_const_iterator@Ustored_vertex@config@?$adj_list_gen@V?$adjacency_list@UvecS@boost@@U12@UundirectedS@2@Uno_property@2@U?$property@W4edge_weight_t@boost@@EUno_property@2@@2@U42@UlistS@2@@boost@@UvecS@2@U32@UundirectedS@2@Uno_property@2@U?$property@W4edge_weight_t@boost@@EUno_property@2@@2@U52@UlistS@2@@detail@boost@@V?$allocator@Ustored_vertex@config@?$adj_list_gen@V?$adjacency_list@UvecS@boost@@U12@UundirectedS@2@Uno_property@2@U?$property@W4edge_weight_t@boost@@EUno_property@2@@2@U42@UlistS@2@@boost@@UvecS@2@U32@UundirectedS@2@Uno_property@2@U?$property@W4edge_weight_t@boost@@EUno_property@2@@2@U52@UlistS@2@@detail@boost@@@std@@@2@IABUstored_vertex@config@?$adj_list_gen@V?$adjacency_list@UvecS@boost@@U12@UundirectedS@2@Uno_property@2@U?$property@W4edge_weight_t@boost@@EUno_property@2@@2@U42@UlistS@2@@boost@@UvecS@2@U32@UundirectedS@2@Uno_property@2@U?$property@W4edge_weight_t@boost@@EUno_property@2@@2@U52@UlistS@2@@detail@boost@@@Z 10017290 f i PathFindingGraph.obj
 0002:00015630       ??H?$_Vector_iterator@Ustored_vertex@config@?$adj_list_gen@V?$adjacency_list@UvecS@boost@@U12@UundirectedS@2@Uno_property@2@U?$property@W4edge_weight_t@boost@@EUno_property@2@@2@U42@UlistS@2@@boost@@UvecS@2@U32@UundirectedS@2@Uno_property@2@U?$property@W4edge_weight_t@boost@@EUno_property@2@@2@U52@UlistS@2@@detail@boost@@V?$allocator@Ustored_vertex@config@?$adj_list_gen@V?$adjacency_list@UvecS@boost@@U12@UundirectedS@2@Uno_property@2@U?$property@W4edge_weight_t@boost@@EUno_property@2@@2@U42@UlistS@2@@boost@@UvecS@2@U32@UundirectedS@2@Uno_property@2@U?$property@W4edge_weight_t@boost@@EUno_property@2@@2@U52@UlistS@2@@detail@boost@@@std@@@std@@QBE?AV01@H@Z 10017630 f i PathFindingGraph.obj
 0002:00015680       ??0?$vector@V?$stored_edge_iter@IV?$_Iterator@$00@?$list@U?$list_edge@IU?$property@W4edge_weight_t@boost@@EUno_property@2@@boost@@@boost@@V?$allocator@U?$list_edge@IU?$property@W4edge_weight_t@boost@@EUno_property@2@@boost@@@boost@@@std@@@std@@U?$property@W4edge_weight_t@boost@@EUno_property@2@@boost@@@detail@boost@@V?$allocator@V?$stored_edge_iter@IV?$_Iterator@$00@?$list@U?$list_edge@IU?$property@W4edge_weight_t@boost@@EUno_property@2@@boost@@@boost@@V?$allocator@U?$list_edge@IU?$property@W4edge_weight_t@boost@@EUno_property@2@@boost@@@boost@@@std@@@std@@U?$property@W4edge_weight_t@boost@@EUno_property@2@@boost@@@detail@boost@@@std@@@std@@QAE@ABV01@@Z 10017680 f i PathFindingGraph.obj
 0002:00015780       ?_Ufill@?$vector@Ustored_vertex@config@?$adj_list_gen@V?$adjacency_list@UvecS@boost@@U12@UundirectedS@2@Uno_property@2@U?$property@W4edge_weight_t@boost@@EUno_property@2@@2@U42@UlistS@2@@boost@@UvecS@2@U32@UundirectedS@2@Uno_property@2@U?$property@W4edge_weight_t@boost@@EUno_property@2@@2@U52@UlistS@2@@detail@boost@@V?$allocator@Ustored_vertex@config@?$adj_list_gen@V?$adjacency_list@UvecS@boost@@U12@UundirectedS@2@Uno_property@2@U?$property@W4edge_weight_t@boost@@EUno_property@2@@2@U42@UlistS@2@@boost@@UvecS@2@U32@UundirectedS@2@Uno_property@2@U?$property@W4edge_weight_t@boost@@EUno_property@2@@2@U52@UlistS@2@@detail@boost@@@std@@@std@@IAEPAUstored_vertex@config@?$adj_list_gen@V?$adjacency_list@UvecS@boost@@U12@UundirectedS@2@Uno_property@2@U?$property@W4edge_weight_t@boost@@EUno_property@2@@2@U42@UlistS@2@@boost@@UvecS@2@U32@UundirectedS@2@Uno_property@2@U?$property@W4edge_weight_t@boost@@EUno_property@2@@2@U52@UlistS@2@@detail@boost@@PAU34567@IABU34567@@Z 10017780 f i PathFindingGraph.obj
 0002:000157b0       ?_Buy@?$vector@V?$stored_edge_iter@IV?$_Iterator@$00@?$list@U?$list_edge@IU?$property@W4edge_weight_t@boost@@EUno_property@2@@boost@@@boost@@V?$allocator@U?$list_edge@IU?$property@W4edge_weight_t@boost@@EUno_property@2@@boost@@@boost@@@std@@@std@@U?$property@W4edge_weight_t@boost@@EUno_property@2@@boost@@@detail@boost@@V?$allocator@V?$stored_edge_iter@IV?$_Iterator@$00@?$list@U?$list_edge@IU?$property@W4edge_weight_t@boost@@EUno_property@2@@boost@@@boost@@V?$allocator@U?$list_edge@IU?$property@W4edge_weight_t@boost@@EUno_property@2@@boost@@@boost@@@std@@@std@@U?$property@W4edge_weight_t@boost@@EUno_property@2@@boost@@@detail@boost@@@std@@@std@@IAE_NI@Z 100177b0 f i PathFindingGraph.obj
 0002:000157e0       ?allocate@?$allocator@V?$stored_edge_iter@IV?$_Iterator@$00@?$list@U?$list_edge@IU?$property@W4edge_weight_t@boost@@EUno_property@2@@boost@@@boost@@V?$allocator@U?$list_edge@IU?$property@W4edge_weight_t@boost@@EUno_property@2@@boost@@@boost@@@std@@@std@@U?$property@W4edge_weight_t@boost@@EUno_property@2@@boost@@@detail@boost@@@std@@QAEPAV?$stored_edge_iter@IV?$_Iterator@$00@?$list@U?$list_edge@IU?$property@W4edge_weight_t@boost@@EUno_property@2@@boost@@@boost@@V?$allocator@U?$list_edge@IU?$property@W4edge_weight_t@boost@@EUno_property@2@@boost@@@boost@@@std@@@std@@U?$property@W4edge_weight_t@boost@@EUno_property@2@@boost@@@detail@boost@@I@Z 100177e0 f i PathFindingGraph.obj
 0002:000157e0       ?allocate@?$allocator@VSwitchAction@sass@@@std@@QAEPAVSwitchAction@sass@@I@Z 100177e0 f i ChannelActionProcessor.obj
 0002:00015840       ??$add_edge@Uconfig@?$adj_list_gen@V?$adjacency_list@UvecS@boost@@U12@UundirectedS@2@Uno_property@2@U?$property@W4edge_weight_t@boost@@EUno_property@2@@2@U42@UlistS@2@@boost@@UvecS@2@U32@UundirectedS@2@Uno_property@2@U?$property@W4edge_weight_t@boost@@EUno_property@2@@2@U52@UlistS@2@@detail@boost@@@boost@@YA?AU?$pair@V?$edge_desc_impl@Uundirected_tag@boost@@I@detail@boost@@_N@std@@IIABU?$property@W4edge_weight_t@boost@@EUno_property@2@@0@AAU?$undirected_graph_helper@Uconfig@?$adj_list_gen@V?$adjacency_list@UvecS@boost@@U12@UundirectedS@2@Uno_property@2@U?$property@W4edge_weight_t@boost@@EUno_property@2@@2@U42@UlistS@2@@boost@@UvecS@2@U32@UundirectedS@2@Uno_property@2@U?$property@W4edge_weight_t@boost@@EUno_property@2@@2@U52@UlistS@2@@detail@boost@@@0@@Z 10017840 f i PathFindingGraph.obj
 0002:000159e0       ??$_Destroy_range@V?$allocator@Ustored_vertex@config@?$adj_list_gen@V?$adjacency_list@UvecS@boost@@U12@UundirectedS@2@Uno_property@2@U?$property@W4edge_weight_t@boost@@EUno_property@2@@2@U42@UlistS@2@@boost@@UvecS@2@U32@UundirectedS@2@Uno_property@2@U?$property@W4edge_weight_t@boost@@EUno_property@2@@2@U52@UlistS@2@@detail@boost@@@std@@@std@@YAXPAUstored_vertex@config@?$adj_list_gen@V?$adjacency_list@UvecS@boost@@U12@UundirectedS@2@Uno_property@2@U?$property@W4edge_weight_t@boost@@EUno_property@2@@2@U42@UlistS@2@@boost@@UvecS@2@U32@UundirectedS@2@Uno_property@2@U?$property@W4edge_weight_t@boost@@EUno_property@2@@2@U52@UlistS@2@@detail@boost@@0AAV?$allocator@Ustored_vertex@config@?$adj_list_gen@V?$adjacency_list@UvecS@boost@@U12@UundirectedS@2@Uno_property@2@U?$property@W4edge_weight_t@boost@@EUno_property@2@@2@U42@UlistS@2@@boost@@UvecS@2@U32@UundirectedS@2@Uno_property@2@U?$property@W4edge_weight_t@boost@@EUno_property@2@@2@U52@UlistS@2@@detail@boost@@@0@U_Nonscalar_ptr_iterator_tag@0@@Z 100179e0 f i PathFindingGraph.obj
 0002:00015a20       ??$_Umove@PAUstored_vertex@config@?$adj_list_gen@V?$adjacency_list@UvecS@boost@@U12@UundirectedS@2@Uno_property@2@U?$property@W4edge_weight_t@boost@@EUno_property@2@@2@U42@UlistS@2@@boost@@UvecS@2@U32@UundirectedS@2@Uno_property@2@U?$property@W4edge_weight_t@boost@@EUno_property@2@@2@U52@UlistS@2@@detail@boost@@@?$vector@Ustored_vertex@config@?$adj_list_gen@V?$adjacency_list@UvecS@boost@@U12@UundirectedS@2@Uno_property@2@U?$property@W4edge_weight_t@boost@@EUno_property@2@@2@U42@UlistS@2@@boost@@UvecS@2@U32@UundirectedS@2@Uno_property@2@U?$property@W4edge_weight_t@boost@@EUno_property@2@@2@U52@UlistS@2@@detail@boost@@V?$allocator@Ustored_vertex@config@?$adj_list_gen@V?$adjacency_list@UvecS@boost@@U12@UundirectedS@2@Uno_property@2@U?$property@W4edge_weight_t@boost@@EUno_property@2@@2@U42@UlistS@2@@boost@@UvecS@2@U32@UundirectedS@2@Uno_property@2@U?$property@W4edge_weight_t@boost@@EUno_property@2@@2@U52@UlistS@2@@detail@boost@@@std@@@std@@IAEPAUstored_vertex@config@?$adj_list_gen@V?$adjacency_list@UvecS@boost@@U12@UundirectedS@2@Uno_property@2@U?$property@W4edge_weight_t@boost@@EUno_property@2@@2@U42@UlistS@2@@boost@@UvecS@2@U32@UundirectedS@2@Uno_property@2@U?$property@W4edge_weight_t@boost@@EUno_property@2@@2@U52@UlistS@2@@detail@boost@@PAU23456@00@Z 10017a20 f i PathFindingGraph.obj
 0002:00015a50       ??$fill@PAUstored_vertex@config@?$adj_list_gen@V?$adjacency_list@UvecS@boost@@U12@UundirectedS@2@Uno_property@2@U?$property@W4edge_weight_t@boost@@EUno_property@2@@2@U42@UlistS@2@@boost@@UvecS@2@U32@UundirectedS@2@Uno_property@2@U?$property@W4edge_weight_t@boost@@EUno_property@2@@2@U52@UlistS@2@@detail@boost@@U12345@@std@@YAXPAUstored_vertex@config@?$adj_list_gen@V?$adjacency_list@UvecS@boost@@U12@UundirectedS@2@Uno_property@2@U?$property@W4edge_weight_t@boost@@EUno_property@2@@2@U42@UlistS@2@@boost@@UvecS@2@U32@UundirectedS@2@Uno_property@2@U?$property@W4edge_weight_t@boost@@EUno_property@2@@2@U52@UlistS@2@@detail@boost@@0ABU12345@@Z 10017a50 f i PathFindingGraph.obj
 0002:00015a80       ??$_Copy_opt@PAUstored_vertex@config@?$adj_list_gen@V?$adjacency_list@UvecS@boost@@U12@UundirectedS@2@Uno_property@2@U?$property@W4edge_weight_t@boost@@EUno_property@2@@2@U42@UlistS@2@@boost@@UvecS@2@U32@UundirectedS@2@Uno_property@2@U?$property@W4edge_weight_t@boost@@EUno_property@2@@2@U52@UlistS@2@@detail@boost@@PAU12345@@std@@YAPAUstored_vertex@config@?$adj_list_gen@V?$adjacency_list@UvecS@boost@@U12@UundirectedS@2@Uno_property@2@U?$property@W4edge_weight_t@boost@@EUno_property@2@@2@U42@UlistS@2@@boost@@UvecS@2@U32@UundirectedS@2@Uno_property@2@U?$property@W4edge_weight_t@boost@@EUno_property@2@@2@U52@UlistS@2@@detail@boost@@PAU12345@00Urandom_access_iterator_tag@0@U_Nonscalar_ptr_iterator_tag@0@U_Range_checked_iterator_tag@0@@Z 10017a80 f i PathFindingGraph.obj
 0002:00015ad0       ??$_Uninit_fill_n@PAUstored_vertex@config@?$adj_list_gen@V?$adjacency_list@UvecS@boost@@U12@UundirectedS@2@Uno_property@2@U?$property@W4edge_weight_t@boost@@EUno_property@2@@2@U42@UlistS@2@@boost@@UvecS@2@U32@UundirectedS@2@Uno_property@2@U?$property@W4edge_weight_t@boost@@EUno_property@2@@2@U52@UlistS@2@@detail@boost@@IU12345@V?$allocator@Ustored_vertex@config@?$adj_list_gen@V?$adjacency_list@UvecS@boost@@U12@UundirectedS@2@Uno_property@2@U?$property@W4edge_weight_t@boost@@EUno_property@2@@2@U42@UlistS@2@@boost@@UvecS@2@U32@UundirectedS@2@Uno_property@2@U?$property@W4edge_weight_t@boost@@EUno_property@2@@2@U52@UlistS@2@@detail@boost@@@std@@@std@@YAXPAUstored_vertex@config@?$adj_list_gen@V?$adjacency_list@UvecS@boost@@U12@UundirectedS@2@Uno_property@2@U?$property@W4edge_weight_t@boost@@EUno_property@2@@2@U42@UlistS@2@@boost@@UvecS@2@U32@UundirectedS@2@Uno_property@2@U?$property@W4edge_weight_t@boost@@EUno_property@2@@2@U52@UlistS@2@@detail@boost@@IABU12345@AAV?$allocator@Ustored_vertex@config@?$adj_list_gen@V?$adjacency_list@UvecS@boost@@U12@UundirectedS@2@Uno_property@2@U?$property@W4edge_weight_t@boost@@EUno_property@2@@2@U42@UlistS@2@@boost@@UvecS@2@U32@UundirectedS@2@Uno_property@2@U?$property@W4edge_weight_t@boost@@EUno_property@2@@2@U52@UlistS@2@@detail@boost@@@0@U_Nonscalar_ptr_iterator_tag@0@U_Range_checked_iterator_tag@0@@Z 10017ad0 f i PathFindingGraph.obj
 0002:00015b60       ??4?$vector@V?$stored_edge_iter@IV?$_Iterator@$00@?$list@U?$list_edge@IU?$property@W4edge_weight_t@boost@@EUno_property@2@@boost@@@boost@@V?$allocator@U?$list_edge@IU?$property@W4edge_weight_t@boost@@EUno_property@2@@boost@@@boost@@@std@@@std@@U?$property@W4edge_weight_t@boost@@EUno_property@2@@boost@@@detail@boost@@V?$allocator@V?$stored_edge_iter@IV?$_Iterator@$00@?$list@U?$list_edge@IU?$property@W4edge_weight_t@boost@@EUno_property@2@@boost@@@boost@@V?$allocator@U?$list_edge@IU?$property@W4edge_weight_t@boost@@EUno_property@2@@boost@@@boost@@@std@@@std@@U?$property@W4edge_weight_t@boost@@EUno_property@2@@boost@@@detail@boost@@@std@@@std@@QAEAAV01@ABV01@@Z 10017b60 f i PathFindingGraph.obj
 0002:00015ca0       ??$push_dispatch@V?$list@U?$list_edge@IU?$property@W4edge_weight_t@boost@@EUno_property@2@@boost@@@boost@@V?$allocator@U?$list_edge@IU?$property@W4edge_weight_t@boost@@EUno_property@2@@boost@@@boost@@@std@@@std@@U?$list_edge@IU?$property@W4edge_weight_t@boost@@EUno_property@2@@boost@@@boost@@@graph_detail@boost@@YA?AU?$pair@V?$_Iterator@$00@?$list@U?$list_edge@IU?$property@W4edge_weight_t@boost@@EUno_property@2@@boost@@@boost@@V?$allocator@U?$list_edge@IU?$property@W4edge_weight_t@boost@@EUno_property@2@@boost@@@boost@@@std@@@std@@_N@std@@AAV?$list@U?$list_edge@IU?$property@W4edge_weight_t@boost@@EUno_property@2@@boost@@@boost@@V?$allocator@U?$list_edge@IU?$property@W4edge_weight_t@boost@@EUno_property@2@@boost@@@boost@@@std@@@3@ABU?$list_edge@IU?$property@W4edge_weight_t@boost@@EUno_property@2@@boost@@@1@Uback_insertion_sequence_tag@01@@Z 10017ca0 f i PathFindingGraph.obj
 0002:00015d10       ??$_Copy_backward_opt@PAUstored_vertex@config@?$adj_list_gen@V?$adjacency_list@UvecS@boost@@U12@UundirectedS@2@Uno_property@2@U?$property@W4edge_weight_t@boost@@EUno_property@2@@2@U42@UlistS@2@@boost@@UvecS@2@U32@UundirectedS@2@Uno_property@2@U?$property@W4edge_weight_t@boost@@EUno_property@2@@2@U52@UlistS@2@@detail@boost@@PAU12345@@std@@YAPAUstored_vertex@config@?$adj_list_gen@V?$adjacency_list@UvecS@boost@@U12@UundirectedS@2@Uno_property@2@U?$property@W4edge_weight_t@boost@@EUno_property@2@@2@U42@UlistS@2@@boost@@UvecS@2@U32@UundirectedS@2@Uno_property@2@U?$property@W4edge_weight_t@boost@@EUno_property@2@@2@U52@UlistS@2@@detail@boost@@PAU12345@00Urandom_access_iterator_tag@0@U_Nonscalar_ptr_iterator_tag@0@U_Range_checked_iterator_tag@0@@Z 10017d10 f i PathFindingGraph.obj
 0002:00015d70       ?push_back@?$vector@V?$stored_edge_iter@IV?$_Iterator@$00@?$list@U?$list_edge@IU?$property@W4edge_weight_t@boost@@EUno_property@2@@boost@@@boost@@V?$allocator@U?$list_edge@IU?$property@W4edge_weight_t@boost@@EUno_property@2@@boost@@@boost@@@std@@@std@@U?$property@W4edge_weight_t@boost@@EUno_property@2@@boost@@@detail@boost@@V?$allocator@V?$stored_edge_iter@IV?$_Iterator@$00@?$list@U?$list_edge@IU?$property@W4edge_weight_t@boost@@EUno_property@2@@boost@@@boost@@V?$allocator@U?$list_edge@IU?$property@W4edge_weight_t@boost@@EUno_property@2@@boost@@@boost@@@std@@@std@@U?$property@W4edge_weight_t@boost@@EUno_property@2@@boost@@@detail@boost@@@std@@@std@@QAEXABV?$stored_edge_iter@IV?$_Iterator@$00@?$list@U?$list_edge@IU?$property@W4edge_weight_t@boost@@EUno_property@2@@boost@@@boost@@V?$allocator@U?$list_edge@IU?$property@W4edge_weight_t@boost@@EUno_property@2@@boost@@@boost@@@std@@@std@@U?$property@W4edge_weight_t@boost@@EUno_property@2@@boost@@@detail@boost@@@Z 10017d70 f i PathFindingGraph.obj
 0002:00015e10       ?insert@?$vector@V?$stored_edge_iter@IV?$_Iterator@$00@?$list@U?$list_edge@IU?$property@W4edge_weight_t@boost@@EUno_property@2@@boost@@@boost@@V?$allocator@U?$list_edge@IU?$property@W4edge_weight_t@boost@@EUno_property@2@@boost@@@boost@@@std@@@std@@U?$property@W4edge_weight_t@boost@@EUno_property@2@@boost@@@detail@boost@@V?$allocator@V?$stored_edge_iter@IV?$_Iterator@$00@?$list@U?$list_edge@IU?$property@W4edge_weight_t@boost@@EUno_property@2@@boost@@@boost@@V?$allocator@U?$list_edge@IU?$property@W4edge_weight_t@boost@@EUno_property@2@@boost@@@boost@@@std@@@std@@U?$property@W4edge_weight_t@boost@@EUno_property@2@@boost@@@detail@boost@@@std@@@std@@QAE?AV?$_Vector_iterator@V?$stored_edge_iter@IV?$_Iterator@$00@?$list@U?$list_edge@IU?$property@W4edge_weight_t@boost@@EUno_property@2@@boost@@@boost@@V?$allocator@U?$list_edge@IU?$property@W4edge_weight_t@boost@@EUno_property@2@@boost@@@boost@@@std@@@std@@U?$property@W4edge_weight_t@boost@@EUno_property@2@@boost@@@detail@boost@@V?$allocator@V?$stored_edge_iter@IV?$_Iterator@$00@?$list@U?$list_edge@IU?$property@W4edge_weight_t@boost@@EUno_property@2@@boost@@@boost@@V?$allocator@U?$list_edge@IU?$property@W4edge_weight_t@boost@@EUno_property@2@@boost@@@boost@@@std@@@std@@U?$property@W4edge_weight_t@boost@@EUno_property@2@@boost@@@detail@boost@@@std@@@2@V?$_Vector_const_iterator@V?$stored_edge_iter@IV?$_Iterator@$00@?$list@U?$list_edge@IU?$property@W4edge_weight_t@boost@@EUno_property@2@@boost@@@boost@@V?$allocator@U?$list_edge@IU?$property@W4edge_weight_t@boost@@EUno_property@2@@boost@@@boost@@@std@@@std@@U?$property@W4edge_weight_t@boost@@EUno_property@2@@boost@@@detail@boost@@V?$allocator@V?$stored_edge_iter@IV?$_Iterator@$00@?$list@U?$list_edge@IU?$property@W4edge_weight_t@boost@@EUno_property@2@@boost@@@boost@@V?$allocator@U?$list_edge@IU?$property@W4edge_weight_t@boost@@EUno_property@2@@boost@@@boost@@@std@@@std@@U?$property@W4edge_weight_t@boost@@EUno_property@2@@boost@@@detail@boost@@@std@@@2@ABV?$stored_edge_iter@IV?$_Iterator@$00@?$list@U?$list_edge@IU?$property@W4edge_weight_t@boost@@EUno_property@2@@boost@@@boost@@V?$allocator@U?$list_edge@IU?$property@W4edge_weight_t@boost@@EUno_property@2@@boost@@@boost@@@std@@@std@@U?$property@W4edge_weight_t@boost@@EUno_property@2@@boost@@@detail@boost@@@Z 10017e10 f i PathFindingGraph.obj
 0002:00015ee0       ?_Buynode@?$list@U?$list_edge@IU?$property@W4edge_weight_t@boost@@EUno_property@2@@boost@@@boost@@V?$allocator@U?$list_edge@IU?$property@W4edge_weight_t@boost@@EUno_property@2@@boost@@@boost@@@std@@@std@@IAEPAU_Node@?$_List_nod@U?$list_edge@IU?$property@W4edge_weight_t@boost@@EUno_property@2@@boost@@@boost@@V?$allocator@U?$list_edge@IU?$property@W4edge_weight_t@boost@@EUno_property@2@@boost@@@boost@@@std@@@2@PAU342@0ABU?$list_edge@IU?$property@W4edge_weight_t@boost@@EUno_property@2@@boost@@@boost@@@Z 10017ee0 f i PathFindingGraph.obj
 0002:00015f20       ?_Incsize@?$list@U?$list_edge@IU?$property@W4edge_weight_t@boost@@EUno_property@2@@boost@@@boost@@V?$allocator@U?$list_edge@IU?$property@W4edge_weight_t@boost@@EUno_property@2@@boost@@@boost@@@std@@@std@@IAEXI@Z 10017f20 f i PathFindingGraph.obj
 0002:00015f90       ?_Insert_n@?$vector@V?$stored_edge_iter@IV?$_Iterator@$00@?$list@U?$list_edge@IU?$property@W4edge_weight_t@boost@@EUno_property@2@@boost@@@boost@@V?$allocator@U?$list_edge@IU?$property@W4edge_weight_t@boost@@EUno_property@2@@boost@@@boost@@@std@@@std@@U?$property@W4edge_weight_t@boost@@EUno_property@2@@boost@@@detail@boost@@V?$allocator@V?$stored_edge_iter@IV?$_Iterator@$00@?$list@U?$list_edge@IU?$property@W4edge_weight_t@boost@@EUno_property@2@@boost@@@boost@@V?$allocator@U?$list_edge@IU?$property@W4edge_weight_t@boost@@EUno_property@2@@boost@@@boost@@@std@@@std@@U?$property@W4edge_weight_t@boost@@EUno_property@2@@boost@@@detail@boost@@@std@@@std@@IAEXV?$_Vector_const_iterator@V?$stored_edge_iter@IV?$_Iterator@$00@?$list@U?$list_edge@IU?$property@W4edge_weight_t@boost@@EUno_property@2@@boost@@@boost@@V?$allocator@U?$list_edge@IU?$property@W4edge_weight_t@boost@@EUno_property@2@@boost@@@boost@@@std@@@std@@U?$property@W4edge_weight_t@boost@@EUno_property@2@@boost@@@detail@boost@@V?$allocator@V?$stored_edge_iter@IV?$_Iterator@$00@?$list@U?$list_edge@IU?$property@W4edge_weight_t@boost@@EUno_property@2@@boost@@@boost@@V?$allocator@U?$list_edge@IU?$property@W4edge_weight_t@boost@@EUno_property@2@@boost@@@boost@@@std@@@std@@U?$property@W4edge_weight_t@boost@@EUno_property@2@@boost@@@detail@boost@@@std@@@2@IABV?$stored_edge_iter@IV?$_Iterator@$00@?$list@U?$list_edge@IU?$property@W4edge_weight_t@boost@@EUno_property@2@@boost@@@boost@@V?$allocator@U?$list_edge@IU?$property@W4edge_weight_t@boost@@EUno_property@2@@boost@@@boost@@@std@@@std@@U?$property@W4edge_weight_t@boost@@EUno_property@2@@boost@@@detail@boost@@@Z 10017f90 f i PathFindingGraph.obj
 0002:000161e0       ??$_Umove@PAVSwitchAction@sass@@@?$vector@VSwitchAction@sass@@V?$allocator@VSwitchAction@sass@@@std@@@std@@IAEPAVSwitchAction@sass@@PAV23@00@Z 100181e0 f i SwitchActionWriter.obj
 0002:000161e0       ??$_Ucopy@PAVSwitchAction@sass@@@?$vector@VSwitchAction@sass@@V?$allocator@VSwitchAction@sass@@@std@@@std@@IAEPAVSwitchAction@sass@@PAV23@00@Z 100181e0 f i ChannelActionProcessor.obj
 0002:000161e0       ??$_Umove@PAV?$stored_edge_iter@IV?$_Iterator@$00@?$list@U?$list_edge@IU?$property@W4edge_weight_t@boost@@EUno_property@2@@boost@@@boost@@V?$allocator@U?$list_edge@IU?$property@W4edge_weight_t@boost@@EUno_property@2@@boost@@@boost@@@std@@@std@@U?$property@W4edge_weight_t@boost@@EUno_property@2@@boost@@@detail@boost@@@?$vector@V?$stored_edge_iter@IV?$_Iterator@$00@?$list@U?$list_edge@IU?$property@W4edge_weight_t@boost@@EUno_property@2@@boost@@@boost@@V?$allocator@U?$list_edge@IU?$property@W4edge_weight_t@boost@@EUno_property@2@@boost@@@boost@@@std@@@std@@U?$property@W4edge_weight_t@boost@@EUno_property@2@@boost@@@detail@boost@@V?$allocator@V?$stored_edge_iter@IV?$_Iterator@$00@?$list@U?$list_edge@IU?$property@W4edge_weight_t@boost@@EUno_property@2@@boost@@@boost@@V?$allocator@U?$list_edge@IU?$property@W4edge_weight_t@boost@@EUno_property@2@@boost@@@boost@@@std@@@std@@U?$property@W4edge_weight_t@boost@@EUno_property@2@@boost@@@detail@boost@@@std@@@std@@IAEPAV?$stored_edge_iter@IV?$_Iterator@$00@?$list@U?$list_edge@IU?$property@W4edge_weight_t@boost@@EUno_property@2@@boost@@@boost@@V?$allocator@U?$list_edge@IU?$property@W4edge_weight_t@boost@@EUno_property@2@@boost@@@boost@@@std@@@std@@U?$property@W4edge_weight_t@boost@@EUno_property@2@@boost@@@detail@boost@@PAV234@00@Z 100181e0 f i PathFindingGraph.obj
 0002:000161e0       ??$_Ucopy@PAV?$stored_edge_iter@IV?$_Iterator@$00@?$list@U?$list_edge@IU?$property@W4edge_weight_t@boost@@EUno_property@2@@boost@@@boost@@V?$allocator@U?$list_edge@IU?$property@W4edge_weight_t@boost@@EUno_property@2@@boost@@@boost@@@std@@@std@@U?$property@W4edge_weight_t@boost@@EUno_property@2@@boost@@@detail@boost@@@?$vector@V?$stored_edge_iter@IV?$_Iterator@$00@?$list@U?$list_edge@IU?$property@W4edge_weight_t@boost@@EUno_property@2@@boost@@@boost@@V?$allocator@U?$list_edge@IU?$property@W4edge_weight_t@boost@@EUno_property@2@@boost@@@boost@@@std@@@std@@U?$property@W4edge_weight_t@boost@@EUno_property@2@@boost@@@detail@boost@@V?$allocator@V?$stored_edge_iter@IV?$_Iterator@$00@?$list@U?$list_edge@IU?$property@W4edge_weight_t@boost@@EUno_property@2@@boost@@@boost@@V?$allocator@U?$list_edge@IU?$property@W4edge_weight_t@boost@@EUno_property@2@@boost@@@boost@@@std@@@std@@U?$property@W4edge_weight_t@boost@@EUno_property@2@@boost@@@detail@boost@@@std@@@std@@IAEPAV?$stored_edge_iter@IV?$_Iterator@$00@?$list@U?$list_edge@IU?$property@W4edge_weight_t@boost@@EUno_property@2@@boost@@@boost@@V?$allocator@U?$list_edge@IU?$property@W4edge_weight_t@boost@@EUno_property@2@@boost@@@boost@@@std@@@std@@U?$property@W4edge_weight_t@boost@@EUno_property@2@@boost@@@detail@boost@@PAV234@00@Z 100181e0 f i PathFindingGraph.obj
 0002:00016210       ??$fill@PAVSwitchAction@sass@@V12@@std@@YAXPAVSwitchAction@sass@@0ABV12@@Z 10018210 f i SwitchActionWriter.obj
 0002:00016210       ??$fill@PAV?$stored_edge_iter@IV?$_Iterator@$00@?$list@U?$list_edge@IU?$property@W4edge_weight_t@boost@@EUno_property@2@@boost@@@boost@@V?$allocator@U?$list_edge@IU?$property@W4edge_weight_t@boost@@EUno_property@2@@boost@@@boost@@@std@@@std@@U?$property@W4edge_weight_t@boost@@EUno_property@2@@boost@@@detail@boost@@V123@@std@@YAXPAV?$stored_edge_iter@IV?$_Iterator@$00@?$list@U?$list_edge@IU?$property@W4edge_weight_t@boost@@EUno_property@2@@boost@@@boost@@V?$allocator@U?$list_edge@IU?$property@W4edge_weight_t@boost@@EUno_property@2@@boost@@@boost@@@std@@@std@@U?$property@W4edge_weight_t@boost@@EUno_property@2@@boost@@@detail@boost@@0ABV123@@Z 10018210 f i PathFindingGraph.obj
 0002:00016230       ??$_Uninit_copy@PAUstored_vertex@config@?$adj_list_gen@V?$adjacency_list@UvecS@boost@@U12@UundirectedS@2@Uno_property@2@U?$property@W4edge_weight_t@boost@@EUno_property@2@@2@U42@UlistS@2@@boost@@UvecS@2@U32@UundirectedS@2@Uno_property@2@U?$property@W4edge_weight_t@boost@@EUno_property@2@@2@U52@UlistS@2@@detail@boost@@PAU12345@V?$allocator@Ustored_vertex@config@?$adj_list_gen@V?$adjacency_list@UvecS@boost@@U12@UundirectedS@2@Uno_property@2@U?$property@W4edge_weight_t@boost@@EUno_property@2@@2@U42@UlistS@2@@boost@@UvecS@2@U32@UundirectedS@2@Uno_property@2@U?$property@W4edge_weight_t@boost@@EUno_property@2@@2@U52@UlistS@2@@detail@boost@@@std@@@std@@YAPAUstored_vertex@config@?$adj_list_gen@V?$adjacency_list@UvecS@boost@@U12@UundirectedS@2@Uno_property@2@U?$property@W4edge_weight_t@boost@@EUno_property@2@@2@U42@UlistS@2@@boost@@UvecS@2@U32@UundirectedS@2@Uno_property@2@U?$property@W4edge_weight_t@boost@@EUno_property@2@@2@U52@UlistS@2@@detail@boost@@PAU12345@00AAV?$allocator@Ustored_vertex@config@?$adj_list_gen@V?$adjacency_list@UvecS@boost@@U12@UundirectedS@2@Uno_property@2@U?$property@W4edge_weight_t@boost@@EUno_property@2@@2@U42@UlistS@2@@boost@@UvecS@2@U32@UundirectedS@2@Uno_property@2@U?$property@W4edge_weight_t@boost@@EUno_property@2@@2@U52@UlistS@2@@detail@boost@@@0@U_Nonscalar_ptr_iterator_tag@0@U_Range_checked_iterator_tag@0@@Z 10018230 f i PathFindingGraph.obj
 0002:000162c0       ??$_Copy_backward_opt@PAV?$stored_edge_iter@IV?$_Iterator@$00@?$list@U?$list_edge@IU?$property@W4edge_weight_t@boost@@EUno_property@2@@boost@@@boost@@V?$allocator@U?$list_edge@IU?$property@W4edge_weight_t@boost@@EUno_property@2@@boost@@@boost@@@std@@@std@@U?$property@W4edge_weight_t@boost@@EUno_property@2@@boost@@@detail@boost@@PAV123@@std@@YAPAV?$stored_edge_iter@IV?$_Iterator@$00@?$list@U?$list_edge@IU?$property@W4edge_weight_t@boost@@EUno_property@2@@boost@@@boost@@V?$allocator@U?$list_edge@IU?$property@W4edge_weight_t@boost@@EUno_property@2@@boost@@@boost@@@std@@@std@@U?$property@W4edge_weight_t@boost@@EUno_property@2@@boost@@@detail@boost@@PAV123@00Urandom_access_iterator_tag@0@U_Nonscalar_ptr_iterator_tag@0@U_Range_checked_iterator_tag@0@@Z 100182c0 f i PathFindingGraph.obj
 0002:000162c0       ??$_Copy_backward_opt@PAVSwitchAction@sass@@PAV12@@std@@YAPAVSwitchAction@sass@@PAV12@00Urandom_access_iterator_tag@0@U_Nonscalar_ptr_iterator_tag@0@U_Range_checked_iterator_tag@0@@Z 100182c0 f i SwitchActionWriter.obj
 0002:00016310       ??0CStringWrapper@sass@@QAE@PADI@Z 10018310 f   CStringWrapper.obj
 0002:000165a0       ??_ECStringWrapper@sass@@UAEPAXI@Z 100185a0 f i  CIL library: CIL module
 0002:000165a0       ??_GCStringWrapper@sass@@UAEPAXI@Z 100185a0 f i CStringWrapper.obj
 0002:000165d0       ??1CStringWrapper@sass@@UAE@XZ 100185d0 f   CStringWrapper.obj
 0002:000165e0       ?set@CStringWrapper@sass@@QAEXPBD@Z 100185e0 f   CStringWrapper.obj
 0002:00016860       ??0PowerUsageTracker@sass@@QAE@ABV?$FixedCapacity1DBufferWrapper@VRelayState@sass@@@1@I@Z 10018860 f   PowerUsageTracker.obj
 0002:000168d0       ??EPowerUsageTracker@sass@@QAEAAV01@XZ 100188d0 f   PowerUsageTracker.obj
 0002:00016a90       ??FPowerUsageTracker@sass@@QAEAAV01@XZ 10018a90 f   PowerUsageTracker.obj
 0002:00016ad0       ??$?6I@nimxl@@YAAAV?$ArrayInserter@V?$ObjectInserter@V?$ObjectInserter@VInserterBase@jsonz@@@jsonz@@@jsonz@@@jsonz@@AAV12@ABU?$Usage@I@0@@Z 10018ad0 f i PowerUsageTracker.obj
 0002:00016b80       ?getRoutedTo@ChannelState@sass@@QBE?AVChannelIndex@2@XZ 10018b80 f   ChannelState.obj
 0002:00016b90       ?getSourceChannel@ChannelState@sass@@QBE?AVChannelIndex@2@XZ 10018b90 f   ChannelState.obj
 0002:00016ba0       ??_GChannelStateUpdater@sass@@UAEPAXI@Z 10018ba0 f i ChannelStateUpdater.obj
 0002:00016ba0       ??_EChannelStateUpdater@sass@@UAEPAXI@Z 10018ba0 f i  CIL library: CIL module
 0002:00016bd0       ?connectPath@ChannelStateUpdater@sass@@AAEXABV?$vector@VChannelIndex@sass@@V?$allocator@VChannelIndex@sass@@@std@@@std@@@Z 10018bd0 f   ChannelStateUpdater.obj
 0002:00016c20       ?disconnectPath@ChannelStateUpdater@sass@@AAEXABV?$vector@VChannelIndex@sass@@V?$allocator@VChannelIndex@sass@@@std@@@std@@@Z 10018c20 f   ChannelStateUpdater.obj
 0002:00016c80       ?updatePathSettings@ChannelStateUpdater@sass@@AAEXABV?$vector@VChannelIndex@sass@@V?$allocator@VChannelIndex@sass@@@std@@@std@@_N@Z 10018c80 f   ChannelStateUpdater.obj
 0002:00016d10       ?setDirectlyConnected@ChannelStateUpdater@sass@@AAEXVChannelIndex@2@0_N@Z 10018d10 f   ChannelStateUpdater.obj
 0002:00016dc0       ?setExplicitlyConnected@ChannelStateUpdater@sass@@AAEXVChannelIndex@2@0_N@Z 10018dc0 f   ChannelStateUpdater.obj
 0002:00016e70       ?addConnectedPath@ChannelStateUpdater@sass@@AAEXABV?$vector@VChannelIndex@sass@@V?$allocator@VChannelIndex@sass@@@std@@@std@@@Z 10018e70 f   ChannelStateUpdater.obj
 0002:00016fd0       ?removeConnectedPath@ChannelStateUpdater@sass@@AAEXABV?$vector@VChannelIndex@sass@@V?$allocator@VChannelIndex@sass@@@std@@@std@@@Z 10018fd0 f   ChannelStateUpdater.obj
 0002:00017030       ?updateConfigurationChannels@ChannelStateUpdater@sass@@AAEXABV?$vector@VChannelIndex@sass@@V?$allocator@VChannelIndex@sass@@@std@@@std@@_N@Z 10019030 f   ChannelStateUpdater.obj
 0002:000172d0       ?updateConnectedToSourceChannel@ChannelStateUpdater@sass@@AAEXVChannelIndex@2@@Z 100192d0 f   ChannelStateUpdater.obj
 0002:00017780       ??1?$queue@VChannelIndex@sass@@V?$deque@VChannelIndex@sass@@V?$allocator@VChannelIndex@sass@@@std@@@std@@@std@@QAE@XZ 10019780 f i ChannelStateUpdater.obj
 0002:000177a0       ?areChannelsConnected@ChannelStateUpdater@sass@@ABE_NVChannelIndex@2@0@Z 100197a0 f   ChannelStateUpdater.obj
 0002:00017880       ??0?$vector@_NV?$allocator@_N@std@@@std@@QAE@I_N@Z 10019880 f i ChannelStateUpdater.obj
 0002:00017920       ??1?$vector@_NV?$allocator@_N@std@@@std@@QAE@XZ 10019920 f i ChannelStateUpdater.obj
 0002:00017960       ?_Trim@?$vector@_NV?$allocator@_N@std@@@std@@IAEXI@Z 10019960 f i ChannelStateUpdater.obj
 0002:00017a20       ?push_back@?$deque@VChannelIndex@sass@@V?$allocator@VChannelIndex@sass@@@std@@@std@@QAEXABVChannelIndex@sass@@@Z 10019a20 f i ChannelStateUpdater.obj
 0002:00017aa0       ?_Tidy@?$deque@VChannelIndex@sass@@V?$allocator@VChannelIndex@sass@@@std@@@std@@IAEXXZ 10019aa0 f i ChannelStateUpdater.obj
 0002:00017b00       ?_Xlen@?$vector@_NV?$allocator@_N@std@@@std@@IBEXXZ 10019b00 f i ChannelStateUpdater.obj
 0002:00017b70       ?erase@?$vector@IV?$allocator@I@std@@@std@@QAE?AV?$_Vector_iterator@IV?$allocator@I@std@@@2@V?$_Vector_const_iterator@IV?$allocator@I@std@@@2@0@Z 10019b70 f i ChannelStateUpdater.obj
 0002:00017c10       ?_Growmap@?$deque@VChannelIndex@sass@@V?$allocator@VChannelIndex@sass@@@std@@@std@@IAEXI@Z 10019c10 f i ChannelStateUpdater.obj
 0002:00017d80       ?_Xlen@?$deque@VChannelIndex@sass@@V?$allocator@VChannelIndex@sass@@@std@@@std@@KAXXZ 10019d80 f i ChannelStateUpdater.obj
 0002:00017df0       ?allocate@?$allocator@I@std@@QAEPAII@Z 10019df0 f i AutoSwitchStateBufferLock.obj
 0002:00017df0       ?allocate@?$allocator@U?$hashed_index_node_impl@V?$allocator@D@std@@@detail@multi_index@boost@@@std@@QAEPAU?$hashed_index_node_impl@V?$allocator@D@std@@@detail@multi_index@boost@@I@Z 10019df0 f i NameIndexMap.obj
 0002:00017df0       ?allocate@?$allocator@PAVChannelIndex@sass@@@std@@QAEPAPAVChannelIndex@sass@@I@Z 10019df0 f i ChannelStateUpdater.obj
 0002:00017e50       ??Y?$_Vb_const_iterator@IHV?$vector@_NV?$allocator@_N@std@@@std@@@std@@QAEAAV01@H@Z 10019e50 f i ChannelStateUpdater.obj
 0002:00017f50       ??D?$_Deque_const_iterator@VChannelIndex@sass@@V?$allocator@VChannelIndex@sass@@@std@@$00@std@@QBEABVChannelIndex@sass@@XZ 10019f50 f i ChannelStateUpdater.obj
 0002:00017ff0       ?end@?$FixedCapacityContainerBase@VChannelIndex@sass@@@sass@@UBEPBVChannelIndex@2@XZ 10019ff0 f i ChannelStateUpdater.obj
 0002:00018010       ?end@?$FixedCapacityContainerBase@VChannelIndex@sass@@@sass@@UAEPAVChannelIndex@2@XZ 1001a010 f i ChannelStateUpdater.obj
 0002:00018030       ??4?$FixedCapacityContainerBase@VChannelIndex@sass@@@sass@@UAEAAV01@ABV01@@Z 1001a030 f i ChannelStateUpdater.obj
 0002:00018200       ??A?$FixedCapacityContainerBase@VChannelIndex@sass@@@sass@@UBEABVChannelIndex@1@I@Z 1001a200 f i ChannelStateUpdater.obj
 0002:00018220       ??8?$FixedCapacityContainerBase@VChannelIndex@sass@@@sass@@UBE_NABV01@@Z 1001a220 f i ChannelStateUpdater.obj
 0002:000182b0       ?front@?$FixedCapacityContainerBase@VChannelState@sass@@@sass@@UBEABVChannelState@2@XZ 1001a2b0 f i SwitchState.obj
 0002:000182b0       ?front@?$FixedCapacityContainerBase@V?$FixedCapacity1DBufferWrapper@VChannelIndex@sass@@@sass@@@sass@@UBEABV?$FixedCapacity1DBufferWrapper@VChannelIndex@sass@@@2@XZ 1001a2b0 f i SwitchState.obj
 0002:000182b0       ?front@?$FixedCapacityContainerBase@VChannelIndex@sass@@@sass@@UBEABVChannelIndex@2@XZ 1001a2b0 f i ChannelStateUpdater.obj
 0002:000182b0       ?front@?$FixedCapacityContainerBase@VConnectionState@sass@@@sass@@UBEABVConnectionState@2@XZ 1001a2b0 f i SwitchState.obj
 0002:000182b0       ?front@?$FixedCapacityContainerBase@VRelayState@sass@@@sass@@UBEABVRelayState@2@XZ 1001a2b0 f i SwitchState.obj
 0002:000182b0       ?front@?$FixedCapacityContainerBase@V?$FixedCapacity1DBufferWrapper@VConnectionState@sass@@@sass@@@sass@@UBEABV?$FixedCapacity1DBufferWrapper@VConnectionState@sass@@@2@XZ 1001a2b0 f i SwitchState.obj
 0002:000182c0       ?back@?$FixedCapacityContainerBase@VChannelIndex@sass@@@sass@@UBEABVChannelIndex@2@XZ 1001a2c0 f i ChannelStateUpdater.obj
 0002:000182d0       ?back@?$FixedCapacityContainerBase@VChannelIndex@sass@@@sass@@UAEAAVChannelIndex@2@XZ 1001a2d0 f i ChannelStateUpdater.obj
 0002:000182e0       ?push_back@?$FixedCapacityContainerBase@VChannelIndex@sass@@@sass@@UAEXABVChannelIndex@2@@Z 1001a2e0 f i ChannelStateUpdater.obj
 0002:00018470       ?erase@?$FixedCapacityContainerBase@VChannelIndex@sass@@@sass@@UAEXPAVChannelIndex@2@@Z 1001a470 f i ChannelStateUpdater.obj
 0002:00018620       ?clear@?$FixedCapacityContainerBase@VConnectionState@sass@@@sass@@UAEXXZ 1001a620 f i SwitchState.obj
 0002:00018620       ?clear@?$FixedCapacityContainerBase@V?$FixedCapacity1DBufferWrapper@VChannelIndex@sass@@@sass@@@sass@@UAEXXZ 1001a620 f i SwitchState.obj
 0002:00018620       ?clear@?$FixedCapacityContainerBase@VChannelIndex@sass@@@sass@@UAEXXZ 1001a620 f i ChannelStateUpdater.obj
 0002:00018620       ?clear@?$FixedCapacityContainerBase@VChannelState@sass@@@sass@@UAEXXZ 1001a620 f i SwitchState.obj
 0002:00018620       ?clear@?$FixedCapacityContainerBase@V?$FixedCapacity1DBufferWrapper@VConnectionState@sass@@@sass@@@sass@@UAEXXZ 1001a620 f i SwitchState.obj
 0002:00018620       ?clear@?$FixedCapacityContainerBase@VRelayState@sass@@@sass@@UAEXXZ 1001a620 f i SwitchState.obj
 0002:00018630       ??0?$FixedCapacity1DBufferWrapper@VChannelIndex@sass@@@sass@@QAE@PAXI@Z 1001a630 f i ChannelStateUpdater.obj
 0002:000188b0       ??1?$FixedCapacityContainerBase@VChannelIndex@sass@@@sass@@UAE@XZ 1001a8b0 f i ChannelStateUpdater.obj
 0002:000188b0       ??1?$FixedCapacity1DBufferWrapper@VChannelIndex@sass@@@sass@@UAE@XZ 1001a8b0 f i ChannelStateUpdater.obj
 0002:000188c0       ?size@?$FixedCapacity1DBufferWrapper@VChannelState@sass@@@sass@@UBEIXZ 1001a8c0 f i SwitchState.obj
 0002:000188c0       ?size@?$FixedCapacity1DBufferWrapper@VChannelIndex@sass@@@sass@@UBEIXZ 1001a8c0 f i ChannelStateUpdater.obj
 0002:000188c0       ?size@?$FixedCapacity1DBufferWrapper@VRelayState@sass@@@sass@@UBEIXZ 1001a8c0 f i SwitchState.obj
 0002:000188c0       ?size@?$FixedCapacity1DBufferWrapper@VConnectionState@sass@@@sass@@UBEIXZ 1001a8c0 f i SwitchState.obj
 0002:000188d0       ?begin@?$FixedCapacity1DBufferWrapper@VChannelIndex@sass@@@sass@@UBEPBVChannelIndex@2@XZ 1001a8d0 f i ChannelStateUpdater.obj
 0002:000188d0       ?begin@?$FixedCapacity1DBufferWrapper@VChannelState@sass@@@sass@@UBEPBVChannelState@2@XZ 1001a8d0 f i SwitchState.obj
 0002:000188d0       ?begin@?$FixedCapacity1DBufferWrapper@VConnectionState@sass@@@sass@@UBEPBVConnectionState@2@XZ 1001a8d0 f i SwitchState.obj
 0002:000188d0       ?begin@?$FixedCapacity1DBufferWrapper@VConnectionState@sass@@@sass@@UAEPAVConnectionState@2@XZ 1001a8d0 f i SwitchState.obj
 0002:000188d0       ?begin@?$FixedCapacity1DBufferWrapper@VRelayState@sass@@@sass@@UBEPBVRelayState@2@XZ 1001a8d0 f i SwitchState.obj
 0002:000188d0       ?begin@?$FixedCapacity1DBufferWrapper@VChannelState@sass@@@sass@@UAEPAVChannelState@2@XZ 1001a8d0 f i SwitchState.obj
 0002:000188d0       ?begin@?$FixedCapacity1DBufferWrapper@VChannelIndex@sass@@@sass@@UAEPAVChannelIndex@2@XZ 1001a8d0 f i ChannelStateUpdater.obj
 0002:000188d0       ?begin@?$FixedCapacity1DBufferWrapper@VRelayState@sass@@@sass@@UAEPAVRelayState@2@XZ 1001a8d0 f i SwitchState.obj
 0002:000188e0       ??_E?$FixedCapacity1DBufferWrapper@VChannelIndex@sass@@@sass@@UAEPAXI@Z 1001a8e0 f i  CIL library: CIL module
 0002:000188e0       ??_E?$FixedCapacityContainerBase@VChannelIndex@sass@@@sass@@UAEPAXI@Z 1001a8e0 f i  CIL library: CIL module
 0002:000188e0       ??_G?$FixedCapacityContainerBase@VChannelIndex@sass@@@sass@@UAEPAXI@Z 1001a8e0 f i ChannelStateUpdater.obj
 0002:000188e0       ??_G?$FixedCapacity1DBufferWrapper@VChannelIndex@sass@@@sass@@UAEPAXI@Z 1001a8e0 f i ChannelStateUpdater.obj
 0002:00018910       ??0SwitchState@sass@@QAE@PAXIIII@Z 1001a910 f   SwitchState.obj
 0002:000189c0       ??_ESwitchState@sass@@UAEPAXI@Z 1001a9c0 f i  CIL library: CIL module
 0002:000189c0       ??_GSwitchState@sass@@UAEPAXI@Z 1001a9c0 f i SwitchState.obj
 0002:000189f0       ??1SwitchState@sass@@UAE@XZ 1001a9f0 f   SwitchState.obj
 0002:00018a90       ??4?$FixedCapacityContainerBase@VRelayState@sass@@@sass@@UAEAAV01@ABV01@@Z 1001aa90 f i SwitchState.obj
 0002:00018a90       ??4?$FixedCapacityContainerBase@VConnectionState@sass@@@sass@@UAEAAV01@ABV01@@Z 1001aa90 f i SwitchState.obj
 0002:00018c50       ?back@?$FixedCapacityContainerBase@VRelayState@sass@@@sass@@UAEAAVRelayState@2@XZ 1001ac50 f i SwitchState.obj
 0002:00018c50       ?back@?$FixedCapacityContainerBase@VConnectionState@sass@@@sass@@UAEAAVConnectionState@2@XZ 1001ac50 f i SwitchState.obj
 0002:00018c60       ??0?$FixedCapacity1DBufferWrapper@VRelayState@sass@@@sass@@QAE@PAXI@Z 1001ac60 f i SwitchState.obj
 0002:00018ee0       ??1?$FixedCapacityContainerBase@VRelayState@sass@@@sass@@UAE@XZ 1001aee0 f i SwitchState.obj
 0002:00018ee0       ??1?$FixedCapacity1DBufferWrapper@VRelayState@sass@@@sass@@UAE@XZ 1001aee0 f i SwitchState.obj
 0002:00018ef0       ?end@?$FixedCapacityContainerBase@VChannelState@sass@@@sass@@UBEPBVChannelState@2@XZ 1001aef0 f i SwitchState.obj
 0002:00018f10       ?end@?$FixedCapacityContainerBase@VChannelState@sass@@@sass@@UAEPAVChannelState@2@XZ 1001af10 f i SwitchState.obj
 0002:00018f30       ??4?$FixedCapacityContainerBase@VChannelState@sass@@@sass@@UAEAAV01@ABV01@@Z 1001af30 f i SwitchState.obj
 0002:00019100       ??A?$FixedCapacityContainerBase@VChannelState@sass@@@sass@@UBEABVChannelState@1@I@Z 1001b100 f i SwitchState.obj
 0002:00019120       ??8?$FixedCapacityContainerBase@VChannelState@sass@@@sass@@UBE_NABV01@@Z 1001b120 f i SwitchState.obj
 0002:000191b0       ?back@?$FixedCapacityContainerBase@VChannelState@sass@@@sass@@UBEABVChannelState@2@XZ 1001b1b0 f i SwitchState.obj
 0002:000191c0       ?back@?$FixedCapacityContainerBase@VChannelState@sass@@@sass@@UAEAAVChannelState@2@XZ 1001b1c0 f i SwitchState.obj
 0002:000191d0       ?push_back@?$FixedCapacityContainerBase@VChannelState@sass@@@sass@@UAEXABVChannelState@2@@Z 1001b1d0 f i SwitchState.obj
 0002:00019360       ?erase@?$FixedCapacityContainerBase@VChannelState@sass@@@sass@@UAEXPAVChannelState@2@@Z 1001b360 f i SwitchState.obj
 0002:00019510       ??0?$FixedCapacity1DBufferWrapper@VChannelState@sass@@@sass@@QAE@PAXI@Z 1001b510 f i SwitchState.obj
 0002:00019790       ??1?$FixedCapacity1DBufferWrapper@VChannelState@sass@@@sass@@UAE@XZ 1001b790 f i SwitchState.obj
 0002:00019790       ??1?$FixedCapacityContainerBase@VChannelState@sass@@@sass@@UAE@XZ 1001b790 f i SwitchState.obj
 0002:000197a0       ??1?$FixedCapacityContainerBase@V?$FixedCapacity1DBufferWrapper@VConnectionState@sass@@@sass@@@sass@@UAE@XZ 1001b7a0 f i SwitchState.obj
 0002:000197b0       ?end@?$FixedCapacityContainerBase@V?$FixedCapacity1DBufferWrapper@VConnectionState@sass@@@sass@@@sass@@UAEPAV?$FixedCapacity1DBufferWrapper@VConnectionState@sass@@@2@XZ 1001b7b0 f i SwitchState.obj
 0002:000197b0       ?end@?$FixedCapacityContainerBase@V?$FixedCapacity1DBufferWrapper@VChannelIndex@sass@@@sass@@@sass@@UAEPAV?$FixedCapacity1DBufferWrapper@VChannelIndex@sass@@@2@XZ 1001b7b0 f i SwitchState.obj
 0002:000197d0       ??4?$FixedCapacityContainerBase@V?$FixedCapacity1DBufferWrapper@VConnectionState@sass@@@sass@@@sass@@UAEAAV01@ABV01@@Z 1001b7d0 f i SwitchState.obj
 0002:00019990       ??A?$FixedCapacityContainerBase@V?$FixedCapacity1DBufferWrapper@VConnectionState@sass@@@sass@@@sass@@UBEABV?$FixedCapacity1DBufferWrapper@VConnectionState@sass@@@1@I@Z 1001b990 f i SwitchState.obj
 0002:00019990       ??A?$FixedCapacityContainerBase@V?$FixedCapacity1DBufferWrapper@VChannelIndex@sass@@@sass@@@sass@@UBEABV?$FixedCapacity1DBufferWrapper@VChannelIndex@sass@@@1@I@Z 1001b990 f i SwitchState.obj
 0002:000199b0       ??A?$FixedCapacityContainerBase@VChannelState@sass@@@sass@@UAEAAVChannelState@1@I@Z 1001b9b0 f i SwitchState.obj
 0002:000199b0       ??A?$FixedCapacityContainerBase@V?$FixedCapacity1DBufferWrapper@VChannelIndex@sass@@@sass@@@sass@@UAEAAV?$FixedCapacity1DBufferWrapper@VChannelIndex@sass@@@1@I@Z 1001b9b0 f i SwitchState.obj
 0002:000199b0       ??A?$FixedCapacityContainerBase@VChannelIndex@sass@@@sass@@UAEAAVChannelIndex@1@I@Z 1001b9b0 f i ChannelStateUpdater.obj
 0002:000199b0       ??A?$FixedCapacityContainerBase@VConnectionState@sass@@@sass@@UAEAAVConnectionState@1@I@Z 1001b9b0 f i SwitchState.obj
 0002:000199b0       ??A?$FixedCapacityContainerBase@VRelayState@sass@@@sass@@UAEAAVRelayState@1@I@Z 1001b9b0 f i SwitchState.obj
 0002:000199b0       ??A?$FixedCapacityContainerBase@V?$FixedCapacity1DBufferWrapper@VConnectionState@sass@@@sass@@@sass@@UAEAAV?$FixedCapacity1DBufferWrapper@VConnectionState@sass@@@1@I@Z 1001b9b0 f i SwitchState.obj
 0002:000199c0       ??8?$FixedCapacityContainerBase@V?$FixedCapacity1DBufferWrapper@VChannelIndex@sass@@@sass@@@sass@@UBE_NABV01@@Z 1001b9c0 f i SwitchState.obj
 0002:000199c0       ??8?$FixedCapacityContainerBase@V?$FixedCapacity1DBufferWrapper@VConnectionState@sass@@@sass@@@sass@@UBE_NABV01@@Z 1001b9c0 f i SwitchState.obj
 0002:00019a40       ?back@?$FixedCapacityContainerBase@V?$FixedCapacity1DBufferWrapper@VConnectionState@sass@@@sass@@@sass@@UBEABV?$FixedCapacity1DBufferWrapper@VConnectionState@sass@@@2@XZ 1001ba40 f i SwitchState.obj
 0002:00019a40       ?back@?$FixedCapacityContainerBase@V?$FixedCapacity1DBufferWrapper@VChannelIndex@sass@@@sass@@@sass@@UBEABV?$FixedCapacity1DBufferWrapper@VChannelIndex@sass@@@2@XZ 1001ba40 f i SwitchState.obj
 0002:00019a50       ?back@?$FixedCapacityContainerBase@V?$FixedCapacity1DBufferWrapper@VChannelIndex@sass@@@sass@@@sass@@UAEAAV?$FixedCapacity1DBufferWrapper@VChannelIndex@sass@@@2@XZ 1001ba50 f i SwitchState.obj
 0002:00019a50       ?back@?$FixedCapacityContainerBase@V?$FixedCapacity1DBufferWrapper@VConnectionState@sass@@@sass@@@sass@@UAEAAV?$FixedCapacity1DBufferWrapper@VConnectionState@sass@@@2@XZ 1001ba50 f i SwitchState.obj
 0002:00019a60       ?push_back@?$FixedCapacityContainerBase@V?$FixedCapacity1DBufferWrapper@VConnectionState@sass@@@sass@@@sass@@UAEXABV?$FixedCapacity1DBufferWrapper@VConnectionState@sass@@@2@@Z 1001ba60 f i SwitchState.obj
 0002:00019bf0       ?erase@?$FixedCapacityContainerBase@V?$FixedCapacity1DBufferWrapper@VConnectionState@sass@@@sass@@@sass@@UAEXPAV?$FixedCapacity1DBufferWrapper@VConnectionState@sass@@@2@@Z 1001bbf0 f i SwitchState.obj
 0002:00019da0       ??0?$FixedCapacity2DBufferWrapper@VConnectionState@sass@@@sass@@QAE@PAXII@Z 1001bda0 f i SwitchState.obj
 0002:0001a080       ??1?$FixedCapacity2DBufferWrapper@VConnectionState@sass@@@sass@@UAE@XZ 1001c080 f i SwitchState.obj
 0002:0001a0d0       ?size@?$FixedCapacity2DBufferWrapper@VChannelIndex@sass@@@sass@@UBEIXZ 1001c0d0 f i SwitchState.obj
 0002:0001a0d0       ?size@?$FixedCapacity2DBufferWrapper@VConnectionState@sass@@@sass@@UBEIXZ 1001c0d0 f i SwitchState.obj
 0002:0001a0e0       ?begin@?$FixedCapacity2DBufferWrapper@VConnectionState@sass@@@sass@@UBEPBV?$FixedCapacity1DBufferWrapper@VConnectionState@sass@@@2@XZ 1001c0e0 f i SwitchState.obj
 0002:0001a0e0       ?begin@?$FixedCapacity2DBufferWrapper@VChannelIndex@sass@@@sass@@UAEPAV?$FixedCapacity1DBufferWrapper@VChannelIndex@sass@@@2@XZ 1001c0e0 f i SwitchState.obj
 0002:0001a0e0       ?begin@?$FixedCapacity2DBufferWrapper@VChannelIndex@sass@@@sass@@UBEPBV?$FixedCapacity1DBufferWrapper@VChannelIndex@sass@@@2@XZ 1001c0e0 f i SwitchState.obj
 0002:0001a0e0       ?what@ExceptionBase@nierr@@UBEPBDXZ 1001c0e0 f i ChannelActionProcessor.obj
 0002:0001a0e0       ?begin@?$FixedCapacity2DBufferWrapper@VConnectionState@sass@@@sass@@UAEPAV?$FixedCapacity1DBufferWrapper@VConnectionState@sass@@@2@XZ 1001c0e0 f i SwitchState.obj
 0002:0001a0f0       ??1?$FixedCapacityContainerBase@V?$FixedCapacity1DBufferWrapper@VChannelIndex@sass@@@sass@@@sass@@UAE@XZ 1001c0f0 f i SwitchState.obj
 0002:0001a100       ?end@?$FixedCapacityContainerBase@V?$FixedCapacity1DBufferWrapper@VChannelIndex@sass@@@sass@@@sass@@UBEPBV?$FixedCapacity1DBufferWrapper@VChannelIndex@sass@@@2@XZ 1001c100 f i SwitchState.obj
 0002:0001a100       ?end@?$FixedCapacityContainerBase@V?$FixedCapacity1DBufferWrapper@VConnectionState@sass@@@sass@@@sass@@UBEPBV?$FixedCapacity1DBufferWrapper@VConnectionState@sass@@@2@XZ 1001c100 f i SwitchState.obj
 0002:0001a120       ?capacity@?$FixedCapacityContainerBase@V?$FixedCapacity1DBufferWrapper@VConnectionState@sass@@@sass@@@sass@@UBEIXZ 1001c120 f i SwitchState.obj
 0002:0001a120       ?capacity@?$FixedCapacityContainerBase@VRelayState@sass@@@sass@@UBEIXZ 1001c120 f i SwitchState.obj
 0002:0001a120       ?capacity@?$FixedCapacityContainerBase@V?$FixedCapacity1DBufferWrapper@VChannelIndex@sass@@@sass@@@sass@@UBEIXZ 1001c120 f i SwitchState.obj
 0002:0001a120       ?capacity@?$FixedCapacityContainerBase@VConnectionState@sass@@@sass@@UBEIXZ 1001c120 f i SwitchState.obj
 0002:0001a120       ?capacity@?$FixedCapacityContainerBase@VChannelState@sass@@@sass@@UBEIXZ 1001c120 f i SwitchState.obj
 0002:0001a120       ?capacity@?$FixedCapacityContainerBase@VChannelIndex@sass@@@sass@@UBEIXZ 1001c120 f i ChannelStateUpdater.obj
 0002:0001a130       ??4?$FixedCapacityContainerBase@V?$FixedCapacity1DBufferWrapper@VChannelIndex@sass@@@sass@@@sass@@UAEAAV01@ABV01@@Z 1001c130 f i SwitchState.obj
 0002:0001a2f0       ??9?$FixedCapacityContainerBase@VRelayState@sass@@@sass@@UBE_NABV01@@Z 1001c2f0 f i SwitchState.obj
 0002:0001a2f0       ??9?$FixedCapacityContainerBase@VChannelIndex@sass@@@sass@@UBE_NABV01@@Z 1001c2f0 f i ChannelStateUpdater.obj
 0002:0001a2f0       ??9?$FixedCapacityContainerBase@VChannelState@sass@@@sass@@UBE_NABV01@@Z 1001c2f0 f i SwitchState.obj
 0002:0001a2f0       ??9?$FixedCapacityContainerBase@VConnectionState@sass@@@sass@@UBE_NABV01@@Z 1001c2f0 f i SwitchState.obj
 0002:0001a2f0       ??9?$FixedCapacityContainerBase@V?$FixedCapacity1DBufferWrapper@VChannelIndex@sass@@@sass@@@sass@@UBE_NABV01@@Z 1001c2f0 f i SwitchState.obj
 0002:0001a2f0       ??9?$FixedCapacityContainerBase@V?$FixedCapacity1DBufferWrapper@VConnectionState@sass@@@sass@@@sass@@UBE_NABV01@@Z 1001c2f0 f i SwitchState.obj
 0002:0001a310       ?front@?$FixedCapacityContainerBase@V?$FixedCapacity1DBufferWrapper@VConnectionState@sass@@@sass@@@sass@@UAEAAV?$FixedCapacity1DBufferWrapper@VConnectionState@sass@@@2@XZ 1001c310 f i SwitchState.obj
 0002:0001a310       ?front@?$FixedCapacityContainerBase@VConnectionState@sass@@@sass@@UAEAAVConnectionState@2@XZ 1001c310 f i SwitchState.obj
 0002:0001a310       ?front@?$FixedCapacityContainerBase@VChannelState@sass@@@sass@@UAEAAVChannelState@2@XZ 1001c310 f i SwitchState.obj
 0002:0001a310       ?front@?$FixedCapacityContainerBase@VRelayState@sass@@@sass@@UAEAAVRelayState@2@XZ 1001c310 f i SwitchState.obj
 0002:0001a310       ?front@?$FixedCapacityContainerBase@V?$FixedCapacity1DBufferWrapper@VChannelIndex@sass@@@sass@@@sass@@UAEAAV?$FixedCapacity1DBufferWrapper@VChannelIndex@sass@@@2@XZ 1001c310 f i SwitchState.obj
 0002:0001a310       ?front@?$FixedCapacityContainerBase@VChannelIndex@sass@@@sass@@UAEAAVChannelIndex@2@XZ 1001c310 f i ChannelStateUpdater.obj
 0002:0001a320       ?empty@?$FixedCapacityContainerBase@VChannelState@sass@@@sass@@UBE_NXZ 1001c320 f i SwitchState.obj
 0002:0001a320       ?empty@?$FixedCapacityContainerBase@VChannelIndex@sass@@@sass@@UBE_NXZ 1001c320 f i ChannelStateUpdater.obj
 0002:0001a320       ?empty@?$FixedCapacityContainerBase@V?$FixedCapacity1DBufferWrapper@VConnectionState@sass@@@sass@@@sass@@UBE_NXZ 1001c320 f i SwitchState.obj
 0002:0001a320       ?empty@?$FixedCapacityContainerBase@V?$FixedCapacity1DBufferWrapper@VChannelIndex@sass@@@sass@@@sass@@UBE_NXZ 1001c320 f i SwitchState.obj
 0002:0001a320       ?empty@?$FixedCapacityContainerBase@VRelayState@sass@@@sass@@UBE_NXZ 1001c320 f i SwitchState.obj
 0002:0001a320       ?empty@?$FixedCapacityContainerBase@VConnectionState@sass@@@sass@@UBE_NXZ 1001c320 f i SwitchState.obj
 0002:0001a330       ?push_back@?$FixedCapacityContainerBase@V?$FixedCapacity1DBufferWrapper@VChannelIndex@sass@@@sass@@@sass@@UAEXABV?$FixedCapacity1DBufferWrapper@VChannelIndex@sass@@@2@@Z 1001c330 f i SwitchState.obj
 0002:0001a4c0       ?erase@?$FixedCapacityContainerBase@V?$FixedCapacity1DBufferWrapper@VChannelIndex@sass@@@sass@@@sass@@UAEXPAV?$FixedCapacity1DBufferWrapper@VChannelIndex@sass@@@2@@Z 1001c4c0 f i SwitchState.obj
 0002:0001a670       ??0?$FixedCapacity2DBufferWrapper@VChannelIndex@sass@@@sass@@QAE@PAXII@Z 1001c670 f i SwitchState.obj
 0002:0001a950       ?setSize@?$FixedCapacity2DBufferWrapper@VChannelIndex@sass@@@sass@@EAEXI@Z 1001c950 f i SwitchState.obj
 0002:0001a950       ?setSize@?$FixedCapacity2DBufferWrapper@VConnectionState@sass@@@sass@@EAEXI@Z 1001c950 f i SwitchState.obj
 0002:0001a960       ??_G?$FixedCapacityContainerBase@VRelayState@sass@@@sass@@UAEPAXI@Z 1001c960 f i SwitchState.obj
 0002:0001a960       ??_E?$FixedCapacityContainerBase@VRelayState@sass@@@sass@@UAEPAXI@Z 1001c960 f i  CIL library: CIL module
 0002:0001a960       ??_E?$FixedCapacity1DBufferWrapper@VRelayState@sass@@@sass@@UAEPAXI@Z 1001c960 f i  CIL library: CIL module
 0002:0001a960       ??_G?$FixedCapacity1DBufferWrapper@VRelayState@sass@@@sass@@UAEPAXI@Z 1001c960 f i SwitchState.obj
 0002:0001a990       ??_G?$FixedCapacity1DBufferWrapper@VChannelState@sass@@@sass@@UAEPAXI@Z 1001c990 f i SwitchState.obj
 0002:0001a990       ??_G?$FixedCapacityContainerBase@VChannelState@sass@@@sass@@UAEPAXI@Z 1001c990 f i SwitchState.obj
 0002:0001a990       ??_E?$FixedCapacity1DBufferWrapper@VChannelState@sass@@@sass@@UAEPAXI@Z 1001c990 f i  CIL library: CIL module
 0002:0001a990       ??_E?$FixedCapacityContainerBase@VChannelState@sass@@@sass@@UAEPAXI@Z 1001c990 f i  CIL library: CIL module
 0002:0001a9c0       ??_E?$FixedCapacityContainerBase@V?$FixedCapacity1DBufferWrapper@VConnectionState@sass@@@sass@@@sass@@UAEPAXI@Z 1001c9c0 f i  CIL library: CIL module
 0002:0001a9c0       ??_G?$FixedCapacityContainerBase@V?$FixedCapacity1DBufferWrapper@VConnectionState@sass@@@sass@@@sass@@UAEPAXI@Z 1001c9c0 f i SwitchState.obj
 0002:0001a9f0       ??_E?$FixedCapacity2DBufferWrapper@VConnectionState@sass@@@sass@@UAEPAXI@Z 1001c9f0 f i  CIL library: CIL module
 0002:0001a9f0       ??_G?$FixedCapacity2DBufferWrapper@VConnectionState@sass@@@sass@@UAEPAXI@Z 1001c9f0 f i SwitchState.obj
 0002:0001aa50       ??_G?$FixedCapacityContainerBase@V?$FixedCapacity1DBufferWrapper@VChannelIndex@sass@@@sass@@@sass@@UAEPAXI@Z 1001ca50 f i SwitchState.obj
 0002:0001aa50       ??_E?$FixedCapacityContainerBase@V?$FixedCapacity1DBufferWrapper@VChannelIndex@sass@@@sass@@@sass@@UAEPAXI@Z 1001ca50 f i  CIL library: CIL module
 0002:0001aa80       ??_G?$FixedCapacity2DBufferWrapper@VChannelIndex@sass@@@sass@@UAEPAXI@Z 1001ca80 f i SwitchState.obj
 0002:0001aa80       ??_E?$FixedCapacity2DBufferWrapper@VChannelIndex@sass@@@sass@@UAEPAXI@Z 1001ca80 f i  CIL library: CIL module
 0002:0001aae0       ?allocate@?$allocator@V?$FixedCapacity1DBufferWrapper@VChannelIndex@sass@@@sass@@@std@@QAEPAV?$FixedCapacity1DBufferWrapper@VChannelIndex@sass@@@sass@@I@Z 1001cae0 f i SwitchState.obj
 0002:0001aae0       ?allocate@?$allocator@V?$FixedCapacity1DBufferWrapper@VConnectionState@sass@@@sass@@@std@@QAEPAV?$FixedCapacity1DBufferWrapper@VConnectionState@sass@@@sass@@I@Z 1001cae0 f i SwitchState.obj
 0002:0001aae0       ?allocate@?$allocator@V?$tuple@_KV?$intrusive_ptr@VSession@slscsl@@@boost@@Ublank@2@Unull_type@tuples@2@U452@U452@U452@U452@U452@U452@@tuples@boost@@@std@@QAEPAV?$tuple@_KV?$intrusive_ptr@VSession@slscsl@@@boost@@Ublank@2@Unull_type@tuples@2@U452@U452@U452@U452@U452@U452@@tuples@boost@@I@Z 1001cae0 f i Session.obj
 0002:0001ab40       ?end@?$FixedCapacityContainerBase@VConnectionState@sass@@@sass@@UBEPBVConnectionState@2@XZ 1001cb40 f i SwitchState.obj
 0002:0001ab40       ?end@?$FixedCapacityContainerBase@VRelayState@sass@@@sass@@UBEPBVRelayState@2@XZ 1001cb40 f i SwitchState.obj
 0002:0001ab60       ?end@?$FixedCapacityContainerBase@VConnectionState@sass@@@sass@@UAEPAVConnectionState@2@XZ 1001cb60 f i SwitchState.obj
 0002:0001ab60       ?end@?$FixedCapacityContainerBase@VRelayState@sass@@@sass@@UAEPAVRelayState@2@XZ 1001cb60 f i SwitchState.obj
 0002:0001ab80       ??A?$FixedCapacityContainerBase@VConnectionState@sass@@@sass@@UBEABVConnectionState@1@I@Z 1001cb80 f i SwitchState.obj
 0002:0001ab80       ??A?$FixedCapacityContainerBase@VRelayState@sass@@@sass@@UBEABVRelayState@1@I@Z 1001cb80 f i SwitchState.obj
 0002:0001aba0       ??8?$FixedCapacityContainerBase@VConnectionState@sass@@@sass@@UBE_NABV01@@Z 1001cba0 f i SwitchState.obj
 0002:0001aba0       ??8?$FixedCapacityContainerBase@VRelayState@sass@@@sass@@UBE_NABV01@@Z 1001cba0 f i SwitchState.obj
 0002:0001ac30       ?back@?$FixedCapacityContainerBase@VConnectionState@sass@@@sass@@UBEABVConnectionState@2@XZ 1001cc30 f i SwitchState.obj
 0002:0001ac30       ?back@?$FixedCapacityContainerBase@VRelayState@sass@@@sass@@UBEABVRelayState@2@XZ 1001cc30 f i SwitchState.obj
 0002:0001ac40       ?push_back@?$FixedCapacityContainerBase@VRelayState@sass@@@sass@@UAEXABVRelayState@2@@Z 1001cc40 f i SwitchState.obj
 0002:0001ac40       ?push_back@?$FixedCapacityContainerBase@VConnectionState@sass@@@sass@@UAEXABVConnectionState@2@@Z 1001cc40 f i SwitchState.obj
 0002:0001add0       ?erase@?$FixedCapacityContainerBase@VConnectionState@sass@@@sass@@UAEXPAVConnectionState@2@@Z 1001cdd0 f i SwitchState.obj
 0002:0001add0       ?erase@?$FixedCapacityContainerBase@VRelayState@sass@@@sass@@UAEXPAVRelayState@2@@Z 1001cdd0 f i SwitchState.obj
 0002:0001af70       ??0?$FixedCapacity1DBufferWrapper@VConnectionState@sass@@@sass@@QAE@PAXI@Z 1001cf70 f i SwitchState.obj
 0002:0001b1f0       ??1?$FixedCapacity1DBufferWrapper@VConnectionState@sass@@@sass@@UAE@XZ 1001d1f0 f i SwitchState.obj
 0002:0001b1f0       ??1?$FixedCapacityContainerBase@VConnectionState@sass@@@sass@@UAE@XZ 1001d1f0 f i SwitchState.obj
 0002:0001b200       ?setSize@?$FixedCapacity1DBufferWrapper@VRelayState@sass@@@sass@@EAEXI@Z 1001d200 f i SwitchState.obj
 0002:0001b200       ?setSize@?$FixedCapacity1DBufferWrapper@VChannelIndex@sass@@@sass@@EAEXI@Z 1001d200 f i ChannelStateUpdater.obj
 0002:0001b200       ?setSize@?$FixedCapacity1DBufferWrapper@VChannelState@sass@@@sass@@EAEXI@Z 1001d200 f i SwitchState.obj
 0002:0001b200       ?setSize@?$FixedCapacity1DBufferWrapper@VConnectionState@sass@@@sass@@EAEXI@Z 1001d200 f i SwitchState.obj
 0002:0001b210       ??$copy@PBV?$FixedCapacity1DBufferWrapper@VConnectionState@sass@@@sass@@PAV12@@std@@YAPAV?$FixedCapacity1DBufferWrapper@VConnectionState@sass@@@sass@@PBV12@0PAV12@@Z 1001d210 f i SwitchState.obj
 0002:0001b250       ??$copy@PBV?$FixedCapacity1DBufferWrapper@VChannelIndex@sass@@@sass@@PAV12@@std@@YAPAV?$FixedCapacity1DBufferWrapper@VChannelIndex@sass@@@sass@@PBV12@0PAV12@@Z 1001d250 f i SwitchState.obj
 0002:0001b290       ??$equal@PBV?$FixedCapacity1DBufferWrapper@VChannelIndex@sass@@@sass@@PBV12@@std@@YA_NPBV?$FixedCapacity1DBufferWrapper@VChannelIndex@sass@@@sass@@00@Z 1001d290 f i SwitchState.obj
 0002:0001b290       ??$equal@PBV?$FixedCapacity1DBufferWrapper@VConnectionState@sass@@@sass@@PBV12@@std@@YA_NPBV?$FixedCapacity1DBufferWrapper@VConnectionState@sass@@@sass@@00@Z 1001d290 f i SwitchState.obj
 0002:0001b2d0       ?deleteArrayOf1DBufferWrappers@?$FixedCapacity2DBufferWrapper@VChannelIndex@sass@@@sass@@AAEXI@Z 1001d2d0 f i SwitchState.obj
 0002:0001b2d0       ?deleteArrayOf1DBufferWrappers@?$FixedCapacity2DBufferWrapper@VConnectionState@sass@@@sass@@AAEXI@Z 1001d2d0 f i SwitchState.obj
 0002:0001b320       ??_E?$FixedCapacityContainerBase@VConnectionState@sass@@@sass@@UAEPAXI@Z 1001d320 f i  CIL library: CIL module
 0002:0001b320       ??_G?$FixedCapacity1DBufferWrapper@VConnectionState@sass@@@sass@@UAEPAXI@Z 1001d320 f i SwitchState.obj
 0002:0001b320       ??_E?$FixedCapacity1DBufferWrapper@VConnectionState@sass@@@sass@@UAEPAXI@Z 1001d320 f i  CIL library: CIL module
 0002:0001b320       ??_G?$FixedCapacityContainerBase@VConnectionState@sass@@@sass@@UAEPAXI@Z 1001d320 f i SwitchState.obj
 0002:0001b350       ??$_Equal@PBVChannelState@sass@@PBV12@Uforward_iterator_tag@std@@@std@@YA_NPBVChannelState@sass@@00Uforward_iterator_tag@0@U_Range_checked_iterator_tag@0@@Z 1001d350 f i SwitchState.obj
 0002:0001b3d0       ?updateAndFilter@RelayStateUpdater@sass@@QAE?AV?$vector@VSwitchAction@sass@@V?$allocator@VSwitchAction@sass@@@std@@@std@@ABV34@@Z 1001d3d0 f   RelayStateUpdater.obj
 0002:0001b5b0       ??1PowerUsageTracker@sass@@QAE@XZ 1001d5b0 f i RelayStateUpdater.obj
 0002:0001b5d0       ?initialize@SwitchStateInitializer@sass@@SAXABV?$map@VDirectlyConnectableChannels@sass@@V?$set@IU?$less@I@std@@V?$allocator@I@2@@std@@U?$less@VDirectlyConnectableChannels@sass@@@4@V?$allocator@U?$pair@$$CBVDirectlyConnectableChannels@sass@@V?$set@IU?$less@I@std@@V?$allocator@I@2@@std@@@std@@@4@@std@@ABV?$basic_string@DU?$char_traits@D@std@@V?$allocator@D@2@@4@AAVSwitchState@2@@Z 1001d5d0 f   SwitchStateInitializer.obj
 0002:0001b600       ?initializeMembers@SwitchStateInitializer@sass@@CAXABV?$basic_string@DU?$char_traits@D@std@@V?$allocator@D@2@@std@@AAVSwitchState@2@@Z 1001d600 f   SwitchStateInitializer.obj
 0002:0001b7a0       ?initializePossibleConnections@SwitchStateInitializer@sass@@CAXABV?$map@VDirectlyConnectableChannels@sass@@V?$set@IU?$less@I@std@@V?$allocator@I@2@@std@@U?$less@VDirectlyConnectableChannels@sass@@@4@V?$allocator@U?$pair@$$CBVDirectlyConnectableChannels@sass@@V?$set@IU?$less@I@std@@V?$allocator@I@2@@std@@@std@@@4@@std@@AAVSwitchState@2@@Z 1001d7a0 f   SwitchStateInitializer.obj
 0002:0001b8a0       ?next_prime@bucket_array_base@detail@multi_index@boost@@KAII@Z 1001d8a0 f i NameIndexMap.obj
 0002:0001b8e0       ?what@bad_lexical_cast@boost@@UBEPBDXZ 1001d8e0 f i NameIndexMap.obj
 0002:0001b8f0       ??1bad_lexical_cast@boost@@UAE@XZ 1001d8f0 f i NameIndexMap.obj
 0002:0001b900       ??_Gbad_lexical_cast@boost@@UAEPAXI@Z 1001d900 f i NameIndexMap.obj
 0002:0001b900       ??_Ebad_lexical_cast@boost@@UAEPAXI@Z 1001d900 f i  CIL library: CIL module
 0002:0001b930       ??1NameIndexMap@sass@@UAE@XZ 1001d930 f   NameIndexMap.obj
 0002:0001b980       ??_GNameIndexMap@sass@@UAEPAXI@Z 1001d980 f i NameIndexMap.obj
 0002:0001b980       ??_ENameIndexMap@sass@@UAEPAXI@Z 1001d980 f i  CIL library: CIL module
 0002:0001b9e0       ??1?$bimap@U?$unordered_set_of@V?$basic_string@DU?$char_traits@D@std@@V?$allocator@D@2@@std@@U?$hash@V?$basic_string@DU?$char_traits@D@std@@V?$allocator@D@2@@std@@@boost@@U?$equal_to@V?$basic_string@DU?$char_traits@D@std@@V?$allocator@D@2@@std@@@2@@bimaps@boost@@U?$unordered_set_of@IU?$hash@I@boost@@U?$equal_to@I@std@@@23@Una@mpl@3@U563@U563@@bimaps@boost@@QAE@XZ 1001d9e0 f i NameIndexMap.obj
 0002:0001b9f0       ?getIndex@NameIndexMap@sass@@QBEIPBD@Z 1001d9f0 f   NameIndexMap.obj
 0002:0001be60       ?insert@NameIndexMap@sass@@AAEIPBD@Z 1001de60 f   NameIndexMap.obj
 0002:0001c2f0       ??1?$StringRange@UCaseInsensitiveComparison@atat@@@atat@@UAE@XZ 1001e2f0 f i NameIndexMap.obj
 0002:0001c340       ??1?$multi_index_container@V?$mutant_relation@U?$tagged@$$CBV?$basic_string@DU?$char_traits@D@std@@V?$allocator@D@2@@std@@Uleft@member_at@relation@bimaps@boost@@@tags@bimaps@boost@@U?$tagged@$$CBIUright@member_at@relation@bimaps@boost@@@234@Una@mpl@4@$00@relation@bimaps@boost@@Ucore_indices@?$bimap_core@U?$unordered_set_of@V?$basic_string@DU?$char_traits@D@std@@V?$allocator@D@2@@std@@U?$hash@V?$basic_string@DU?$char_traits@D@std@@V?$allocator@D@2@@std@@@boost@@U?$equal_to@V?$basic_string@DU?$char_traits@D@std@@V?$allocator@D@2@@std@@@2@@bimaps@boost@@U?$unordered_set_of@IU?$hash@I@boost@@U?$equal_to@I@std@@@23@Una@mpl@3@U563@U563@@detail@34@V?$allocator@V?$mutant_relation@U?$tagged@$$CBV?$basic_string@DU?$char_traits@D@std@@V?$allocator@D@2@@std@@Uleft@member_at@relation@bimaps@boost@@@tags@bimaps@boost@@U?$tagged@$$CBIUright@member_at@relation@bimaps@boost@@@234@Una@mpl@4@$00@relation@bimaps@boost@@@std@@@multi_index@boost@@QAE@XZ 1001e340 f i NameIndexMap.obj
 0002:0001c3b0       ??_G?$StringRange@UCaseInsensitiveComparison@atat@@@atat@@UAEPAXI@Z 1001e3b0 f i NameIndexMap.obj
 0002:0001c3b0       ??_E?$StringRange@UCaseInsensitiveComparison@atat@@@atat@@UAEPAXI@Z 1001e3b0 f i  CIL library: CIL module
 0002:0001c3e0       ??1?$hashed_index@U?$member@V?$relation_storage@U?$tagged@$$CBV?$basic_string@DU?$char_traits@D@std@@V?$allocator@D@2@@std@@Uleft@member_at@relation@bimaps@boost@@@tags@bimaps@boost@@U?$tagged@$$CBIUright@member_at@relation@bimaps@boost@@@234@$00@detail@relation@bimaps@boost@@I$0BM@@multi_index@boost@@U?$hash@I@3@U?$equal_to@I@std@@U?$nth_layer@$00V?$mutant_relation@U?$tagged@$$CBV?$basic_string@DU?$char_traits@D@std@@V?$allocator@D@2@@std@@Uleft@member_at@relation@bimaps@boost@@@tags@bimaps@boost@@U?$tagged@$$CBIUright@member_at@relation@bimaps@boost@@@234@Una@mpl@4@$00@relation@bimaps@boost@@Ucore_indices@?$bimap_core@U?$unordered_set_of@V?$basic_string@DU?$char_traits@D@std@@V?$allocator@D@2@@std@@U?$hash@V?$basic_string@DU?$char_traits@D@std@@V?$allocator@D@2@@std@@@boost@@U?$equal_to@V?$basic_string@DU?$char_traits@D@std@@V?$allocator@D@2@@std@@@2@@bimaps@boost@@U?$unordered_set_of@IU?$hash@I@boost@@U?$equal_to@I@std@@@23@Una@mpl@3@U563@U563@@detail@34@V?$allocator@V?$mutant_relation@U?$tagged@$$CBV?$basic_string@DU?$char_traits@D@std@@V?$allocator@D@2@@std@@Uleft@member_at@relation@bimaps@boost@@@tags@bimaps@boost@@U?$tagged@$$CBIUright@member_at@relation@bimaps@boost@@@234@Una@mpl@4@$00@relation@bimaps@boost@@@std@@@detail@23@U?$vector1@Uright@member_at@relation@bimaps@boost@@@mpl@3@Uhashed_unique_tag@823@@detail@multi_index@boost@@IAE@XZ 1001e3e0 f i NameIndexMap.obj
 0002:0001c410       ??1Data@?$flat_tree@V?$basic_string@DU?$char_traits@D@std@@V?$allocator@D@2@@std@@V12@U?$identity@V?$basic_string@DU?$char_traits@D@std@@V?$allocator@D@2@@std@@@container_detail@container@boost@@UCaseInsensitiveLess@atat@@V?$allocator@V?$basic_string@DU?$char_traits@D@std@@V?$allocator@D@2@@std@@@2@@container_detail@container@boost@@QAE@XZ 1001e410 f i NameIndexMap.obj
 0002:0001c450       ??1?$bucket_array@V?$allocator@V?$mutant_relation@U?$tagged@$$CBV?$basic_string@DU?$char_traits@D@std@@V?$allocator@D@2@@std@@Uleft@member_at@relation@bimaps@boost@@@tags@bimaps@boost@@U?$tagged@$$CBIUright@member_at@relation@bimaps@boost@@@234@Una@mpl@4@$00@relation@bimaps@boost@@@std@@@detail@multi_index@boost@@QAE@XZ 1001e450 f i NameIndexMap.obj
 0002:0001c470       ?delete_all_nodes_@?$hashed_index@U?$member@V?$relation_storage@U?$tagged@$$CBV?$basic_string@DU?$char_traits@D@std@@V?$allocator@D@2@@std@@Uleft@member_at@relation@bimaps@boost@@@tags@bimaps@boost@@U?$tagged@$$CBIUright@member_at@relation@bimaps@boost@@@234@$00@detail@relation@bimaps@boost@@I$0BM@@multi_index@boost@@U?$hash@I@3@U?$equal_to@I@std@@U?$nth_layer@$00V?$mutant_relation@U?$tagged@$$CBV?$basic_string@DU?$char_traits@D@std@@V?$allocator@D@2@@std@@Uleft@member_at@relation@bimaps@boost@@@tags@bimaps@boost@@U?$tagged@$$CBIUright@member_at@relation@bimaps@boost@@@234@Una@mpl@4@$00@relation@bimaps@boost@@Ucore_indices@?$bimap_core@U?$unordered_set_of@V?$basic_string@DU?$char_traits@D@std@@V?$allocator@D@2@@std@@U?$hash@V?$basic_string@DU?$char_traits@D@std@@V?$allocator@D@2@@std@@@boost@@U?$equal_to@V?$basic_string@DU?$char_traits@D@std@@V?$allocator@D@2@@std@@@2@@bimaps@boost@@U?$unordered_set_of@IU?$hash@I@boost@@U?$equal_to@I@std@@@23@Una@mpl@3@U563@U563@@detail@34@V?$allocator@V?$mutant_relation@U?$tagged@$$CBV?$basic_string@DU?$char_traits@D@std@@V?$allocator@D@2@@std@@Uleft@member_at@relation@bimaps@boost@@@tags@bimaps@boost@@U?$tagged@$$CBIUright@member_at@relation@bimaps@boost@@@234@Una@mpl@4@$00@relation@bimaps@boost@@@std@@@detail@23@U?$vector1@Uright@member_at@relation@bimaps@boost@@@mpl@3@Uhashed_unique_tag@823@@detail@multi_index@boost@@IAEXXZ 1001e470 f i NameIndexMap.obj
 0002:0001c4d0       ??1?$hashed_index@U?$member@V?$relation_storage@U?$tagged@$$CBV?$basic_string@DU?$char_traits@D@std@@V?$allocator@D@2@@std@@Uleft@member_at@relation@bimaps@boost@@@tags@bimaps@boost@@U?$tagged@$$CBIUright@member_at@relation@bimaps@boost@@@234@$00@detail@relation@bimaps@boost@@V?$basic_string@DU?$char_traits@D@std@@V?$allocator@D@2@@std@@$0A@@multi_index@boost@@U?$hash@V?$basic_string@DU?$char_traits@D@std@@V?$allocator@D@2@@std@@@3@U?$equal_to@V?$basic_string@DU?$char_traits@D@std@@V?$allocator@D@2@@std@@@std@@U?$nth_layer@$01V?$mutant_relation@U?$tagged@$$CBV?$basic_string@DU?$char_traits@D@std@@V?$allocator@D@2@@std@@Uleft@member_at@relation@bimaps@boost@@@tags@bimaps@boost@@U?$tagged@$$CBIUright@member_at@relation@bimaps@boost@@@234@Una@mpl@4@$00@relation@bimaps@boost@@Ucore_indices@?$bimap_core@U?$unordered_set_of@V?$basic_string@DU?$char_traits@D@std@@V?$allocator@D@2@@std@@U?$hash@V?$basic_string@DU?$char_traits@D@std@@V?$allocator@D@2@@std@@@boost@@U?$equal_to@V?$basic_string@DU?$char_traits@D@std@@V?$allocator@D@2@@std@@@2@@bimaps@boost@@U?$unordered_set_of@IU?$hash@I@boost@@U?$equal_to@I@std@@@23@Una@mpl@3@U563@U563@@detail@34@V?$allocator@V?$mutant_relation@U?$tagged@$$CBV?$basic_string@DU?$char_traits@D@std@@V?$allocator@D@2@@std@@Uleft@member_at@relation@bimaps@boost@@@tags@bimaps@boost@@U?$tagged@$$CBIUright@member_at@relation@bimaps@boost@@@234@Una@mpl@4@$00@relation@bimaps@boost@@@std@@@detail@23@U?$vector1@Uleft@member_at@relation@bimaps@boost@@@mpl@3@Uhashed_unique_tag@823@@detail@multi_index@boost@@IAE@XZ 1001e4d0 f i NameIndexMap.obj
 0002:0001c4f0       ??1?$Range@V?$basic_string@DU?$char_traits@D@std@@V?$allocator@D@2@@std@@@atat@@UAE@XZ 1001e4f0 f i NameIndexMap.obj
 0002:0001c500       ?coerce@?$StringRange@UCaseInsensitiveComparison@atat@@@atat@@UBE?AV?$basic_string@DU?$char_traits@D@std@@V?$allocator@D@2@@std@@ABV34@@Z 1001e500 f i NameIndexMap.obj
 0002:0001c6e0       ?equalTo@?$StringRange@UCaseInsensitiveComparison@atat@@@atat@@UBE_NABV?$basic_string@DU?$char_traits@D@std@@V?$allocator@D@2@@std@@0@Z 1001e6e0 f i NameIndexMap.obj
 0002:0001c700       ??$find@V?$basic_string@DU?$char_traits@D@std@@V?$allocator@D@2@@std@@@?$associative_container_adaptor@V?$hashed_index@U?$member@V?$relation_storage@U?$tagged@$$CBV?$basic_string@DU?$char_traits@D@std@@V?$allocator@D@2@@stdf083c7f4bc9a5bbab0594fd0168e7ba2 1001e700 f i NameIndexMap.obj
 0002:0001c770       ??$use_facet@V?$numpunct@D@std@@@std@@YAABV?$numpunct@D@0@ABVlocale@0@@Z 1001e770 f i NameIndexMap.obj
 0002:0001c840       ??$destroy_alloc_n@V?$allocator@V?$basic_string@DU?$char_traits@D@std@@V?$allocator@D@2@@std@@@std@@PAV?$basic_string@DU?$char_traits@D@std@@V?$allocator@D@2@@2@@container@boost@@YAXAAV?$allocator@V?$basic_string@DU?$char_traits@D@std@@V?$allocator@D@2@@std@@@std@@PAV?$basic_string@DU?$char_traits@D@std@@V?$allocator@D@2@@3@HPAX@Z 1001e840 f i NameIndexMap.obj
 0002:0001c870       ??$insert_@Ulvalue_tag@detail@multi_index@boost@@@?$multi_index_container@V?$mutant_relation@U?$tagged@$$CBV?$basic_string@DU?$char_traits@D@std@@V?$allocator@D@2@@std@@Uleft@member_at@relation@bimaps@boost@@@tags@bimaps@boost@@U?$tagged@$$CBIUright@member_at@relation@bimaps@boost@@@234@Una@mpl@4@$00@relation@bimaps@boost@@Ucore_indices@?$bimap_core@U?$unordered_set_of@V?$basic_string@DU?$char_traits@D@std@@V?$allocator@D@2@@std@@U?$hash@V?$basic_string@DU?$char_traits@D@std@@V?$allocator@D@2@@std@@@boost@@U?$equal_to@V?$basic_string@DU?$char_traits@D@std@@V?$allocator@D@2@@std@@@2@@bimaps@boost@@U?$unordered_set_of@IU?$hash@I@boost@@U?$equal_to@I@std@@@23@Una@mpl@3@U563@U563@@detail@34@V?$allocator@V?$mutant_relation@U?$tagged@$$CBV?$basic_string@DU?$char_traits@D@std@@V?$allocator@D@2@@std@@Uleft@member_at@relation@bimaps@boost@@@tags@bimaps@boost@@U?$tagged@$$CBIUright@member_at@relation@bimaps@boost@@@234@Una@mpl@4@$00@relation@bimaps@boost@@@std@@@multi_index@boost@@IAE?AU?$pair@PAU?$hashed_index_node@U?$hashed_index_node@U?$index_node_base@V?$mutant_relation@U?$tagged@$$CBV?$basic_string@DU?$char_traits@D@std@@V?$allocator@D@2@@std@@Uleft@member_at@relation@bimaps@boost@@@tags@bimaps@boost@@U?$tagged@$$CBIUright@member_at@relation@bimaps@boost@@@234@Una@mpl@4@$00@relation@bimaps@boost@@V?$allocator@V?$mutant_relation@U?$tagged@$$CBV?$basic_string@DU?$char_traits@D@std@@V?$allocator@D@2@@std@@Uleft@member_at@relation@bimaps@boost@@@tags@bimaps@boost@@U?$tagged@$$CBIUright@member_at@relation@bimaps@boost@@@234@Una@mpl@4@$00@relation@bimaps@boost@@@std@@@detail@multi_index@boost@@@detail@multi_index@boost@@@detail@multi_index@boost@@_N@std@@ABV?$mutant_relation@U?$tagged@$$CBV?$basic_string@DU?$char_traits@D@std@@V?$allocator@D@2@@std@@Uleft@member_at@relation@bimaps@boost@@@tags@bimaps@boost@@U?$tagged@$$CBIUright@member_at@relation@bimaps@boost@@@234@Una@mpl@4@$00@relation@bimaps@2@Ulvalue_tag@detail@12@@Z 1001e870 f i NameIndexMap.obj
 0002:0001c910       ??_E?$Range@V?$basic_string@DU?$char_traits@D@std@@V?$allocator@D@2@@std@@@atat@@UAEPAXI@Z 1001e910 f i  CIL library: CIL module
 0002:0001c910       ??_G?$Range@V?$basic_string@DU?$char_traits@D@std@@V?$allocator@D@2@@std@@@atat@@UAEPAXI@Z 1001e910 f i NameIndexMap.obj
 0002:0001c940       ??R?$key_to_base_identity@V?$basic_string@DU?$char_traits@D@std@@V?$allocator@D@2@@std@@$$CBV12@@detail@container_adaptor@bimaps@boost@@QBE?AV?$basic_string@DU?$char_traits@D@std@@V?$allocator@D@2@@std@@ABV56@@Z 1001e940 f i NameIndexMap.obj
 0002:0001c960       ??$hash_range@V?$_String_const_iterator@DU?$char_traits@D@std@@V?$allocator@D@2@@std@@@boost@@YAIV?$_String_const_iterator@DU?$char_traits@D@std@@V?$allocator@D@2@@std@@0@Z 1001e960 f i NameIndexMap.obj
 0002:0001ca10       ??$?6U?$ValueIter@V?$vec_iterator@PAV?$basic_string@DU?$char_traits@D@std@@V?$allocator@D@2@@std@@$00@container_detail@container@boost@@@nimxl@@@nimxl@@YAAAV?$ArrayInserter@V?$ObjectInserter@V?$ObjectInserter@VInserterBase@jsonz@@@jsonz@@@jsonz@@@jsonz@@AAV12@ABU?$Usage@U?$ValueIter@V?$vec_iterator@PAV?$basic_string@DU?$char_traits@D@std@@V?$allocator@D@2@@std@@$00@container_detail@container@boost@@@nimxl@@@0@@Z 1001ea10 f i NameIndexMap.obj
 0002:0001cad0       ??$insert_@Ulvalue_tag@detail@multi_index@boost@@@?$hashed_index@U?$member@V?$relation_storage@U?$tagged@$$CBV?$basic_string@DU?$char_traits@D@std@@V?$allocator@D@2@@std@@Uleft@member_at@relation@bimaps@boost@@@tags@bimaps@boost@@U?$tagged@$$CBIUright@member_at@relation@bimaps@boost@@@234@$00@detail@relation@bimaps@boost@@I$0BM@@multi_index@boost@@U?$hash@I@3@U?$equal_to@I@std@@U?$nth_layer@$00V?$mutant_relation@U?$tagged@$$CBV?$basic_string@DU?$char_traits@D@std@@V?$allocator@D@2@@std@@Uleft@member_at@relation@bimaps@boost@@@tags@bimaps@boost@@U?$tagged@$$CBIUright@member_at@relation@bimaps@boost@@@234@Una@mpl@4@$00@relation@bimaps@boost@@Ucore_indices@?$bimap_core@U?$unordered_set_of@V?$basic_string@DU?$char_traits@D@std@@V?$allocator@D@2@@std@@U?$hash@V?$basic_string@DU?$char_traits@D@std@@V?$allocator@D@2@@std@@@boost@@U?$equal_to@V?$basic_string@DU?$char_traits@D@std@@V?$allocator@D@2@@std@@@2@@bimaps@boost@@U?$unordered_set_of@IU?$hash@I@boost@@U?$equal_to@I@std@@@23@Una@mpl@3@U563@U563@@detail@34@V?$allocator@V?$mutant_relation@U?$tagged@$$CBV?$basic_string@DU?$char_traits@D@std@@V?$allocator@D@2@@std@@Uleft@member_at@relation@bimaps@boost@@@tags@bimaps@boost@@U?$tagged@$$CBIUright@member_at@relation@bimaps@boost@@@234@Una@mpl@4@$00@relation@bimaps@boost@@@std@@@detail@23@U?$vector1@Uright@member_at@relation@bimaps@boost@@@mpl@3@Uhashed_unique_tag@823@@detail@multi_index@boost@@IAEPAU?$hashed_index_node@U?$hashed_index_node@U?$index_node_base@V?$mutant_relation@U?$tagged@$$CBV?$basic_string@DU?$char_traits@D@std@@V?$allocator@D@2@@std@@Uleft@member_at@relation@bimaps@boost@@@tags@bimaps@boost@@U?$tagged@$$CBIUright@member_at@relation@bimaps@boost@@@234@Una@mpl@4@$00@relation@bimaps@boost@@V?$allocator@V?$mutant_relation@U?$tagged@$$CBV?$basic_string@DU?$char_traits@D@std@@V?$allocator@D@2@@std@@Uleft@member_at@relation@bimaps@boost@@@tags@bimaps@boost@@U?$tagged@$$CBIUright@member_at@relation@bimaps@boost@@@234@Una@mpl@4@$00@relation@bimaps@boost@@@std@@@detail@multi_index@boost@@@detail@multi_index@boost@@@123@ABV?$mutant_relation@U?$tagged@$$CBV?$basic_string@DU?$char_traits@D@std@@V?$allocator@D@2@@std@@Uleft@member_at@relation@bimaps@boost@@@tags@bimaps@boost@@U?$tagged@$$CBIUright@member_at@relation@bimaps@boost@@@234@Una@mpl@4@$00@relation@bimaps@3@PAU4123@Ulvalue_tag@123@@Z 1001ead0 f i NameIndexMap.obj
 0002:0001cb80       ??$throw_exception@Vbad_lexical_cast@boost@@@boost@@YAXABVbad_lexical_cast@0@@Z 1001eb80 f i NameIndexMap.obj
 0002:0001cbd0       ??$_Allocate@U?$hashed_index_node@U?$hashed_index_node@U?$index_node_base@V?$mutant_relation@U?$tagged@$$CBV?$basic_string@DU?$char_traits@D@std@@V?$allocator@D@2@@std@@Uleft@member_at@relation@bimaps@boost@@@tags@bimaps@boost@@U?$tagged@$$CBIUright@member_at@relation@bimaps@boost@@@234@Una@mpl@4@$00@relation@bimaps@boost@@V?$allocator@V?$mutant_relation@U?$tagged@$$CBV?$basic_string@DU?$char_traits@D@std@@V?$allocator@D@2@@std@@Uleft@member_at@relation@bimaps@boost@@@tags@bimaps@boost@@U?$tagged@$$CBIUright@member_at@relation@bimaps@boost@@@234@Una@mpl@4@$00@relation@bimaps@boost@@@std@@@detail@multi_index@boost@@@detail@multi_index@boost@@@detail@multi_index@boost@@@std@@YAPAU?$hashed_index_node@U?$hashed_index_node@U?$index_node_base@V?$mutant_relation@U?$tagged@$$CBV?$basic_string@DU?$char_traits@D@std@@V?$allocator@D@2@@std@@Uleft@member_at@relation@bimaps@boost@@@tags@bimaps@boost@@U?$tagged@$$CBIUright@member_at@relation@bimaps@boost@@@234@Una@mpl@4@$00@relation@bimaps@boost@@V?$allocator@V?$mutant_relation@U?$tagged@$$CBV?$basic_string@DU?$char_traits@D@std@@V?$allocator@D@2@@std@@Uleft@member_at@relation@bimaps@boost@@@tags@bimaps@boost@@U?$tagged@$$CBIUright@member_at@relation@bimaps@boost@@@234@Una@mpl@4@$00@relation@bimaps@boost@@@std@@@detail@multi_index@boost@@@detail@multi_index@boost@@@detail@multi_index@boost@@IPAU1234@@Z 1001ebd0 f i NameIndexMap.obj
 0002:0001cc30       ??$priv_lower_bound@V?$vec_iterator@PAV?$basic_string@DU?$char_traits@D@std@@V?$allocator@D@2@@std@@$00@container_detail@container@boost@@@?$flat_tree@V?$basic_string@DU?$char_traits@D@std@@V?$allocator@D@2@@std@@V12@U?$identity@V?$basic_string@DU?$char_traits@D@std@@V?$allocator@D@2@@std@@@container_detail@container@boost@@UCaseInsensitiveLess@atat@@V?$allocator@V?$basic_string@DU?$char_traits@D@std@@V?$allocator@D@2@@std@@@2@@container_detail@container@boost@@ABE?AV?$vec_iterator@PAV?$basic_string@DU?$char_traits@D@std@@V?$allocator@D@2@@std@@$00@123@V4123@0ABV?$basic_string@DU?$char_traits@D@std@@V?$allocator@D@2@@std@@@Z 1001ec30 f i NameIndexMap.obj
 0002:0001cd10       ??_D?$clone_impl@U?$error_info_injector@Vbad_lexical_cast@boost@@@exception_detail@boost@@@exception_detail@boost@@QAEXXZ 1001ed10 f i NameIndexMap.obj
 0002:0001cd30       ??0?$clone_impl@U?$error_info_injector@Vbad_lexical_cast@boost@@@exception_detail@boost@@@exception_detail@boost@@QAE@ABV012@@Z 1001ed30 f i NameIndexMap.obj
 0002:0001cdd0       ??0?$error_info_injector@Vbad_lexical_cast@boost@@@exception_detail@boost@@QAE@ABU012@@Z 1001edd0 f i NameIndexMap.obj
 0002:0001ce60       ??0bad_lexical_cast@boost@@QAE@ABV01@@Z 1001ee60 f i NameIndexMap.obj
 0002:0001ce90       ??_E?$clone_impl@U?$error_info_injector@Vbad_lexical_cast@boost@@@exception_detail@boost@@@exception_detail@boost@@UAEPAXI@Z 1001ee90 f i  CIL library: CIL module
 0002:0001ce90       ??_G?$clone_impl@U?$error_info_injector@Vbad_lexical_cast@boost@@@exception_detail@boost@@@exception_detail@boost@@UAEPAXI@Z 1001ee90 f i NameIndexMap.obj
 0002:0001cec0       ??_G?$error_info_injector@Vbad_lexical_cast@boost@@@exception_detail@boost@@UAEPAXI@Z 1001eec0 f i NameIndexMap.obj
 0002:0001cec0       ??_E?$error_info_injector@Vbad_lexical_cast@boost@@@exception_detail@boost@@UAEPAXI@Z 1001eec0 f i  CIL library: CIL module
 0002:0001cf20       ?reserve@?$hashed_index@U?$member@V?$relation_storage@U?$tagged@$$CBV?$basic_string@DU?$char_traits@D@std@@V?$allocator@D@2@@std@@Uleft@member_at@relation@bimaps@boost@@@tags@bimaps@boost@@U?$tagged@$$CBIUright@member_at@relation@bimaps@boost@@@234@$00@detail@relation@bimaps@boost@@I$0BM@@multi_index@boost@@U?$hash@I@3@U?$equal_to@I@std@@U?$nth_layer@$00V?$mutant_relation@U?$tagged@$$CBV?$basic_string@DU?$char_traits@D@std@@V?$allocator@D@2@@std@@Uleft@member_at@relation@bimaps@boost@@@tags@bimaps@boost@@U?$tagged@$$CBIUright@member_at@relation@bimaps@boost@@@234@Una@mpl@4@$00@relation@bimaps@boost@@Ucore_indices@?$bimap_core@U?$unordered_set_of@V?$basic_string@DU?$char_traits@D@std@@V?$allocator@D@2@@std@@U?$hash@V?$basic_string@DU?$char_traits@D@std@@V?$allocator@D@2@@std@@@boost@@U?$equal_to@V?$basic_string@DU?$char_traits@D@std@@V?$allocator@D@2@@std@@@2@@bimaps@boost@@U?$unordered_set_of@IU?$hash@I@boost@@U?$equal_to@I@std@@@23@Una@mpl@3@U563@U563@@detail@34@V?$allocator@V?$mutant_relation@U?$tagged@$$CBV?$basic_string@DU?$char_traits@D@std@@V?$allocator@D@2@@std@@Uleft@member_at@relation@bimaps@boost@@@tags@bimaps@boost@@U?$tagged@$$CBIUright@member_at@relation@bimaps@boost@@@234@Una@mpl@4@$00@relation@bimaps@boost@@@std@@@detail@23@U?$vector1@Uright@member_at@relation@bimaps@boost@@@mpl@3@Uhashed_unique_tag@823@@detail@multi_index@boost@@AAEXI@Z 1001ef20 f i NameIndexMap.obj
 0002:0001cf90       ??1?$error_info_injector@Vbad_lexical_cast@boost@@@exception_detail@boost@@UAE@XZ 1001ef90 f i NameIndexMap.obj
 0002:0001cfd0       ??1?$clone_impl@U?$error_info_injector@Vbad_lexical_cast@boost@@@exception_detail@boost@@@exception_detail@boost@@UAE@XZ 1001efd0 f i NameIndexMap.obj
 0002:0001d040       ?clone@?$clone_impl@U?$error_info_injector@Vbad_lexical_cast@boost@@@exception_detail@boost@@@exception_detail@boost@@EBEPBVclone_base@23@XZ 1001f040 f i NameIndexMap.obj
 0002:0001d0c0       ?rethrow@?$clone_impl@U?$error_info_injector@Vbad_lexical_cast@boost@@@exception_detail@boost@@@exception_detail@boost@@EBEXXZ 1001f0c0 f i NameIndexMap.obj
 0002:0001d0f0       ?unchecked_rehash@?$hashed_index@U?$member@V?$relation_storage@U?$tagged@$$CBV?$basic_string@DU?$char_traits@D@std@@V?$allocator@D@2@@std@@Uleft@member_at@relation@bimaps@boost@@@tags@bimaps@boost@@U?$tagged@$$CBIUright@member_at@relation@bimaps@boost@@@234@$00@detail@relation@bimaps@boost@@I$0BM@@multi_index@boost@@U?$hash@I@3@U?$equal_to@I@std@@U?$nth_layer@$00V?$mutant_relation@U?$tagged@$$CBV?$basic_string@DU?$char_traits@D@std@@V?$allocator@D@2@@std@@Uleft@member_at@relation@bimaps@boost@@@tags@bimaps@boost@@U?$tagged@$$CBIUright@member_at@relation@bimaps@boost@@@234@Una@mpl@4@$00@relation@bimaps@boost@@Ucore_indices@?$bimap_core@U?$unordered_set_of@V?$basic_string@DU?$char_traits@D@std@@V?$allocator@D@2@@std@@U?$hash@V?$basic_string@DU?$char_traits@D@std@@V?$allocator@D@2@@std@@@boost@@U?$equal_to@V?$basic_string@DU?$char_traits@D@std@@V?$allocator@D@2@@std@@@2@@bimaps@boost@@U?$unordered_set_of@IU?$hash@I@boost@@U?$equal_to@I@std@@@23@Una@mpl@3@U563@U563@@detail@34@V?$allocator@V?$mutant_relation@U?$tagged@$$CBV?$basic_string@DU?$char_traits@D@std@@V?$allocator@D@2@@std@@Uleft@member_at@relation@bimaps@boost@@@tags@bimaps@boost@@U?$tagged@$$CBIUright@member_at@relation@bimaps@boost@@@234@Una@mpl@4@$00@relation@bimaps@boost@@@std@@@detail@23@U?$vector1@Uright@member_at@relation@bimaps@boost@@@mpl@3@Uhashed_unique_tag@823@@detail@multi_index@boost@@AAEXI@Z 1001f0f0 f i NameIndexMap.obj
 0002:0001d2f0       ??0?$clone_impl@U?$error_info_injector@Vbad_lexical_cast@boost@@@exception_detail@boost@@@exception_detail@boost@@AAE@ABV012@Uclone_tag@012@@Z 1001f2f0 f i NameIndexMap.obj
 0002:0001d390       ?calculate_max_load@?$hashed_index@U?$member@V?$relation_storage@U?$tagged@$$CBV?$basic_string@DU?$char_traits@D@std@@V?$allocator@D@2@@std@@Uleft@member_at@relation@bimaps@boost@@@tags@bimaps@boost@@U?$tagged@$$CBIUright@member_at@relation@bimaps@boost@@@234@$00@detail@relation@bimaps@boost@@I$0BM@@multi_index@boost@@U?$hash@I@3@U?$equal_to@I@std@@U?$nth_layer@$00V?$mutant_relation@U?$tagged@$$CBV?$basic_string@DU?$char_traits@D@std@@V?$allocator@D@2@@std@@Uleft@member_at@relation@bimaps@boost@@@tags@bimaps@boost@@U?$tagged@$$CBIUright@member_at@relation@bimaps@boost@@@234@Una@mpl@4@$00@relation@bimaps@boost@@Ucore_indices@?$bimap_core@U?$unordered_set_of@V?$basic_string@DU?$char_traits@D@std@@V?$allocator@D@2@@std@@U?$hash@V?$basic_string@DU?$char_traits@D@std@@V?$allocator@D@2@@std@@@boost@@U?$equal_to@V?$basic_string@DU?$char_traits@D@std@@V?$allocator@D@2@@std@@@2@@bimaps@boost@@U?$unordered_set_of@IU?$hash@I@boost@@U?$equal_to@I@std@@@23@Una@mpl@3@U563@U563@@detail@34@V?$allocator@V?$mutant_relation@U?$tagged@$$CBV?$basic_string@DU?$char_traits@D@std@@V?$allocator@D@2@@std@@Uleft@member_at@relation@bimaps@boost@@@tags@bimaps@boost@@U?$tagged@$$CBIUright@member_at@relation@bimaps@boost@@@234@Una@mpl@4@$00@relation@bimaps@boost@@@std@@@detail@23@U?$vector1@Uright@member_at@relation@bimaps@boost@@@mpl@3@Uhashed_unique_tag@823@@detail@multi_index@boost@@AAEXXZ 1001f390 f i NameIndexMap.obj
 0002:0001d3f0       ??1?$auto_space@IV?$allocator@V?$mutant_relation@U?$tagged@$$CBV?$basic_string@DU?$char_traits@D@std@@V?$allocator@D@2@@std@@Uleft@member_at@relation@bimaps@boost@@@tags@bimaps@boost@@U?$tagged@$$CBIUright@member_at@relation@bimaps@boost@@@234@Una@mpl@4@$00@relation@bimaps@boost@@@std@@@detail@multi_index@boost@@QAE@XZ 1001f3f0 f i NameIndexMap.obj
 0002:0001d410       ??$insertValue_@V?$vec_iterator@PAV?$basic_string@DU?$char_traits@D@std@@V?$allocator@D@2@@std@@$00@container_detail@container@boost@@@nimxl@@YAAAV?$ObjectInserter@V?$ArrayInserter@V?$ObjectInserter@V?$ObjectInserter@VInserterBase@jsonz@@@jsonz@@@jsonz@@@jsonz@@@jsonz@@AAV12@ABU?$ValueIter@V?$vec_iterator@PAV?$basic_string@DU?$char_traits@D@std@@V?$allocator@D@2@@std@@$00@container_detail@container@boost@@@0@@Z 1001f410 f i NameIndexMap.obj
 0002:0001d520       ??$insertValueType_@V?$ObjectInserter@V?$ArrayInserter@V?$ObjectInserter@V?$ObjectInserter@VInserterBase@jsonz@@@jsonz@@@jsonz@@@jsonz@@@jsonz@@V?$vec_iterator@PAV?$basic_string@DU?$char_traits@D@std@@V?$allocator@D@2@@std@@$00@container_detail@container@boost@@@nimxl@@YAAAV?$ObjectInserter@V?$ArrayInserter@V?$ObjectInserter@V?$ObjectInserter@VInserterBase@jsonz@@@jsonz@@@jsonz@@@jsonz@@@jsonz@@AAV12@ABU?$ValueIter@V?$vec_iterator@PAV?$basic_string@DU?$char_traits@D@std@@V?$allocator@D@2@@std@@$00@container_detail@container@boost@@@0@@Z 1001f520 f i NameIndexMap.obj
 0002:0001d590       ??$find@V?$basic_string@DU?$char_traits@D@std@@V?$allocator@D@2@@std@@U?$hash@V?$basic_string@DU?$char_traits@D@std@@V?$allocator@D@2@@std@@@boost@@U?$equal_to@V?$basic_string@DU?$char_traits@D@std@@V?$allocator@D@2@@std@@@2@@?$hashed_index@U?$member@V?$relation_storage@U?$tagged@$$CBV?$basic_string@DU?$char_traits@D@std@@V?$allocator@D@2@@std@@Uleft@member_at@relation@bimaps@boost@@@tags@bimaps@boost@@U?$tagged@$$CBIUright@member_at@relation@bimaps@boost@@@234@$00@detail@relation@bimaps@boost@@V?$basic_string@DU?$char_traits@D@std@@V?$allocator@D@2@@std@@$0A@@multi_index@boost@@U?$hash@V?$basic_string@DU?$char_traits@D@std@@V?$allocator@D@2@@std@@@3@U?$equal_to@V?$basic_string@DU?$char_traits@D@std@@V?$allocator@D@2@@std@@@std@@U?$nth_layer@$01V?$mutant_relation@U?$tagged@$$CBV?$basic_string@DU?$char_traits@D@std@@V?$allocator@D@2@@std@@Uleft@member_at@relation@bimaps@boost@@@tags@bimaps@boost@@U?$tagged@$$CBIUright@member_at@relation@bimaps@boost@@@234@Una@mpl@4@$00@relation@bimaps@boost@@Ucore_indices@?$bimap_core@U?$unordered_set_of@V?$basic_string@DU?$char_traits@D@std@@V?$allocator@D@2@@std@@U?$hash@V?$basic_string@DU?$char_traits@D@std@@V?$allocator@D@2@@std@@@boost@@U?$equal_to@V?$basic_string@DU?$char_traits@D@std@@V?$allocator@D@2@@std@@@2@@bimaps@boost@@U?$unordered_set_of@IU?$hash@I@boost@@U?$equal_to@I@std@@@23@Una@mpl@3@U563@U563@@detail@34@V?$allocator@V?$mutant_relation@U?$tagged@$$CBV?$basic_string@DU?$char_traits@D@std@@V?$allocator@D@2@@std@@Uleft@member_at@relation@bimaps@boost@@@tags@bimaps@boost@@U?$tagged@$$CBIUright@member_at@relation@bimaps@boost@@@234@Una@mpl@4@$00@relation@bimaps@boost@@@std@@@detail@23@U?$vector1@Uleft@member_at@relation@bimaps@boost@@@mpl@3@Uhashed_unique_tag@823@@detail@multi_index@boost@@QBE?AV?$hashed_index_iterator@U?$hashed_index_node@U?$index_node_base@V?$mutant_relation@U?$tagged@$$CBV?$basic_string@DU?$char_traits@D@std@@V?$allocator@D@2@@std@@Uleft@member_at@relation@bimaps@boost@@@tags@bimaps@boost@@U?$tagged@$$CBIUright@member_at@relation@bimaps@boost@@@234@Una@mpl@4@$00@relation@bimaps@boost@@V?$allocator@V?$mutant_relation@U?$tagged@$$CBV?$basic_string@DU?$char_traits@D@std@@V?$allocator@D@2@@std@@Uleft@member_at@relation@bimaps@boost@@@tags@bimaps@boost@@U?$tagged@$$CBIUright@member_at@relation@bimaps@boost@@@234@Una@mpl@4@$00@relation@bimaps@boost@@@std@@@detail@multi_index@boost@@@detail@multi_index@boost@@V?$bucket_array@V?$allocator@V?$mutant_relation@U?$tagged@$$CBV?$basic_string@DU?$char_traits@D@std@@V?$allocator@D@2@@std@@Uleft@member_at@relation@bimaps@boost@@@tags@bimaps@boost@@U?$tagged@$$CBIUright@member_at@relation@bimaps@boost@@@234@Una@mpl@4@$00@relation@bimaps@boost@@@std@@@234@@123@ABV?$basic_string@DU?$char_traits@D@std@@V?$allocator@D@2@@std@@ABU?$hash@V?$basic_string@DU?$char_traits@D@std@@V?$allocator@D@2@@std@@@3@ABU?$equal_to@V?$basic_string@DU?$char_traits@D@std@@V?$allocator@D@2@@std@@@6@@Z 1001f590 f i NameIndexMap.obj
 0002:0001d650       ??$insert_@Ulvalue_tag@detail@multi_index@boost@@@?$hashed_index@U?$member@V?$relation_storage@U?$tagged@$$CBV?$basic_string@DU?$char_traits@D@std@@V?$allocator@D@2@@std@@Uleft@member_at@relation@bimaps@boost@@@tags@bimaps@boost@@U?$tagged@$$CBIUright@member_at@relation@bimaps@boost@@@234@$00@detail@relation@bimaps@boost@@V?$basic_string@DU?$char_traits@D@std@@V?$allocator@D@2@@std@@$0A@@multi_index@boost@@U?$hash@V?$basic_string@DU?$char_traits@D@std@@V?$allocator@D@2@@std@@@3@U?$equal_to@V?$basic_string@DU?$char_traits@D@std@@V?$allocator@D@2@@std@@@std@@U?$nth_layer@$01V?$mutant_relation@U?$tagged@$$CBV?$basic_string@DU?$char_traits@D@std@@V?$allocator@D@2@@std@@Uleft@member_at@relation@bimaps@boost@@@tags@bimaps@boost@@U?$tagged@$$CBIUright@member_at@relation@bimaps@boost@@@234@Una@mpl@4@$00@relation@bimaps@boost@@Ucore_indices@?$bimap_core@U?$unordered_set_of@V?$basic_string@DU?$char_traits@D@std@@V?$allocator@D@2@@std@@U?$hash@V?$basic_string@DU?$char_traits@D@std@@V?$allocator@D@2@@std@@@boost@@U?$equal_to@V?$basic_string@DU?$char_traits@D@std@@V?$allocator@D@2@@std@@@2@@bimaps@boost@@U?$unordered_set_of@IU?$hash@I@boost@@U?$equal_to@I@std@@@23@Una@mpl@3@U563@U563@@detail@34@V?$allocator@V?$mutant_relation@U?$tagged@$$CBV?$basic_string@DU?$char_traits@D@std@@V?$allocator@D@2@@std@@Uleft@member_at@relation@bimaps@boost@@@tags@bimaps@boost@@U?$tagged@$$CBIUright@member_at@relation@bimaps@boost@@@234@Una@mpl@4@$00@relation@bimaps@boost@@@std@@@detail@23@U?$vector1@Uleft@member_at@relation@bimaps@boost@@@mpl@3@Uhashed_unique_tag@823@@detail@multi_index@boost@@IAEPAU?$hashed_index_node@U?$index_node_base@V?$mutant_relation@U?$tagged@$$CBV?$basic_string@DU?$char_traits@D@std@@V?$allocator@D@2@@std@@Uleft@member_at@relation@bimaps@boost@@@tags@bimaps@boost@@U?$tagged@$$CBIUright@member_at@relation@bimaps@boost@@@234@Una@mpl@4@$00@relation@bimaps@boost@@V?$allocator@V?$mutant_relation@U?$tagged@$$CBV?$basic_string@DU?$char_traits@D@std@@V?$allocator@D@2@@std@@Uleft@member_at@relation@bimaps@boost@@@tags@bimaps@boost@@U?$tagged@$$CBIUright@member_at@relation@bimaps@boost@@@234@Una@mpl@4@$00@relation@bimaps@boost@@@std@@@detail@multi_index@boost@@@123@ABV?$mutant_relation@U?$tagged@$$CBV?$basic_string@DU?$char_traits@D@std@@V?$allocator@D@2@@std@@Uleft@member_at@relation@bimaps@boost@@@tags@bimaps@boost@@U?$tagged@$$CBIUright@member_at@relation@bimaps@boost@@@234@Una@mpl@4@$00@relation@bimaps@3@PAU4123@Ulvalue_tag@123@@Z 1001f650 f i NameIndexMap.obj
 0002:0001d720       ??$enable_error_info@Vbad_lexical_cast@boost@@@boost@@YA?AU?$error_info_injector@Vbad_lexical_cast@boost@@@exception_detail@0@ABVbad_lexical_cast@0@@Z 1001f720 f i NameIndexMap.obj
 0002:0001d770       ??$enable_current_exception@U?$error_info_injector@Vbad_lexical_cast@boost@@@exception_detail@boost@@@boost@@YA?AV?$clone_impl@U?$error_info_injector@Vbad_lexical_cast@boost@@@exception_detail@boost@@@exception_detail@0@ABU?$error_info_injector@Vbad_lexical_cast@boost@@@20@@Z 1001f770 f i NameIndexMap.obj
 0002:0001d790       ?link_point@?$hashed_index@U?$member@V?$relation_storage@U?$tagged@$$CBV?$basic_string@DU?$char_traits@D@std@@V?$allocator@D@2@@std@@Uleft@member_at@relation@bimaps@boost@@@tags@bimaps@boost@@U?$tagged@$$CBIUright@member_at@relation@bimaps@boost@@@234@$00@detail@relation@bimaps@boost@@V?$basic_string@DU?$char_traits@D@std@@V?$allocator@D@2@@std@@$0A@@multi_index@boost@@U?$hash@V?$basic_string@DU?$char_traits@D@std@@V?$allocator@D@2@@std@@@3@U?$equal_to@V?$basic_string@DU?$char_traits@D@std@@V?$allocator@D@2@@std@@@std@@U?$nth_layer@$01V?$mutant_relation@U?$tagged@$$CBV?$basic_string@DU?$char_traits@D@std@@V?$allocator@D@2@@std@@Uleft@member_at@relation@bimaps@boost@@@tags@bimaps@boost@@U?$tagged@$$CBIUright@member_at@relation@bimaps@boost@@@234@Una@mpl@4@$00@relation@bimaps@boost@@Ucore_indices@?$bimap_core@U?$unordered_set_of@V?$basic_string@DU?$char_traits@D@std@@V?$allocator@D@2@@std@@U?$hash@V?$basic_string@DU?$char_traits@D@std@@V?$allocator@D@2@@std@@@boost@@U?$equal_to@V?$basic_string@DU?$char_traits@D@std@@V?$allocator@D@2@@std@@@2@@bimaps@boost@@U?$unordered_set_of@IU?$hash@I@boost@@U?$equal_to@I@std@@@23@Una@mpl@3@U563@U563@@detail@34@V?$allocator@V?$mutant_relation@U?$tagged@$$CBV?$basic_string@DU?$char_traits@D@std@@V?$allocator@D@2@@std@@Uleft@member_at@relation@bimaps@boost@@@tags@bimaps@boost@@U?$tagged@$$CBIUright@member_at@relation@bimaps@boost@@@234@Una@mpl@4@$00@relation@bimaps@boost@@@std@@@detail@23@U?$vector1@Uleft@member_at@relation@bimaps@boost@@@mpl@3@Uhashed_unique_tag@823@@detail@multi_index@boost@@AAE_NABV?$mutant_relation@U?$tagged@$$CBV?$basic_string@DU?$char_traits@D@std@@V?$allocator@D@2@@std@@Uleft@member_at@relation@bimaps@boost@@@tags@bimaps@boost@@U?$tagged@$$CBIUright@member_at@relation@bimaps@boost@@@234@Una@mpl@4@$00@relation@bimaps@4@AAPAU?$hashed_index_node_impl@V?$allocator@D@std@@@234@Uhashed_unique_tag@234@@Z 1001f790 f i NameIndexMap.obj
 0002:0001d7e0       ?reserve@?$hashed_index@U?$member@V?$relation_storage@U?$tagged@$$CBV?$basic_string@DU?$char_traits@D@std@@V?$allocator@D@2@@std@@Uleft@member_at@relation@bimaps@boost@@@tags@bimaps@boost@@U?$tagged@$$CBIUright@member_at@relation@bimaps@boost@@@234@$00@detail@relation@bimaps@boost@@V?$basic_string@DU?$char_traits@D@std@@V?$allocator@D@2@@std@@$0A@@multi_index@boost@@U?$hash@V?$basic_string@DU?$char_traits@D@std@@V?$allocator@D@2@@std@@@3@U?$equal_to@V?$basic_string@DU?$char_traits@D@std@@V?$allocator@D@2@@std@@@std@@U?$nth_layer@$01V?$mutant_relation@U?$tagged@$$CBV?$basic_string@DU?$char_traits@D@std@@V?$allocator@D@2@@std@@Uleft@member_at@relation@bimaps@boost@@@tags@bimaps@boost@@U?$tagged@$$CBIUright@member_at@relation@bimaps@boost@@@234@Una@mpl@4@$00@relation@bimaps@boost@@Ucore_indices@?$bimap_core@U?$unordered_set_of@V?$basic_string@DU?$char_traits@D@std@@V?$allocator@D@2@@std@@U?$hash@V?$basic_string@DU?$char_traits@D@std@@V?$allocator@D@2@@std@@@boost@@U?$equal_to@V?$basic_string@DU?$char_traits@D@std@@V?$allocator@D@2@@std@@@2@@bimaps@boost@@U?$unordered_set_of@IU?$hash@I@boost@@U?$equal_to@I@std@@@23@Una@mpl@3@U563@U563@@detail@34@V?$allocator@V?$mutant_relation@U?$tagged@$$CBV?$basic_string@DU?$char_traits@D@std@@V?$allocator@D@2@@std@@Uleft@member_at@relation@bimaps@boost@@@tags@bimaps@boost@@U?$tagged@$$CBIUright@member_at@relation@bimaps@boost@@@234@Una@mpl@4@$00@relation@bimaps@boost@@@std@@@detail@23@U?$vector1@Uleft@member_at@relation@bimaps@boost@@@mpl@3@Uhashed_unique_tag@823@@detail@multi_index@boost@@AAEXI@Z 1001f7e0 f i NameIndexMap.obj
 0002:0001d850       ?insert_@?$index_base@V?$mutant_relation@U?$tagged@$$CBV?$basic_string@DU?$char_traits@D@std@@V?$allocator@D@2@@std@@Uleft@member_at@relation@bimaps@boost@@@tags@bimaps@boost@@U?$tagged@$$CBIUright@member_at@relation@bimaps@boost@@@234@Una@mpl@4@$00@relation@bimaps@boost@@Ucore_indices@?$bimap_core@U?$unordered_set_of@V?$basic_string@DU?$char_traits@D@std@@V?$allocator@D@2@@std@@U?$hash@V?$basic_string@DU?$char_traits@D@std@@V?$allocator@D@2@@std@@@boost@@U?$equal_to@V?$basic_string@DU?$char_traits@D@std@@V?$allocator@D@2@@std@@@2@@bimaps@boost@@U?$unordered_set_of@IU?$hash@I@boost@@U?$equal_to@I@std@@@23@Una@mpl@3@U563@U563@@detail@34@V?$allocator@V?$mutant_relation@U?$tagged@$$CBV?$basic_string@DU?$char_traits@D@std@@V?$allocator@D@2@@std@@Uleft@member_at@relation@bimaps@boost@@@tags@bimaps@boost@@U?$tagged@$$CBIUright@member_at@relation@bimaps@boost@@@234@Una@mpl@4@$00@relation@bimaps@boost@@@std@@@detail@multi_index@boost@@IAEPAU?$index_node_base@V?$mutant_relation@U?$tagged@$$CBV?$basic_string@DU?$char_traits@D@std@@V?$allocator@D@2@@std@@Uleft@member_at@relation@bimaps@boost@@@tags@bimaps@boost@@U?$tagged@$$CBIUright@member_at@relation@bimaps@boost@@@234@Una@mpl@4@$00@relation@bimaps@boost@@V?$allocator@V?$mutant_relation@U?$tagged@$$CBV?$basic_string@DU?$char_traits@D@std@@V?$allocator@D@2@@std@@Uleft@member_at@relation@bimaps@boost@@@tags@bimaps@boost@@U?$tagged@$$CBIUright@member_at@relation@bimaps@boost@@@234@Una@mpl@4@$00@relation@bimaps@boost@@@std@@@234@ABV?$mutant_relation@U?$tagged@$$CBV?$basic_string@DU?$char_traits@D@std@@V?$allocator@D@2@@std@@Uleft@member_at@relation@bimaps@boost@@@tags@bimaps@boost@@U?$tagged@$$CBIUright@member_at@relation@bimaps@boost@@@234@Una@mpl@4@$00@relation@bimaps@4@PAU5234@Ulvalue_tag@234@@Z 1001f850 f i NameIndexMap.obj
 0002:0001d8b0       ??0?$clone_impl@U?$error_info_injector@Vbad_lexical_cast@boost@@@exception_detail@boost@@@exception_detail@boost@@QAE@ABU?$error_info_injector@Vbad_lexical_cast@boost@@@12@@Z 1001f8b0 f i NameIndexMap.obj
 0002:0001d950       ?unchecked_rehash@?$hashed_index@U?$member@V?$relation_storage@U?$tagged@$$CBV?$basic_string@DU?$char_traits@D@std@@V?$allocator@D@2@@std@@Uleft@member_at@relation@bimaps@boost@@@tags@bimaps@boost@@U?$tagged@$$CBIUright@member_at@relation@bimaps@boost@@@234@$00@detail@relation@bimaps@boost@@V?$basic_string@DU?$char_traits@D@std@@V?$allocator@D@2@@std@@$0A@@multi_index@boost@@U?$hash@V?$basic_string@DU?$char_traits@D@std@@V?$allocator@D@2@@std@@@3@U?$equal_to@V?$basic_string@DU?$char_traits@D@std@@V?$allocator@D@2@@std@@@std@@U?$nth_layer@$01V?$mutant_relation@U?$tagged@$$CBV?$basic_string@DU?$char_traits@D@std@@V?$allocator@D@2@@std@@Uleft@member_at@relation@bimaps@boost@@@tags@bimaps@boost@@U?$tagged@$$CBIUright@member_at@relation@bimaps@boost@@@234@Una@mpl@4@$00@relation@bimaps@boost@@Ucore_indices@?$bimap_core@U?$unordered_set_of@V?$basic_string@DU?$char_traits@D@std@@V?$allocator@D@2@@std@@U?$hash@V?$basic_string@DU?$char_traits@D@std@@V?$allocator@D@2@@std@@@boost@@U?$equal_to@V?$basic_string@DU?$char_traits@D@std@@V?$allocator@D@2@@std@@@2@@bimaps@boost@@U?$unordered_set_of@IU?$hash@I@boost@@U?$equal_to@I@std@@@23@Una@mpl@3@U563@U563@@detail@34@V?$allocator@V?$mutant_relation@U?$tagged@$$CBV?$basic_string@DU?$char_traits@D@std@@V?$allocator@D@2@@std@@Uleft@member_at@relation@bimaps@boost@@@tags@bimaps@boost@@U?$tagged@$$CBIUright@member_at@relation@bimaps@boost@@@234@Una@mpl@4@$00@relation@bimaps@boost@@@std@@@detail@23@U?$vector1@Uleft@member_at@relation@bimaps@boost@@@mpl@3@Uhashed_unique_tag@823@@detail@multi_index@boost@@AAEXI@Z 1001f950 f i NameIndexMap.obj
 0002:0001db90       ?calculate_max_load@?$hashed_index@U?$member@V?$relation_storage@U?$tagged@$$CBV?$basic_string@DU?$char_traits@D@std@@V?$allocator@D@2@@std@@Uleft@member_at@relation@bimaps@boost@@@tags@bimaps@boost@@U?$tagged@$$CBIUright@member_at@relation@bimaps@boost@@@234@$00@detail@relation@bimaps@boost@@V?$basic_string@DU?$char_traits@D@std@@V?$allocator@D@2@@std@@$0A@@multi_index@boost@@U?$hash@V?$basic_string@DU?$char_traits@D@std@@V?$allocator@D@2@@std@@@3@U?$equal_to@V?$basic_string@DU?$char_traits@D@std@@V?$allocator@D@2@@std@@@std@@U?$nth_layer@$01V?$mutant_relation@U?$tagged@$$CBV?$basic_string@DU?$char_traits@D@std@@V?$allocator@D@2@@std@@Uleft@member_at@relation@bimaps@boost@@@tags@bimaps@boost@@U?$tagged@$$CBIUright@member_at@relation@bimaps@boost@@@234@Una@mpl@4@$00@relation@bimaps@boost@@Ucore_indices@?$bimap_core@U?$unordered_set_of@V?$basic_string@DU?$char_traits@D@std@@V?$allocator@D@2@@std@@U?$hash@V?$basic_string@DU?$char_traits@D@std@@V?$allocator@D@2@@std@@@boost@@U?$equal_to@V?$basic_string@DU?$char_traits@D@std@@V?$allocator@D@2@@std@@@2@@bimaps@boost@@U?$unordered_set_of@IU?$hash@I@boost@@U?$equal_to@I@std@@@23@Una@mpl@3@U563@U563@@detail@34@V?$allocator@V?$mutant_relation@U?$tagged@$$CBV?$basic_string@DU?$char_traits@D@std@@V?$allocator@D@2@@std@@Uleft@member_at@relation@bimaps@boost@@@tags@bimaps@boost@@U?$tagged@$$CBIUright@member_at@relation@bimaps@boost@@@234@Una@mpl@4@$00@relation@bimaps@boost@@@std@@@detail@23@U?$vector1@Uleft@member_at@relation@bimaps@boost@@@mpl@3@Uhashed_unique_tag@823@@detail@multi_index@boost@@AAEXXZ 1001fb90 f i NameIndexMap.obj
 0002:0001dbf0       ??_E?$clone_impl@U?$error_info_injector@Vbad_lexical_cast@boost@@@exception_detail@boost@@@exception_detail@boost@@$4PPPPPPPM@DA@AEPAXI@Z 1001fbf0 f i NameIndexMap.obj
 0002:0001dc00       ?rethrow@?$clone_impl@U?$error_info_injector@Vbad_lexical_cast@boost@@@exception_detail@boost@@@exception_detail@boost@@$0PPPPPPPM@A@BEXXZ 1001fc00 f i NameIndexMap.obj
 0002:0001dc10       ??_E?$clone_impl@U?$error_info_injector@Vbad_lexical_cast@boost@@@exception_detail@boost@@@exception_detail@boost@@WBE@AEPAXI@Z 1001fc10 f i NameIndexMap.obj
 0002:0001dc20       ?clone@?$clone_impl@U?$error_info_injector@Vbad_lexical_cast@boost@@@exception_detail@boost@@@exception_detail@boost@@$0PPPPPPPM@A@BEPBVclone_base@23@XZ 1001fc20 f i NameIndexMap.obj
 0002:0001dc30       ??_E?$error_info_injector@Vbad_lexical_cast@boost@@@exception_detail@boost@@WBE@AEPAXI@Z 1001fc30 f i NameIndexMap.obj
 0002:0001dc40       ??1RelayIndexMap@sass@@UAE@XZ 1001fc40 f   RelayIndexMap.obj
 0002:0001dcb0       ??_GRelayIndexMap@sass@@UAEPAXI@Z 1001fcb0 f i RelayIndexMap.obj
 0002:0001dcb0       ??_ERelayIndexMap@sass@@UAEPAXI@Z 1001fcb0 f i  CIL library: CIL module
 0002:0001dce0       ?getSWIndex@RelayIndexMap@sass@@QBEIPBD@Z 1001fce0 f   RelayIndexMap.obj
 0002:0001de60       ??1?$vector@GV?$allocator@G@std@@@std@@QAE@XZ 1001fe60 f i RelayIndexMap.obj
 0002:0001ded0       ??1?$_Tree_val@V?$_Tset_traits@GU?$less@G@std@@V?$allocator@G@2@$0A@@std@@@std@@QAE@XZ 1001fed0 f i RelayInformationFactory.obj
 0002:0001ded0       ??1?$_List_val@U?$list_edge@IU?$property@W4edge_weight_t@boost@@EUno_property@2@@boost@@@boost@@V?$allocator@U?$list_edge@IU?$property@W4edge_weight_t@boost@@EUno_property@2@@boost@@@boost@@@std@@@std@@QAE@XZ 1001fed0 f i PathFindingGraph.obj
 0002:0001ded0       ??1?$_Tree_val@V?$_Tmap_traits@V?$basic_string@DU?$char_traits@D@std@@V?$allocator@D@2@@std@@PAUTopology@sass@@U?$less@V?$basic_string@DU?$char_traits@D@std@@V?$allocator@D@2@@std@@@2@V?$allocator@U?$pair@$$CBV?$basic_string@DU?$char_traits@D@std@@V?$allocator@D@2@@std@@PAUTopology@sass@@@std@@@2@$0A@@std@@@std@@QAE@XZ 1001fed0 f i multitons.obj
 0002:0001ded0       ??1?$_Tree_val@V?$_Tmap_traits@VChannelIndex@sass@@V?$set@VChannelIndex@sass@@U?$less@VChannelIndex@sass@@@std@@V?$allocator@VChannelIndex@sass@@@4@@std@@U?$less@VChannelIndex@sass@@@4@V?$allocator@U?$pair@$$CBVChannelIndex@sass@@V?$set@VChannelIndex@sass@@U?$less@VChannelIndex@sass@@@std@@V?$allocator@VChannelIndex@sass@@@4@@std@@@std@@@4@$0A@@std@@@std@@QAE@XZ 1001fed0 f i Session.obj
 0002:0001ded0       ??1?$_Tree_val@V?$_Tmap_traits@V?$basic_string@DU?$char_traits@D@std@@V?$allocator@D@2@@std@@PAVRelayIndexMap@sass@@U?$less@V?$basic_string@DU?$char_traits@D@std@@V?$allocator@D@2@@std@@@2@V?$allocator@U?$pair@$$CBV?$basic_string@DU?$char_traits@D@std@@V?$allocator@D@2@@std@@PAVRelayIndexMap@sass@@@std@@@2@$0A@@std@@@std@@QAE@XZ 1001fed0 f i Session.obj
 0002:0001ded0       ??1?$_Tree_val@V?$_Tset_traits@IU?$less@I@std@@V?$allocator@I@2@$0A@@std@@@std@@QAE@XZ 1001fed0 f i Session.obj
 0002:0001ded0       ??1?$_Container_base_aux_alloc_real@V?$allocator@_N@std@@@std@@IAE@XZ 1001fed0 f i ChannelStateUpdater.obj
 0002:0001ded0       ??1?$_Vector_val@U?$pair@V?$basic_string@DU?$char_traits@D@std@@V?$allocator@D@2@@std@@G@std@@V?$allocator@U?$pair@V?$basic_string@DU?$char_traits@D@std@@V?$allocator@D@2@@std@@G@std@@@2@@std@@QAE@XZ 1001fed0 f i RelayInformationFactory.obj
 0002:0001ded0       ??1?$_Vector_val@V?$tuple@_KV?$intrusive_ptr@VSession@slscsl@@@boost@@Ublank@2@Unull_type@tuples@2@U452@U452@U452@U452@U452@U452@@tuples@boost@@V?$allocator@V?$tuple@_KV?$intrusive_ptr@VSession@slscsl@@@boost@@Ublank@2@Unull_type@tuples@2@U452@U452@U452@U452@U452@U452@@tuples@boost@@@std@@@std@@QAE@XZ 1001fed0 f i Session.obj
 0002:0001ded0       ??1?$_Vector_val@V?$basic_string@DU?$char_traits@D@std@@V?$allocator@D@2@@std@@V?$allocator@V?$basic_string@DU?$char_traits@D@std@@V?$allocator@D@2@@std@@@2@@std@@QAE@XZ 1001fed0 f i RelayAPIInputProcessor.obj
 0002:0001ded0       ??1?$_Vector_val@VChannelIndex@sass@@V?$allocator@VChannelIndex@sass@@@std@@@std@@QAE@XZ 1001fed0 f i ChannelActionProcessor.obj
 0002:0001ded0       ??1?$_Tree_val@V?$_Tset_traits@VChannelIndex@sass@@U?$less@VChannelIndex@sass@@@std@@V?$allocator@VChannelIndex@sass@@@4@$0A@@std@@@std@@QAE@XZ 1001fed0 f i Session.obj
 0002:0001ded0       ??1?$header_holder@PAU?$hashed_index_node@U?$hashed_index_node@U?$index_node_base@V?$mutant_relation@U?$tagged@$$CBV?$basic_string@DU?$char_traits@D@std@@V?$allocator@D@2@@std@@Uleft@member_at@relation@bimaps@boost@@@tags@bimaps@boost@@U?$tagged@$$CBIUright@member_at@relation@bimaps@boost@@@234@Una@mpl@4@$00@relation@bimaps@boost@@V?$allocator@V?$mutant_relation@U?$tagged@$$CBV?$basic_string@DU?$char_traits@D@std@@V?$allocator@D@2@@std@@Uleft@member_at@relation@bimaps@boost@@@tags@bimaps@boost@@U?$tagged@$$CBIUright@member_at@relation@bimaps@boost@@@234@Una@mpl@4@$00@relation@bimaps@boost@@@std@@@detail@multi_index@boost@@@detail@multi_index@boost@@@detail@multi_index@boost@@V?$multi_index_container@V?$mutant_relation@U?$tagged@$$CBV?$basic_string@DU?$char_traits@D@std@@V?$allocator@D@2@@std@@Uleft@member_at@relation@bimaps@boost@@@tags@bimaps@boost@@U?$tagged@$$CBIUright@member_at@relation@bimaps@boost@@@234@Una@mpl@4@$00@relation@bimaps@boost@@Ucore_indices@?$bimap_core@U?$unordered_set_of@V?$basic_string@DU?$char_traits@D@std@@V?$allocator@D@2@@std@@U?$hash@V?$basic_string@DU?$char_traits@D@std@@V?$allocator@D@2@@std@@@boost@@U?$equal_to@V?$basic_string@DU?$char_traits@D@std@@V?$allocator@D@2@@std@@@2@@bimaps@boost@@U?$unordered_set_of@IU?$hash@I@boost@@U?$equal_to@I@std@@@23@Una@mpl@3@U563@U563@@detail@34@V?$allocator@V?$mutant_relation@U?$tagged@$$CBV?$basic_string@DU?$char_traits@D@std@@V?$allocator@D@2@@std@@Uleft@member_at@relation@bimaps@boost@@@tags@bimaps@boost@@U?$tagged@$$CBIUright@member_at@relation@bimaps@boost@@@234@Una@mpl@4@$00@relation@bimaps@boost@@@std@@@34@@detail@multi_index@boost@@QAE@XZ 1001fed0 f i NameIndexMap.obj
 0002:0001ded0       ??1?$_Vector_val@U?$pair@V?$basic_string@DU?$char_traits@D@std@@V?$allocator@D@2@@std@@V12@@std@@V?$allocator@U?$pair@V?$basic_string@DU?$char_traits@D@std@@V?$allocator@D@2@@std@@V12@@std@@@2@@std@@QAE@XZ 1001fed0 f i TopologyFactory.obj
 0002:0001ded0       ??1?$_Vector_val@GV?$allocator@G@std@@@std@@QAE@XZ 1001fed0 f i RelayIndexMap.obj
 0002:0001ded0       ??1?$_Vector_val@Ustored_vertex@config@?$adj_list_gen@V?$adjacency_list@UvecS@boost@@U12@UundirectedS@2@Uno_property@2@U?$property@W4edge_weight_t@boost@@EUno_property@2@@2@U42@UlistS@2@@boost@@UvecS@2@U32@UundirectedS@2@Uno_property@2@U?$property@W4edge_weight_t@boost@@EUno_property@2@@2@U52@UlistS@2@@detail@boost@@V?$allocator@Ustored_vertex@config@?$adj_list_gen@V?$adjacency_list@UvecS@boost@@U12@UundirectedS@2@Uno_property@2@U?$property@W4edge_weight_t@boost@@EUno_property@2@@2@U42@UlistS@2@@boost@@UvecS@2@U32@UundirectedS@2@Uno_property@2@U?$property@W4edge_weight_t@boost@@EUno_property@2@@2@U52@UlistS@2@@detail@boost@@@std@@@std@@QAE@XZ 1001fed0 f i PathFindingGraph.obj
 0002:0001ded0       ??1?$_Vector_val@EV?$allocator@E@std@@@std@@QAE@XZ 1001fed0 f i AutoSwitchStateBufferLock.obj
 0002:0001ded0       ??1?$_Tree_val@V?$_Tset_traits@V?$basic_string@DU?$char_traits@D@std@@V?$allocator@D@2@@std@@U?$less@V?$basic_string@DU?$char_traits@D@std@@V?$allocator@D@2@@std@@@2@V?$allocator@V?$basic_string@DU?$char_traits@D@std@@V?$allocator@D@2@@std@@@2@$0A@@std@@@std@@QAE@XZ 1001fed0 f i ChannelAPIInputProcessor.obj
 0002:0001ded0       ??1?$_Vector_val@IV?$allocator@I@std@@@std@@QAE@XZ 1001fed0 f i AutoSwitchStateBufferLock.obj
 0002:0001ded0       ??1?$_Vector_val@VChannelAction@sass@@V?$allocator@VChannelAction@sass@@@std@@@std@@QAE@XZ 1001fed0 f i ChannelActionProcessor.obj
 0002:0001ded0       ??1?$_Vector_val@VSwitchAction@sass@@V?$allocator@VSwitchAction@sass@@@std@@@std@@QAE@XZ 1001fed0 f i ChannelActionProcessor.obj
 0002:0001ded0       ??1?$_Tree_val@V?$_Tmap_traits@VDirectlyConnectableChannels@sass@@V?$set@IU?$less@I@std@@V?$allocator@I@2@@std@@U?$less@VDirectlyConnectableChannels@sass@@@4@V?$allocator@U?$pair@$$CBVDirectlyConnectableChannels@sass@@V?$set@IU?$less@I@std@@V?$allocator@I@2@@std@@@std@@@4@$0A@@std@@@std@@QAE@XZ 1001fed0 f i Session.obj
 0002:0001ded0       ??1?$_Vector_val@V?$stored_edge_iter@IV?$_Iterator@$00@?$list@U?$list_edge@IU?$property@W4edge_weight_t@boost@@EUno_property@2@@boost@@@boost@@V?$allocator@U?$list_edge@IU?$property@W4edge_weight_t@boost@@EUno_property@2@@boost@@@boost@@@std@@@std@@U?$property@W4edge_weight_t@boost@@EUno_property@2@@boost@@@detail@boost@@V?$allocator@V?$stored_edge_iter@IV?$_Iterator@$00@?$list@U?$list_edge@IU?$property@W4edge_weight_t@boost@@EUno_property@2@@boost@@@boost@@V?$allocator@U?$list_edge@IU?$property@W4edge_weight_t@boost@@EUno_property@2@@boost@@@boost@@@std@@@std@@U?$property@W4edge_weight_t@boost@@EUno_property@2@@boost@@@detail@boost@@@std@@@std@@QAE@XZ 1001fed0 f i PathFindingGraph.obj
 0002:0001dee0       ?_Tidy@?$vector@GV?$allocator@G@std@@@std@@IAEXXZ 1001fee0 f i RelayIndexMap.obj
 0002:0001df10       ??BChannelIndex@sass@@QBEIXZ 1001ff10 f   ChannelIndex.obj
 0002:0001df30       ??_GRelayInformationFactory@sass@@UAEPAXI@Z 1001ff30 f i RelayInformationFactory.obj
 0002:0001df30       ??_G?$FactoryInterface@V?$basic_string@DU?$char_traits@D@std@@V?$allocator@D@2@@std@@VRelayIndexMap@sass@@@atut@@UAEPAXI@Z 1001ff30 f i RelayInformationFactory.obj
 0002:0001df30       ??_ERelayInformationFactory@sass@@UAEPAXI@Z 1001ff30 f i  CIL library: CIL module
 0002:0001df30       ??_E?$FactoryInterface@V?$basic_string@DU?$char_traits@D@std@@V?$allocator@D@2@@std@@VRelayIndexMap@sass@@@atut@@UAEPAXI@Z 1001ff30 f i  CIL library: CIL module
 0002:0001df60       ??1RelayInformationFactory@sass@@UAE@XZ 1001ff60 f   RelayInformationFactory.obj
 0002:0001df70       ?create@RelayInformationFactory@sass@@UAEPAVRelayIndexMap@2@ABV?$basic_string@DU?$char_traits@D@std@@V?$allocator@D@2@@std@@@Z 1001ff70 f   RelayInformationFactory.obj
 0002:0001e470       ??1?$set@GU?$less@G@std@@V?$allocator@G@2@@std@@QAE@XZ 10020470 f i RelayInformationFactory.obj
 0002:0001e480       ?destroy@RelayInformationFactory@sass@@UAEXPAVRelayIndexMap@2@@Z 10020480 f   RelayInformationFactory.obj
 0002:0001e4a0       ?push_back@?$vector@GV?$allocator@G@std@@@std@@QAEXABG@Z 100204a0 f i RelayInformationFactory.obj
 0002:0001e500       ??1?$vector@U?$pair@V?$basic_string@DU?$char_traits@D@std@@V?$allocator@D@2@@std@@G@std@@V?$allocator@U?$pair@V?$basic_string@DU?$char_traits@D@std@@V?$allocator@D@2@@std@@G@std@@@2@@std@@QAE@XZ 10020500 f i RelayInformationFactory.obj
 0002:0001e580       ??1?$_Tree@V?$_Tset_traits@GU?$less@G@std@@V?$allocator@G@2@$0A@@std@@@std@@QAE@XZ 10020580 f i RelayInformationFactory.obj
 0002:0001e600       ?insert@?$vector@GV?$allocator@G@std@@@std@@QAE?AV?$_Vector_iterator@GV?$allocator@G@std@@@2@V?$_Vector_const_iterator@GV?$allocator@G@std@@@2@ABG@Z 10020600 f i RelayInformationFactory.obj
 0002:0001e6b0       ?_Ufill@?$vector@GV?$allocator@G@std@@@std@@IAEPAGPAGIABG@Z 100206b0 f i RelayInformationFactory.obj
 0002:0001e6e0       ?_Insert_n@?$vector@GV?$allocator@G@std@@@std@@IAEXV?$_Vector_const_iterator@GV?$allocator@G@std@@@2@IABG@Z 100206e0 f i RelayInformationFactory.obj
 0002:0001e8d0       ?_Destroy@?$vector@U?$pair@V?$basic_string@DU?$char_traits@D@std@@V?$allocator@D@2@@std@@G@std@@V?$allocator@U?$pair@V?$basic_string@DU?$char_traits@D@std@@V?$allocator@D@2@@std@@G@std@@@2@@std@@IAEXPAU?$pair@V?$basic_string@DU?$char_traits@D@std@@V?$allocator@D@2@@std@@G@2@0@Z 100208d0 f i RelayInformationFactory.obj
 0002:0001e8f0       ?_Inc@const_iterator@?$_Tree@V?$_Tset_traits@GU?$less@G@std@@V?$allocator@G@2@$0A@@std@@@std@@QAEXXZ 100208f0 f i RelayInformationFactory.obj
 0002:0001e8f0       ?_Inc@const_iterator@?$_Tree@V?$_Tset_traits@VChannelIndex@sass@@U?$less@VChannelIndex@sass@@@std@@V?$allocator@VChannelIndex@sass@@@4@$0A@@std@@@std@@QAEXXZ 100208f0 f i Session.obj
 0002:0001e960       ??$getSectionData@G@IniReader@sass@@QBE?AV?$vector@U?$pair@V?$basic_string@DU?$char_traits@D@std@@V?$allocator@D@2@@std@@G@std@@V?$allocator@U?$pair@V?$basic_string@DU?$char_traits@D@std@@V?$allocator@D@2@@std@@G@std@@@2@@std@@PBD@Z 10020960 f i RelayInformationFactory.obj
 0002:0001ecf0       ??$?0V?$_Vector_iterator@V?$basic_string@DU?$char_traits@D@std@@V?$allocator@D@2@@std@@V?$allocator@V?$basic_string@DU?$char_traits@D@std@@V?$allocator@D@2@@std@@@2@@std@@@?$set@V?$basic_string@DU?$char_traits@D@std@@V?$allocator@D@2@@std@@U?$less@V?$basic_string@DU?$char_traits@D@std@@V?$allocator@D@2@@std@@@2@V?$allocator@V?$basic_string@DU?$char_traits@D@std@@V?$allocator@D@2@@std@@@2@@std@@QAE@V?$_Vector_iterator@V?$basic_string@DU?$char_traits@D@std@@V?$allocator@D@2@@std@@V?$allocator@V?$basic_string@DU?$char_traits@D@std@@V?$allocator@D@2@@std@@@2@@1@0@Z 10020cf0 f i RelayInformationFactory.obj
 0002:0001edb0       ??$?0V?$_Vector_iterator@GV?$allocator@G@std@@@std@@@?$set@GU?$less@G@std@@V?$allocator@G@2@@std@@QAE@V?$_Vector_iterator@GV?$allocator@G@std@@@1@0@Z 10020db0 f i RelayInformationFactory.obj
 0002:0001ee70       ??$?0V?$_Vector_iterator@V?$basic_string@DU?$char_traits@D@std@@V?$allocator@D@2@@std@@V?$allocator@V?$basic_string@DU?$char_traits@D@std@@V?$allocator@D@2@@std@@@2@@std@@V?$_Vector_iterator@GV?$allocator@G@std@@@1@@RelayIndexMap@sass@@QAE@V?$_Vector_iterator@V?$basic_string@DU?$char_traits@D@std@@V?$allocator@D@2@@std@@V?$allocator@V?$basic_string@DU?$char_traits@D@std@@V?$allocator@D@2@@std@@@2@@std@@0V?$_Vector_iterator@GV?$allocator@G@std@@@3@1@Z 10020e70 f i RelayInformationFactory.obj
 0002:0001eef0       ??1?$mutant_relation@U?$tagged@$$CBV?$basic_string@DU?$char_traits@D@std@@V?$allocator@D@2@@std@@Uleft@member_at@relation@bimaps@boost@@@tags@bimaps@boost@@U?$tagged@$$CBIUright@member_at@relation@bimaps@boost@@@234@Una@mpl@4@$0A@@relation@bimaps@boost@@QAE@XZ 10020ef0 f i NameIndexMap.obj
 0002:0001eef0       ??1?$pair@$$CBV?$basic_string@DU?$char_traits@D@std@@V?$allocator@D@2@@std@@PAVRelayIndexMap@sass@@@std@@QAE@XZ 10020ef0 f i Session.obj
 0002:0001eef0       ??1?$pair@V?$basic_string@DU?$char_traits@D@std@@V?$allocator@D@2@@std@@G@std@@QAE@XZ 10020ef0 f i RelayInformationFactory.obj
 0002:0001ef00       ??0?$vector@IV?$allocator@I@std@@@std@@QAE@XZ 10020f00 f i AutoSwitchStateBufferLock.obj
 0002:0001ef00       ??0?$vector@VChannelAction@sass@@V?$allocator@VChannelAction@sass@@@std@@@std@@QAE@XZ 10020f00 f i ChannelActionProcessor.obj
 0002:0001ef00       ??0?$vector@VChannelIndex@sass@@V?$allocator@VChannelIndex@sass@@@std@@@std@@QAE@XZ 10020f00 f i ChannelActionProcessor.obj
 0002:0001ef00       ??0?$vector@U?$pair@V?$basic_string@DU?$char_traits@D@std@@V?$allocator@D@2@@std@@G@std@@V?$allocator@U?$pair@V?$basic_string@DU?$char_traits@D@std@@V?$allocator@D@2@@std@@G@std@@@2@@std@@QAE@XZ 10020f00 f i RelayInformationFactory.obj
 0002:0001ef00       ??0?$vector@V?$basic_string@DU?$char_traits@D@std@@V?$allocator@D@2@@std@@V?$allocator@V?$basic_string@DU?$char_traits@D@std@@V?$allocator@D@2@@std@@@2@@std@@QAE@XZ 10020f00 f i ChannelAPIInputProcessor.obj
 0002:0001ef00       ??0?$vector@U?$pair@V?$basic_string@DU?$char_traits@D@std@@V?$allocator@D@2@@std@@V12@@std@@V?$allocator@U?$pair@V?$basic_string@DU?$char_traits@D@std@@V?$allocator@D@2@@std@@V12@@std@@@2@@std@@QAE@XZ 10020f00 f i TopologyFactory.obj
 0002:0001ef00       ??0?$vector@VSwitchAction@sass@@V?$allocator@VSwitchAction@sass@@@std@@@std@@QAE@XZ 10020f00 f i ChannelActionProcessor.obj
 0002:0001ef60       ?reserve@?$vector@U?$pair@V?$basic_string@DU?$char_traits@D@std@@V?$allocator@D@2@@std@@G@std@@V?$allocator@U?$pair@V?$basic_string@DU?$char_traits@D@std@@V?$allocator@D@2@@std@@G@std@@@2@@std@@QAEXI@Z 10020f60 f i RelayInformationFactory.obj
 0002:0001f080       ?back@?$vector@U?$pair@V?$basic_string@DU?$char_traits@D@std@@V?$allocator@D@2@@std@@G@std@@V?$allocator@U?$pair@V?$basic_string@DU?$char_traits@D@std@@V?$allocator@D@2@@std@@G@std@@@2@@std@@QAEAAU?$pair@V?$basic_string@DU?$char_traits@D@std@@V?$allocator@D@2@@std@@G@2@XZ 10021080 f i RelayInformationFactory.obj
 0002:0001f100       ?push_back@?$vector@U?$pair@V?$basic_string@DU?$char_traits@D@std@@V?$allocator@D@2@@std@@G@std@@V?$allocator@U?$pair@V?$basic_string@DU?$char_traits@D@std@@V?$allocator@D@2@@std@@G@std@@@2@@std@@QAEXABU?$pair@V?$basic_string@DU?$char_traits@D@std@@V?$allocator@D@2@@std@@G@2@@Z 10021100 f i RelayInformationFactory.obj
 0002:0001f170       ?insert@?$_Tree@V?$_Tset_traits@GU?$less@G@std@@V?$allocator@G@2@$0A@@std@@@std@@QAE?AU?$pair@Viterator@?$_Tree@V?$_Tset_traits@GU?$less@G@std@@V?$allocator@G@2@$0A@@std@@@std@@_N@2@ABG@Z 10021170 f i RelayInformationFactory.obj
 0002:0001f260       ?insert@?$vector@U?$pair@V?$basic_string@DU?$char_traits@D@std@@V?$allocator@D@2@@std@@G@std@@V?$allocator@U?$pair@V?$basic_string@DU?$char_traits@D@std@@V?$allocator@D@2@@std@@G@std@@@2@@std@@QAE?AV?$_Vector_iterator@U?$pair@V?$basic_string@DU?$char_traits@D@std@@V?$allocator@D@2@@std@@G@std@@V?$allocator@U?$pair@V?$basic_string@DU?$char_traits@D@std@@V?$allocator@D@2@@std@@G@std@@@2@@2@V?$_Vector_const_iterator@U?$pair@V?$basic_string@DU?$char_traits@D@std@@V?$allocator@D@2@@std@@G@std@@V?$allocator@U?$pair@V?$basic_string@DU?$char_traits@D@std@@V?$allocator@D@2@@std@@G@std@@@2@@2@ABU?$pair@V?$basic_string@DU?$char_traits@D@std@@V?$allocator@D@2@@std@@G@2@@Z 10021260 f i RelayInformationFactory.obj
 0002:0001f320       ?_Ufill@?$vector@U?$pair@V?$basic_string@DU?$char_traits@D@std@@V?$allocator@D@2@@std@@G@std@@V?$allocator@U?$pair@V?$basic_string@DU?$char_traits@D@std@@V?$allocator@D@2@@std@@G@std@@@2@@std@@IAEPAU?$pair@V?$basic_string@DU?$char_traits@D@std@@V?$allocator@D@2@@std@@G@2@PAU32@IABU32@@Z 10021320 f i RelayInformationFactory.obj
 0002:0001f350       ?allocate@?$allocator@U?$pair@V?$basic_string@DU?$char_traits@D@std@@V?$allocator@D@2@@std@@G@std@@@std@@QAEPAU?$pair@V?$basic_string@DU?$char_traits@D@std@@V?$allocator@D@2@@std@@G@2@I@Z 10021350 f i RelayInformationFactory.obj
 0002:0001f3b0       ?_Insert@?$_Tree@V?$_Tset_traits@GU?$less@G@std@@V?$allocator@G@2@$0A@@std@@@std@@IAE?AViterator@12@_NPAU_Node@?$_Tree_nod@V?$_Tset_traits@GU?$less@G@std@@V?$allocator@G@2@$0A@@std@@@2@ABG@Z 100213b0 f i RelayInformationFactory.obj
 0002:0001f5c0       ?_Insert_n@?$vector@U?$pair@V?$basic_string@DU?$char_traits@D@std@@V?$allocator@D@2@@std@@G@std@@V?$allocator@U?$pair@V?$basic_string@DU?$char_traits@D@std@@V?$allocator@D@2@@std@@G@std@@@2@@std@@IAEXV?$_Vector_const_iterator@U?$pair@V?$basic_string@DU?$char_traits@D@std@@V?$allocator@D@2@@std@@G@std@@V?$allocator@U?$pair@V?$basic_string@DU?$char_traits@D@std@@V?$allocator@D@2@@std@@G@std@@@2@@2@IABU?$pair@V?$basic_string@DU?$char_traits@D@std@@V?$allocator@D@2@@std@@G@2@@Z 100215c0 f i RelayInformationFactory.obj
 0002:0001f890       ?_Buynode@?$_Tree@V?$_Tset_traits@GU?$less@G@std@@V?$allocator@G@2@$0A@@std@@@std@@IAEPAU_Node@?$_Tree_nod@V?$_Tset_traits@GU?$less@G@std@@V?$allocator@G@2@$0A@@std@@@2@PAU342@00ABGD@Z 10021890 f i RelayInformationFactory.obj
 0002:0001f8d0       ??$getItemData_@G@IniReader@sass@@ABEGPBD0@Z 100218d0 f i RelayInformationFactory.obj
 0002:0001f940       ??$?0V?$_Vector_iterator@V?$basic_string@DU?$char_traits@D@std@@V?$allocator@D@2@@std@@V?$allocator@V?$basic_string@DU?$char_traits@D@std@@V?$allocator@D@2@@std@@@2@@std@@@NameIndexMap@sass@@QAE@V?$_Vector_iterator@V?$basic_string@DU?$char_traits@D@std@@V?$allocator@D@2@@std@@V?$allocator@V?$basic_string@DU?$char_traits@D@std@@V?$allocator@D@2@@std@@@2@@std@@0H@Z 10021940 f i RelayInformationFactory.obj
 0002:0001faa0       ??$?0V?$_Vector_iterator@GV?$allocator@G@std@@@std@@@?$vector@GV?$allocator@G@std@@@std@@QAE@V?$_Vector_iterator@GV?$allocator@G@std@@@1@0@Z 10021aa0 f i RelayInformationFactory.obj
 0002:0001fb10       ??$_Umove@PAU?$pair@V?$basic_string@DU?$char_traits@D@std@@V?$allocator@D@2@@std@@G@std@@@?$vector@U?$pair@V?$basic_string@DU?$char_traits@D@std@@V?$allocator@D@2@@std@@G@std@@V?$allocator@U?$pair@V?$basic_string@DU?$char_traits@D@std@@V?$allocator@D@2@@std@@G@std@@@2@@std@@IAEPAU?$pair@V?$basic_string@DU?$char_traits@D@std@@V?$allocator@D@2@@std@@G@1@PAU21@00@Z 10021b10 f i RelayInformationFactory.obj
 0002:0001fb40       ??$fill@PAU?$pair@V?$basic_string@DU?$char_traits@D@std@@V?$allocator@D@2@@std@@G@std@@U12@@std@@YAXPAU?$pair@V?$basic_string@DU?$char_traits@D@std@@V?$allocator@D@2@@std@@G@0@0ABU10@@Z 10021b40 f i RelayInformationFactory.obj
 0002:0001fb70       ??0?$multi_index_container@V?$mutant_relation@U?$tagged@$$CBV?$basic_string@DU?$char_traits@D@std@@V?$allocator@D@2@@std@@Uleft@member_at@relation@bimaps@boost@@@tags@bimaps@boost@@U?$tagged@$$CBIUright@member_at@relation@bimaps@boost@@@234@Una@mpl@4@$00@relation@bimaps@boost@@Ucore_indices@?$bimap_core@U?$unordered_set_of@V?$basic_string@DU?$char_traits@D@std@@V?$allocator@D@2@@std@@U?$hash@V?$basic_string@DU?$char_traits@D@std@@V?$allocator@D@2@@std@@@boost@@U?$equal_to@V?$basic_string@DU?$char_traits@D@std@@V?$allocator@D@2@@std@@@2@@bimaps@boost@@U?$unordered_set_of@IU?$hash@I@boost@@U?$equal_to@I@std@@@23@Una@mpl@3@U563@U563@@detail@34@V?$allocator@V?$mutant_relation@U?$tagged@$$CBV?$basic_string@DU?$char_traits@D@std@@V?$allocator@D@2@@std@@Uleft@member_at@relation@bimaps@boost@@@tags@bimaps@boost@@U?$tagged@$$CBIUright@member_at@relation@bimaps@boost@@@234@Una@mpl@4@$00@relation@bimaps@boost@@@std@@@multi_index@boost@@QAE@ABV?$allocator@V?$mutant_relation@U?$tagged@$$CBV?$basic_string@DU?$char_traits@D@std@@V?$allocator@D@2@@std@@Uleft@member_at@relation@bimaps@boost@@@tags@bimaps@boost@@U?$tagged@$$CBIUright@member_at@relation@bimaps@boost@@@234@Una@mpl@4@$00@relation@bimaps@boost@@@std@@@Z 10021b70 f i RelayInformationFactory.obj
 0002:0001fbd0       ??0?$hashed_index@U?$member@V?$relation_storage@U?$tagged@$$CBV?$basic_string@DU?$char_traits@D@std@@V?$allocator@D@2@@std@@Uleft@member_at@relation@bimaps@boost@@@tags@bimaps@boost@@U?$tagged@$$CBIUright@member_at@relation@bimaps@boost@@@234@$00@detail@relation@bimaps@boost@@I$0BM@@multi_index@boost@@U?$hash@I@3@U?$equal_to@I@std@@U?$nth_layer@$00V?$mutant_relation@U?$tagged@$$CBV?$basic_string@DU?$char_traits@D@std@@V?$allocator@D@2@@std@@Uleft@member_at@relation@bimaps@boost@@@tags@bimaps@boost@@U?$tagged@$$CBIUright@member_at@relation@bimaps@boost@@@234@Una@mpl@4@$00@relation@bimaps@boost@@Ucore_indices@?$bimap_core@U?$unordered_set_of@V?$basic_string@DU?$char_traits@D@std@@V?$allocator@D@2@@std@@U?$hash@V?$basic_string@DU?$char_traits@D@std@@V?$allocator@D@2@@std@@@boost@@U?$equal_to@V?$basic_string@DU?$char_traits@D@std@@V?$allocator@D@2@@std@@@2@@bimaps@boost@@U?$unordered_set_of@IU?$hash@I@boost@@U?$equal_to@I@std@@@23@Una@mpl@3@U563@U563@@detail@34@V?$allocator@V?$mutant_relation@U?$tagged@$$CBV?$basic_string@DU?$char_traits@D@std@@V?$allocator@D@2@@std@@Uleft@member_at@relation@bimaps@boost@@@tags@bimaps@boost@@U?$tagged@$$CBIUright@member_at@relation@bimaps@boost@@@234@Una@mpl@4@$00@relation@bimaps@boost@@@std@@@detail@23@U?$vector1@Uright@member_at@relation@bimaps@boost@@@mpl@3@Uhashed_unique_tag@823@@detail@multi_index@boost@@IAE@ABU?$cons@V?$tuple@IU?$member@V?$relation_storage@U?$tagged@$$CBV?$basic_string@DU?$char_traits@D@std@@V?$allocator@D@2@@std@@Uleft@member_at@relation@bimaps@boost@@@tags@bimaps@boost@@U?$tagged@$$CBIUright@member_at@relation@bimaps@boost@@@234@$00@detail@relation@bimaps@boost@@I$0BM@@multi_index@boost@@U?$hash@I@3@U?$equal_to@I@std@@Unull_type@tuples@3@U783@U783@U783@U783@U783@@tuples@boost@@U?$cons@V?$tuple@IU?$member@V?$relation_storage@U?$tagged@$$CBV?$basic_string@DU?$char_traits@D@std@@V?$allocator@D@2@@std@@Uleft@member_at@relation@bimaps@boost@@@tags@bimaps@boost@@U?$tagged@$$CBIUright@member_at@relation@bimaps@boost@@@234@$00@detail@relation@bimaps@boost@@V?$basic_string@DU?$char_traits@D@std@@V?$allocator@D@2@@std@@$0A@@multi_index@boost@@U?$hash@V?$basic_string@DU?$char_traits@D@std@@V?$allocator@D@2@@std@@@3@U?$equal_to@V?$basic_string@DU?$char_traits@D@std@@V?$allocator@D@2@@std@@@std@@Unull_type@tuples@3@U783@U783@U783@U783@U783@@tuples@boost@@Unull_type@23@@23@@tuples@3@ABV?$allocator@V?$mutant_relation@U?$tagged@$$CBV?$basic_string@DU?$char_traits@D@std@@V?$allocator@D@2@@std@@Uleft@member_at@relation@bimaps@boost@@@tags@bimaps@boost@@U?$tagged@$$CBIUright@member_at@relation@bimaps@boost@@@234@Una@mpl@4@$00@relation@bimaps@boost@@@std@@@Z 10021bd0 f i RelayInformationFactory.obj
 0002:0001fc90       ??0?$hashed_index@U?$member@V?$relation_storage@U?$tagged@$$CBV?$basic_string@DU?$char_traits@D@std@@V?$allocator@D@2@@std@@Uleft@member_at@relation@bimaps@boost@@@tags@bimaps@boost@@U?$tagged@$$CBIUright@member_at@relation@bimaps@boost@@@234@$00@detail@relation@bimaps@boost@@V?$basic_string@DU?$char_traits@D@std@@V?$allocator@D@2@@std@@$0A@@multi_index@boost@@U?$hash@V?$basic_string@DU?$char_traits@D@std@@V?$allocator@D@2@@std@@@3@U?$equal_to@V?$basic_string@DU?$char_traits@D@std@@V?$allocator@D@2@@std@@@std@@U?$nth_layer@$01V?$mutant_relation@U?$tagged@$$CBV?$basic_string@DU?$char_traits@D@std@@V?$allocator@D@2@@std@@Uleft@member_at@relation@bimaps@boost@@@tags@bimaps@boost@@U?$tagged@$$CBIUright@member_at@relation@bimaps@boost@@@234@Una@mpl@4@$00@relation@bimaps@boost@@Ucore_indices@?$bimap_core@U?$unordered_set_of@V?$basic_string@DU?$char_traits@D@std@@V?$allocator@D@2@@std@@U?$hash@V?$basic_string@DU?$char_traits@D@std@@V?$allocator@D@2@@std@@@boost@@U?$equal_to@V?$basic_string@DU?$char_traits@D@std@@V?$allocator@D@2@@std@@@2@@bimaps@boost@@U?$unordered_set_of@IU?$hash@I@boost@@U?$equal_to@I@std@@@23@Una@mpl@3@U563@U563@@detail@34@V?$allocator@V?$mutant_relation@U?$tagged@$$CBV?$basic_string@DU?$char_traits@D@std@@V?$allocator@D@2@@std@@Uleft@member_at@relation@bimaps@boost@@@tags@bimaps@boost@@U?$tagged@$$CBIUright@member_at@relation@bimaps@boost@@@234@Una@mpl@4@$00@relation@bimaps@boost@@@std@@@detail@23@U?$vector1@Uleft@member_at@relation@bimaps@boost@@@mpl@3@Uhashed_unique_tag@823@@detail@multi_index@boost@@IAE@ABU?$cons@V?$tuple@IU?$member@V?$relation_storage@U?$tagged@$$CBV?$basic_string@DU?$char_traits@D@std@@V?$allocator@D@2@@std@@Uleft@member_at@relation@bimaps@boost@@@tags@bimaps@boost@@U?$tagged@$$CBIUright@member_at@relation@bimaps@boost@@@234@$00@detail@relation@bimaps@boost@@V?$basic_string@DU?$char_traits@D@std@@V?$allocator@D@2@@std@@$0A@@multi_index@boost@@U?$hash@V?$basic_string@DU?$char_traits@D@std@@V?$allocator@D@2@@std@@@3@U?$equal_to@V?$basic_string@DU?$char_traits@D@std@@V?$allocator@D@2@@std@@@std@@Unull_type@tuples@3@U783@U783@U783@U783@U783@@tuples@boost@@Unull_type@23@@tuples@3@ABV?$allocator@V?$mutant_relation@U?$tagged@$$CBV?$basic_string@DU?$char_traits@D@std@@V?$allocator@D@2@@std@@Uleft@member_at@relation@bimaps@boost@@@tags@bimaps@boost@@U?$tagged@$$CBIUright@member_at@relation@bimaps@boost@@@234@Una@mpl@4@$00@relation@bimaps@boost@@@std@@@Z 10021c90 f i RelayInformationFactory.obj
 0002:0001fd20       ??$?0V?$_Vector_iterator@V?$basic_string@DU?$char_traits@D@std@@V?$allocator@D@2@@std@@V?$allocator@V?$basic_string@DU?$char_traits@D@std@@V?$allocator@D@2@@std@@@2@@std@@@?$StringRange@UCaseInsensitiveComparison@atat@@@atat@@QAE@HV?$_Vector_iterator@V?$basic_string@DU?$char_traits@D@std@@V?$allocator@D@2@@std@@V?$allocator@V?$basic_string@DU?$char_traits@D@std@@V?$allocator@D@2@@std@@@2@@std@@0@Z 10021d20 f i RelayInformationFactory.obj
 0002:0001fd80       ??$_Construct@V?$_Vector_iterator@GV?$allocator@G@std@@@std@@@?$vector@GV?$allocator@G@std@@@std@@QAEXV?$_Vector_iterator@GV?$allocator@G@std@@@1@0Uinput_iterator_tag@1@@Z 10021d80 f i RelayInformationFactory.obj
 0002:0001fe00       ??$_Uninit_fill_n@PAU?$pair@V?$basic_string@DU?$char_traits@D@std@@V?$allocator@D@2@@std@@G@std@@IU12@V?$allocator@U?$pair@V?$basic_string@DU?$char_traits@D@std@@V?$allocator@D@2@@std@@G@std@@@2@@std@@YAXPAU?$pair@V?$basic_string@DU?$char_traits@D@std@@V?$allocator@D@2@@std@@G@0@IABU10@AAV?$allocator@U?$pair@V?$basic_string@DU?$char_traits@D@std@@V?$allocator@D@2@@std@@G@std@@@0@U_Nonscalar_ptr_iterator_tag@0@U_Range_checked_iterator_tag@0@@Z 10021e00 f i RelayInformationFactory.obj
 0002:0001fea0       ?lexical_cast_impl@?$lexical_cast_do_cast@GV?$basic_string@DU?$char_traits@D@std@@V?$allocator@D@2@@std@@@detail@boost@@SAGABV?$basic_string@DU?$char_traits@D@std@@V?$allocator@D@2@@std@@@Z 10021ea0 f i RelayInformationFactory.obj
 0002:0001ff50       ??$_Copy_backward_opt@PAU?$pair@V?$basic_string@DU?$char_traits@D@std@@V?$allocator@D@2@@std@@G@std@@PAU12@@std@@YAPAU?$pair@V?$basic_string@DU?$char_traits@D@std@@V?$allocator@D@2@@std@@G@0@PAU10@00Urandom_access_iterator_tag@0@U_Nonscalar_ptr_iterator_tag@0@U_Range_checked_iterator_tag@0@@Z 10021f50 f i RelayInformationFactory.obj
 0002:0001ffa0       ??$?0V?$_Vector_iterator@V?$basic_string@DU?$char_traits@D@std@@V?$allocator@D@2@@std@@V?$allocator@V?$basic_string@DU?$char_traits@D@std@@V?$allocator@D@2@@std@@@2@@std@@@?$flat_tree@V?$basic_string@DU?$char_traits@D@std@@V?$allocator@D@2@@std@@V12@U?$identity@V?$basic_string@DU?$char_traits@D@std@@V?$allocator@D@2@@std@@@container_detail@container@boost@@UCaseInsensitiveLess@atat@@V?$allocator@V?$basic_string@DU?$char_traits@D@std@@V?$allocator@D@2@@std@@@2@@container_detail@container@boost@@QAE@_NV?$_Vector_iterator@V?$basic_string@DU?$char_traits@D@std@@V?$allocator@D@2@@std@@V?$allocator@V?$basic_string@DU?$char_traits@D@std@@V?$allocator@D@2@@std@@@2@@std@@1ABUCaseInsensitiveLess@atat@@ABV?$allocator@V?$basic_string@DU?$char_traits@D@std@@V?$allocator@D@2@@std@@@5@@Z 10021fa0 f i RelayInformationFactory.obj
 0002:000200a0       ??$_Insert@V?$_Vector_iterator@GV?$allocator@G@std@@@std@@@?$vector@GV?$allocator@G@std@@@std@@QAEXV?$_Vector_const_iterator@GV?$allocator@G@std@@@1@V?$_Vector_iterator@GV?$allocator@G@std@@@1@1Uforward_iterator_tag@1@@Z 100220a0 f i RelayInformationFactory.obj
 0002:00020230       ??$lcast_ret_unsigned@U?$char_traits@D@std@@GD@detail@boost@@YA_NAAGQBDPBD@Z 10022230 f i RelayInformationFactory.obj
 0002:00020530       ?_Reverse@?$vector@GV?$allocator@G@std@@@std@@QAEXPAG0@Z 10022530 f i RelayInformationFactory.obj
 0002:00020560       ?priv_insert_unique_prepare@?$flat_tree@V?$basic_string@DU?$char_traits@D@std@@V?$allocator@D@2@@std@@V12@U?$identity@V?$basic_string@DU?$char_traits@D@std@@V?$allocator@D@2@@std@@@container_detail@container@boost@@UCaseInsensitiveLess@atat@@V?$allocator@V?$basic_string@DU?$char_traits@D@std@@V?$allocator@D@2@@std@@@2@@container_detail@container@boost@@AAE_NV?$vec_iterator@PAV?$basic_string@DU?$char_traits@D@std@@V?$allocator@D@2@@std@@$00@234@ABV?$basic_string@DU?$char_traits@D@std@@V?$allocator@D@2@@std@@AAUinsert_commit_data@1234@@Z 10022560 f i RelayInformationFactory.obj
 0002:00020630       ?priv_insert_unique_prepare@?$flat_tree@V?$basic_string@DU?$char_traits@D@std@@V?$allocator@D@2@@std@@V12@U?$identity@V?$basic_string@DU?$char_traits@D@std@@V?$allocator@D@2@@std@@@container_detail@container@boost@@UCaseInsensitiveLess@atat@@V?$allocator@V?$basic_string@DU?$char_traits@D@std@@V?$allocator@D@2@@std@@@2@@container_detail@container@boost@@AAE_NV?$vec_iterator@PAV?$basic_string@DU?$char_traits@D@std@@V?$allocator@D@2@@std@@$00@234@0ABV?$basic_string@DU?$char_traits@D@std@@V?$allocator@D@2@@std@@AAUinsert_commit_data@1234@@Z 10022630 f i RelayInformationFactory.obj
 0002:00020670       ??$_Uninit_copy@PAU?$pair@V?$basic_string@DU?$char_traits@D@std@@V?$allocator@D@2@@std@@G@std@@PAU12@V?$allocator@U?$pair@V?$basic_string@DU?$char_traits@D@std@@V?$allocator@D@2@@std@@G@std@@@2@@std@@YAPAU?$pair@V?$basic_string@DU?$char_traits@D@std@@V?$allocator@D@2@@std@@G@0@PAU10@00AAV?$allocator@U?$pair@V?$basic_string@DU?$char_traits@D@std@@V?$allocator@D@2@@std@@G@std@@@0@U_Nonscalar_ptr_iterator_tag@0@U_Range_checked_iterator_tag@0@@Z 10022670 f i RelayInformationFactory.obj
 0002:00020710       ??$priv_forward_range_insert@U?$insert_copy_proxy@V?$allocator@V?$basic_string@DU?$char_traits@D@std@@V?$allocator@D@2@@std@@@std@@PAV?$basic_string@DU?$char_traits@D@std@@V?$allocator@D@2@@2@@container_detail@container@boost@@@?$vector@V?$basic_string@DU?$char_traits@D@std@@V?$allocator@D@2@@std@@V?$allocator@V?$basic_string@DU?$char_traits@D@std@@V?$allocator@D@2@@std@@@2@@container@boost@@AAE?AV?$vec_iterator@PAV?$basic_string@DU?$char_traits@D@std@@V?$allocator@D@2@@std@@$0A@@container_detail@12@ABQAV?$basic_string@DU?$char_traits@D@std@@V?$allocator@D@2@@std@@IU?$insert_copy_proxy@V?$allocator@V?$basic_string@DU?$char_traits@D@std@@V?$allocator@D@2@@std@@@std@@PAV?$basic_string@DU?$char_traits@D@std@@V?$allocator@D@2@@2@@412@U?$integral_constant@I$00@412@@Z 10022710 f i RelayInformationFactory.obj
 0002:00020790       ??$priv_forward_range_insert_expand_forward@U?$insert_copy_proxy@V?$allocator@V?$basic_string@DU?$char_traits@D@std@@V?$allocator@D@2@@std@@@std@@PAV?$basic_string@DU?$char_traits@D@std@@V?$allocator@D@2@@2@@container_detail@container@boost@@@?$vector@V?$basic_string@DU?$char_traits@D@std@@V?$allocator@D@2@@std@@V?$allocator@V?$basic_string@DU?$char_traits@D@std@@V?$allocator@D@2@@std@@@2@@container@boost@@AAEXQAV?$basic_string@DU?$char_traits@D@std@@V?$allocator@D@2@@std@@IU?$insert_copy_proxy@V?$allocator@V?$basic_string@DU?$char_traits@D@std@@V?$allocator@D@2@@std@@@std@@PAV?$basic_string@DU?$char_traits@D@std@@V?$allocator@D@2@@2@@container_detail@12@@Z 10022790 f i RelayInformationFactory.obj
 0002:000208a0       ??$priv_forward_range_insert_no_capacity@U?$insert_copy_proxy@V?$allocator@V?$basic_string@DU?$char_traits@D@std@@V?$allocator@D@2@@std@@@std@@PAV?$basic_string@DU?$char_traits@D@std@@V?$allocator@D@2@@2@@container_detail@container@boost@@@?$vector@V?$basic_string@DU?$char_traits@D@std@@V?$allocator@D@2@@std@@V?$allocator@V?$basic_string@DU?$char_traits@D@std@@V?$allocator@D@2@@std@@@2@@container@boost@@AAE?AV?$vec_iterator@PAV?$basic_string@DU?$char_traits@D@std@@V?$allocator@D@2@@std@@$0A@@container_detail@12@ABQAV?$basic_string@DU?$char_traits@D@std@@V?$allocator@D@2@@std@@IU?$insert_copy_proxy@V?$allocator@V?$basic_string@DU?$char_traits@D@std@@V?$allocator@D@2@@std@@@std@@PAV?$basic_string@DU?$char_traits@D@std@@V?$allocator@D@2@@2@@412@U?$integral_constant@I$00@412@@Z 100228a0 f i RelayInformationFactory.obj
 0002:00020930       ?uninitialized_copy_n_and_update@?$insert_copy_proxy@V?$allocator@V?$basic_string@DU?$char_traits@D@std@@V?$allocator@D@2@@std@@@std@@PAV?$basic_string@DU?$char_traits@D@std@@V?$allocator@D@2@@2@@container_detail@container@boost@@QBEXPAV?$basic_string@DU?$char_traits@D@std@@V?$allocator@D@2@@std@@I@Z 10022930 f i RelayInformationFactory.obj
 0002:00020980       ??$uninitialized_move_alloc@V?$allocator@V?$basic_string@DU?$char_traits@D@std@@V?$allocator@D@2@@std@@@std@@PAV?$basic_string@DU?$char_traits@D@std@@V?$allocator@D@2@@2@PAV32@@container@boost@@YAPAV?$basic_string@DU?$char_traits@D@std@@V?$allocator@D@2@@std@@AAV?$allocator@V?$basic_string@DU?$char_traits@D@std@@V?$allocator@D@2@@std@@@3@PAV23@11@Z 10022980 f i RelayInformationFactory.obj
 0002:00020a10       ??$priv_forward_range_insert_new_allocation@U?$insert_copy_proxy@V?$allocator@V?$basic_string@DU?$char_traits@D@std@@V?$allocator@D@2@@std@@@std@@PAV?$basic_string@DU?$char_traits@D@std@@V?$allocator@D@2@@2@@container_detail@container@boost@@@?$vector@V?$basic_string@DU?$char_traits@D@std@@V?$allocator@D@2@@std@@V?$allocator@V?$basic_string@DU?$char_traits@D@std@@V?$allocator@D@2@@std@@@2@@container@boost@@AAEXQAV?$basic_string@DU?$char_traits@D@std@@V?$allocator@D@2@@std@@I0IU?$insert_copy_proxy@V?$allocator@V?$basic_string@DU?$char_traits@D@std@@V?$allocator@D@2@@std@@@std@@PAV?$basic_string@DU?$char_traits@D@std@@V?$allocator@D@2@@2@@container_detail@12@@Z 10022a10 f i RelayInformationFactory.obj
 0002:00020b30       ??1?$scoped_array_deallocator@V?$allocator@V?$basic_string@DU?$char_traits@D@std@@V?$allocator@D@2@@std@@@std@@@container_detail@container@boost@@QAE@XZ 10022b30 f i RelayInformationFactory.obj
 0002:00020b40       ??1?$scoped_destructor_n@V?$allocator@V?$basic_string@DU?$char_traits@D@std@@V?$allocator@D@2@@std@@@std@@@container_detail@container@boost@@QAE@XZ 10022b40 f i RelayInformationFactory.obj
 0002:00020b70       ??_ETopologyFactory@sass@@UAEPAXI@Z 10022b70 f i  CIL library: CIL module
 0002:00020b70       ??_G?$FactoryInterface@V?$basic_string@DU?$char_traits@D@std@@V?$allocator@D@2@@std@@UTopology@sass@@@atut@@UAEPAXI@Z 10022b70 f i TopologyFactory.obj
 0002:00020b70       ??_E?$FactoryInterface@V?$basic_string@DU?$char_traits@D@std@@V?$allocator@D@2@@std@@UTopology@sass@@@atut@@UAEPAXI@Z 10022b70 f i  CIL library: CIL module
 0002:00020b70       ??_GTopologyFactory@sass@@UAEPAXI@Z 10022b70 f i TopologyFactory.obj
 0002:00020ba0       ??1TopologyFactory@sass@@UAE@XZ 10022ba0 f   TopologyFactory.obj
 0002:00020bb0       ?create@TopologyFactory@sass@@UAEPAUTopology@2@ABV?$basic_string@DU?$char_traits@D@std@@V?$allocator@D@2@@std@@@Z 10022bb0 f   TopologyFactory.obj
 0002:000211f0       ??4?$map@VChannelIndex@sass@@V?$set@VChannelIndex@sass@@U?$less@VChannelIndex@sass@@@std@@V?$allocator@VChannelIndex@sass@@@4@@std@@U?$less@VChannelIndex@sass@@@4@V?$allocator@U?$pair@$$CBVChannelIndex@sass@@V?$set@VChannelIndex@sass@@U?$less@VChannelIndex@sass@@@std@@V?$allocator@VChannelIndex@sass@@@4@@std@@@std@@@4@@std@@QAEAAV01@ABV01@@Z 100231f0 f i TopologyFactory.obj
 0002:00021230       ?destroy@TopologyFactory@sass@@UAEXPAUTopology@2@@Z 10023230 f   TopologyFactory.obj
 0002:00021250       ?loadChannelIndexMap@TopologyFactory@sass@@CA?AV?$vector@V?$basic_string@DU?$char_traits@D@std@@V?$allocator@D@2@@std@@V?$allocator@V?$basic_string@DU?$char_traits@D@std@@V?$allocator@D@2@@std@@@2@@std@@ABVIniReader@2@@Z 10023250 f   TopologyFactory.obj
 0002:000212d0       ?loadInitialStateSet@TopologyFactory@sass@@CAXPBD0ABVRelayIndexMap@2@ABVIniReader@2@AAV?$set@IU?$less@I@std@@V?$allocator@I@2@@std@@@Z 100232d0 f   TopologyFactory.obj
 0002:00021340       ?loadConnectionListMap@TopologyFactory@sass@@CAXPBDABVRelayIndexMap@2@ABVNameIndexMap@2@ABVIniReader@2@AAV?$map@VDirectlyConnectableChannels@sass@@V?$set@IU?$less@I@std@@V?$allocator@I@2@@std@@U?$less@VDirectlyConnectableChannels@sass@@@4@V?$allocator@U?$pair@$$CBVDirectlyConnectableChannels@sass@@V?$set@IU?$less@I@std@@V?$allocator@I@2@@std@@@std@@@4@@std@@@Z 10023340 f   TopologyFactory.obj
 0002:000217b0       ?checkIfIncludesAllKeys@TopologyFactory@sass@@CA_NABV?$map@VDirectlyConnectableChannels@sass@@V?$set@IU?$less@I@std@@V?$allocator@I@2@@std@@U?$less@VDirectlyConnectableChannels@sass@@@4@V?$allocator@U?$pair@$$CBVDirectlyConnectableChannels@sass@@V?$set@IU?$less@I@std@@V?$allocator@I@2@@std@@@std@@@4@@std@@0@Z 100237b0 f   TopologyFactory.obj
 0002:00021810       ?loadMuxListMap@TopologyFactory@sass@@CAXPBDABVNameIndexMap@2@ABVIniReader@2@AAV?$map@VChannelIndex@sass@@V?$set@VChannelIndex@sass@@U?$less@VChannelIndex@sass@@@std@@V?$allocator@VChannelIndex@sass@@@4@@std@@U?$less@VChannelIndex@sass@@@4@V?$allocator@U?$pair@$$CBVChannelIndex@sass@@V?$set@VChannelIndex@sass@@U?$less@VChannelIndex@sass@@@std@@V?$allocator@VChannelIndex@sass@@@4@@std@@@std@@@4@@std@@@Z 10023810 f   TopologyFactory.obj
 0002:00021b60       ?fillRelaySWIndexSet@TopologyFactory@sass@@CAXABVRelayIndexMap@2@ABV?$basic_string@DU?$char_traits@D@std@@V?$allocator@D@2@@std@@AAV?$set@IU?$less@I@std@@V?$allocator@I@2@@5@@Z 10023b60 f   TopologyFactory.obj
 0002:00021c70       ??1?$vector@U?$pair@V?$basic_string@DU?$char_traits@D@std@@V?$allocator@D@2@@std@@V12@@std@@V?$allocator@U?$pair@V?$basic_string@DU?$char_traits@D@std@@V?$allocator@D@2@@std@@V12@@std@@@2@@std@@QAE@XZ 10023c70 f i TopologyFactory.obj
 0002:00021ce0       ??0?$pair@$$CBVDirectlyConnectableChannels@sass@@V?$set@IU?$less@I@std@@V?$allocator@I@2@@std@@@std@@QAE@ABVDirectlyConnectableChannels@sass@@ABV?$set@IU?$less@I@std@@V?$allocator@I@2@@1@@Z 10023ce0 f i TopologyFactory.obj
 0002:00021d40       ??_GDirectlyConnectableChannels@sass@@UAEPAXI@Z 10023d40 f i TopologyFactory.obj
 0002:00021d40       ??_EDirectlyConnectableChannels@sass@@UAEPAXI@Z 10023d40 f i  CIL library: CIL module
 0002:00021d70       ??0?$_Tree@V?$_Tset_traits@IU?$less@I@std@@V?$allocator@I@2@$0A@@std@@@std@@QAE@ABU?$less@I@1@ABV?$allocator@I@1@@Z 10023d70 f i TopologyFactory.obj
 0002:00021de0       ??0?$_Tree@V?$_Tset_traits@IU?$less@I@std@@V?$allocator@I@2@$0A@@std@@@std@@QAE@ABV01@@Z 10023de0 f i TopologyFactory.obj
 0002:00021e80       ?_Copy@?$_Tree@V?$_Tmap_traits@VChannelIndex@sass@@V?$set@VChannelIndex@sass@@U?$less@VChannelIndex@sass@@@std@@V?$allocator@VChannelIndex@sass@@@4@@std@@U?$less@VChannelIndex@sass@@@4@V?$allocator@U?$pair@$$CBVChannelIndex@sass@@V?$set@VChannelIndex@sass@@U?$less@VChannelIndex@sass@@@std@@V?$allocator@VChannelIndex@sass@@@4@@std@@@std@@@4@$0A@@std@@@std@@IAEXABV12@@Z 10023e80 f i TopologyFactory.obj
 0002:00021ef0       ??0?$_Tree@V?$_Tset_traits@VChannelIndex@sass@@U?$less@VChannelIndex@sass@@@std@@V?$allocator@VChannelIndex@sass@@@4@$0A@@std@@@std@@QAE@ABU?$less@VChannelIndex@sass@@@1@ABV?$allocator@VChannelIndex@sass@@@1@@Z 10023ef0 f i TopologyFactory.obj
 0002:00021ef0       ??0?$_Tree@V?$_Tset_traits@GU?$less@G@std@@V?$allocator@G@2@$0A@@std@@@std@@QAE@ABU?$less@G@1@ABV?$allocator@G@1@@Z 10023ef0 f i RelayInformationFactory.obj
 0002:00021f60       ??0?$_Tree@V?$_Tset_traits@VChannelIndex@sass@@U?$less@VChannelIndex@sass@@@std@@V?$allocator@VChannelIndex@sass@@@4@$0A@@std@@@std@@QAE@ABV01@@Z 10023f60 f i TopologyFactory.obj
 0002:00022000       ?_Copy@?$_Tree@V?$_Tset_traits@IU?$less@I@std@@V?$allocator@I@2@$0A@@std@@@std@@IAEXABV12@@Z 10024000 f i TopologyFactory.obj
 0002:00022070       ?_Copy@?$_Tree@V?$_Tmap_traits@VChannelIndex@sass@@V?$set@VChannelIndex@sass@@U?$less@VChannelIndex@sass@@@std@@V?$allocator@VChannelIndex@sass@@@4@@std@@U?$less@VChannelIndex@sass@@@4@V?$allocator@U?$pair@$$CBVChannelIndex@sass@@V?$set@VChannelIndex@sass@@U?$less@VChannelIndex@sass@@@std@@V?$allocator@VChannelIndex@sass@@@4@@std@@@std@@@4@$0A@@std@@@std@@IAEPAU_Node@?$_Tree_nod@V?$_Tmap_traits@VChannelIndex@sass@@V?$set@VChannelIndex@sass@@U?$less@VChannelIndex@sass@@@std@@V?$allocator@VChannelIndex@sass@@@4@@std@@U?$less@VChannelIndex@sass@@@4@V?$allocator@U?$pair@$$CBVChannelIndex@sass@@V?$set@VChannelIndex@sass@@U?$less@VChannelIndex@sass@@@std@@V?$allocator@VChannelIndex@sass@@@4@@std@@@std@@@4@$0A@@std@@@2@PAU342@0@Z 10024070 f i TopologyFactory.obj
 0002:00022120       ?_Destroy@?$vector@U?$pair@V?$basic_string@DU?$char_traits@D@std@@V?$allocator@D@2@@std@@V12@@std@@V?$allocator@U?$pair@V?$basic_string@DU?$char_traits@D@std@@V?$allocator@D@2@@std@@V12@@std@@@2@@std@@IAEXPAU?$pair@V?$basic_string@DU?$char_traits@D@std@@V?$allocator@D@2@@std@@V12@@2@0@Z 10024120 f i TopologyFactory.obj
 0002:00022140       ?_Copy@?$_Tree@V?$_Tset_traits@VChannelIndex@sass@@U?$less@VChannelIndex@sass@@@std@@V?$allocator@VChannelIndex@sass@@@4@$0A@@std@@@std@@IAEXABV12@@Z 10024140 f i TopologyFactory.obj
 0002:000221b0       ?_Copy@?$_Tree@V?$_Tset_traits@IU?$less@I@std@@V?$allocator@I@2@$0A@@std@@@std@@IAEPAU_Node@?$_Tree_nod@V?$_Tset_traits@IU?$less@I@std@@V?$allocator@I@2@$0A@@std@@@2@PAU342@0@Z 100241b0 f i TopologyFactory.obj
 0002:00022260       ?_Buynode@?$_Tree@V?$_Tset_traits@IU?$less@I@std@@V?$allocator@I@2@$0A@@std@@@std@@IAEPAU_Node@?$_Tree_nod@V?$_Tset_traits@IU?$less@I@std@@V?$allocator@I@2@$0A@@std@@@2@XZ 10024260 f i TopologyFactory.obj
 0002:000222a0       ?_Buynode@?$_Tree@V?$_Tmap_traits@VChannelIndex@sass@@V?$set@VChannelIndex@sass@@U?$less@VChannelIndex@sass@@@std@@V?$allocator@VChannelIndex@sass@@@4@@std@@U?$less@VChannelIndex@sass@@@4@V?$allocator@U?$pair@$$CBVChannelIndex@sass@@V?$set@VChannelIndex@sass@@U?$less@VChannelIndex@sass@@@std@@V?$allocator@VChannelIndex@sass@@@4@@std@@@std@@@4@$0A@@std@@@std@@IAEPAU_Node@?$_Tree_nod@V?$_Tmap_traits@VChannelIndex@sass@@V?$set@VChannelIndex@sass@@U?$less@VChannelIndex@sass@@@std@@V?$allocator@VChannelIndex@sass@@@4@@std@@U?$less@VChannelIndex@sass@@@4@V?$allocator@U?$pair@$$CBVChannelIndex@sass@@V?$set@VChannelIndex@sass@@U?$less@VChannelIndex@sass@@@std@@V?$allocator@VChannelIndex@sass@@@4@@std@@@std@@@4@$0A@@std@@@2@PAU342@00ABU?$pair@$$CBVChannelIndex@sass@@V?$set@VChannelIndex@sass@@U?$less@VChannelIndex@sass@@@std@@V?$allocator@VChannelIndex@sass@@@4@@std@@@2@D@Z 100242a0 f i TopologyFactory.obj
 0002:00022340       ?_Copy@?$_Tree@V?$_Tset_traits@VChannelIndex@sass@@U?$less@VChannelIndex@sass@@@std@@V?$allocator@VChannelIndex@sass@@@4@$0A@@std@@@std@@IAEPAU_Node@?$_Tree_nod@V?$_Tset_traits@VChannelIndex@sass@@U?$less@VChannelIndex@sass@@@std@@V?$allocator@VChannelIndex@sass@@@4@$0A@@std@@@2@PAU342@0@Z 10024340 f i TopologyFactory.obj
 0002:000223f0       ?_Buynode@?$_Tree@V?$_Tset_traits@VChannelIndex@sass@@U?$less@VChannelIndex@sass@@@std@@V?$allocator@VChannelIndex@sass@@@4@$0A@@std@@@std@@IAEPAU_Node@?$_Tree_nod@V?$_Tset_traits@VChannelIndex@sass@@U?$less@VChannelIndex@sass@@@std@@V?$allocator@VChannelIndex@sass@@@4@$0A@@std@@@2@XZ 100243f0 f i TopologyFactory.obj
 0002:000223f0       ?_Buynode@?$_Tree@V?$_Tset_traits@GU?$less@G@std@@V?$allocator@G@2@$0A@@std@@@std@@IAEPAU_Node@?$_Tree_nod@V?$_Tset_traits@GU?$less@G@std@@V?$allocator@G@2@$0A@@std@@@2@XZ 100243f0 f i RelayInformationFactory.obj
 0002:00022430       ?_Buynode@?$_Tree@V?$_Tset_traits@IU?$less@I@std@@V?$allocator@I@2@$0A@@std@@@std@@IAEPAU_Node@?$_Tree_nod@V?$_Tset_traits@IU?$less@I@std@@V?$allocator@I@2@$0A@@std@@@2@PAU342@00ABID@Z 10024430 f i TopologyFactory.obj
 0002:00022470       ?_Buynode@?$_Tree@V?$_Tset_traits@VChannelIndex@sass@@U?$less@VChannelIndex@sass@@@std@@V?$allocator@VChannelIndex@sass@@@4@$0A@@std@@@std@@IAEPAU_Node@?$_Tree_nod@V?$_Tset_traits@VChannelIndex@sass@@U?$less@VChannelIndex@sass@@@std@@V?$allocator@VChannelIndex@sass@@@4@$0A@@std@@@2@PAU342@00ABVChannelIndex@sass@@D@Z 10024470 f i TopologyFactory.obj
 0002:000224b0       ??$?0V?$_Vector_iterator@V?$basic_string@DU?$char_traits@D@std@@V?$allocator@D@2@@std@@V?$allocator@V?$basic_string@DU?$char_traits@D@std@@V?$allocator@D@2@@std@@@2@@std@@@Topology@sass@@QAE@V?$_Vector_iterator@V?$basic_string@DU?$char_traits@D@std@@V?$allocator@D@2@@std@@V?$allocator@V?$basic_string@DU?$char_traits@D@std@@V?$allocator@D@2@@std@@@2@@std@@0@Z 100244b0 f i TopologyFactory.obj
 0002:00022580       ??$getItemData@V?$basic_string@DU?$char_traits@D@std@@V?$allocator@D@2@@std@@@IniReader@sass@@QBE?AV?$basic_string@DU?$char_traits@D@std@@V?$allocator@D@2@@std@@PBD0@Z 10024580 f i TopologyFactory.obj
 0002:00022950       ??$getSectionData@V?$basic_string@DU?$char_traits@D@std@@V?$allocator@D@2@@std@@@IniReader@sass@@QBE?AV?$vector@U?$pair@V?$basic_string@DU?$char_traits@D@std@@V?$allocator@D@2@@std@@V12@@std@@V?$allocator@U?$pair@V?$basic_string@DU?$char_traits@D@std@@V?$allocator@D@2@@std@@V12@@std@@@2@@std@@PBD@Z 10024950 f i TopologyFactory.obj
 0002:00022d20       ??$iter_split@V?$vector@V?$basic_string@DU?$char_traits@D@std@@V?$allocator@D@2@@std@@V?$allocator@V?$basic_string@DU?$char_traits@D@std@@V?$allocator@D@2@@std@@@2@@std@@V?$basic_string@DU?$char_traits@D@std@@V?$allocator@D@2@@2@U?$first_finderF@PBDUis_equal@algorithm@boost@@@detail@algorithm@boost@@@algorithm@boost@@YAAAV?$vector@V?$basic_string@DU?$char_traits@D@std@@V?$allocator@D@2@@std@@V?$allocator@V?$basic_string@DU?$char_traits@D@std@@V?$allocator@D@2@@std@@@2@@std@@AAV23@AAV?$basic_string@DU?$char_traits@D@std@@V?$allocator@D@2@@3@U?$first_finderF@PBDUis_equal@algorithm@boost@@@detail@01@@Z 10024d20 f i TopologyFactory.obj
 0002:00022ea0       ??$errorCheckedInsert@V?$map@VDirectlyConnectableChannels@sass@@V?$set@IU?$less@I@std@@V?$allocator@I@2@@std@@U?$less@VDirectlyConnectableChannels@sass@@@4@V?$allocator@U?$pair@$$CBVDirectlyConnectableChannels@sass@@V?$set@IU?$less@I@std@@V?$allocator@I@2@@std@@@std@@@4@@std@@@TopologyFactory@sass@@CAXAAV?$map@VDirectlyConnectableChannels@sass@@V?$set@IU?$less@I@std@@V?$allocator@I@2@@std@@U?$less@VDirectlyConnectableChannels@sass@@@4@V?$allocator@U?$pair@$$CBVDirectlyConnectableChannels@sass@@V?$set@IU?$less@I@std@@V?$allocator@I@2@@std@@@std@@@4@@std@@ABU?$pair@$$CBVDirectlyConnectableChannels@sass@@V?$set@IU?$less@I@std@@V?$allocator@I@2@@std@@@3@HPBD@Z 10024ea0 f i TopologyFactory.obj
 0002:00022fb0       ??$includes@V?$select_first_range@V?$map@VDirectlyConnectableChannels@sass@@V?$set@IU?$less@I@std@@V?$allocator@I@2@@std@@U?$less@VDirectlyConnectableChannels@sass@@@4@V?$allocator@U?$pair@$$CBVDirectlyConnectableChannels@sass@@V?$set@IU?$less@I@std@@V?$allocator@I@2@@std@@@std@@@4@@std@@@range_detail@boost@@V123@@range@boost@@YA_NABV?$select_first_range@V?$map@VDirectlyConnectableChannels@sass@@V?$set@IU?$less@I@std@@V?$allocator@I@2@@std@@U?$less@VDirectlyConnectableChannels@sass@@@4@V?$allocator@U?$pair@$$CBVDirectlyConnectableChannels@sass@@V?$set@IU?$less@I@std@@V?$allocator@I@2@@std@@@std@@@4@@std@@@range_detail@1@0@Z 10024fb0 f i TopologyFactory.obj
 0002:00023020       ??$errorCheckedInsert@V?$set@VChannelIndex@sass@@U?$less@VChannelIndex@sass@@@std@@V?$allocator@VChannelIndex@sass@@@4@@std@@@TopologyFactory@sass@@CAXAAV?$set@VChannelIndex@sass@@U?$less@VChannelIndex@sass@@@std@@V?$allocator@VChannelIndex@sass@@@4@@std@@ABVChannelIndex@1@HPBD@Z 10025020 f i TopologyFactory.obj
 0002:00023130       ??$errorCheckedInsert@V?$map@VChannelIndex@sass@@V?$set@VChannelIndex@sass@@U?$less@VChannelIndex@sass@@@std@@V?$allocator@VChannelIndex@sass@@@4@@std@@U?$less@VChannelIndex@sass@@@4@V?$allocator@U?$pair@$$CBVChannelIndex@sass@@V?$set@VChannelIndex@sass@@U?$less@VChannelIndex@sass@@@std@@V?$allocator@VChannelIndex@sass@@@4@@std@@@std@@@4@@std@@@TopologyFactory@sass@@CAXAAV?$map@VChannelIndex@sass@@V?$set@VChannelIndex@sass@@U?$less@VChannelIndex@sass@@@std@@V?$allocator@VChannelIndex@sass@@@4@@std@@U?$less@VChannelIndex@sass@@@4@V?$allocator@U?$pair@$$CBVChannelIndex@sass@@V?$set@VChannelIndex@sass@@U?$less@VChannelIndex@sass@@@std@@V?$allocator@VChannelIndex@sass@@@4@@std@@@std@@@4@@std@@ABU?$pair@$$CBVChannelIndex@sass@@V?$set@VChannelIndex@sass@@U?$less@VChannelIndex@sass@@@std@@V?$allocator@VChannelIndex@sass@@@4@@std@@@3@HPBD@Z 10025130 f i TopologyFactory.obj
 0002:00023240       ??$errorCheckedInsert@V?$set@IU?$less@I@std@@V?$allocator@I@2@@std@@@TopologyFactory@sass@@CAXAAV?$set@IU?$less@I@std@@V?$allocator@I@2@@std@@ABIHPBD@Z 10025240 f i TopologyFactory.obj
 0002:00023350       ?destroy@?$allocator@U?$pair@V?$basic_string@DU?$char_traits@D@std@@V?$allocator@D@2@@std@@V12@@std@@@std@@QAEXPAU?$pair@V?$basic_string@DU?$char_traits@D@std@@V?$allocator@D@2@@std@@V12@@2@@Z 10025350 f i TopologyFactory.obj
 0002:00023350       ??1?$pair@V?$basic_string@DU?$char_traits@D@std@@V?$allocator@D@2@@std@@V12@@std@@QAE@XZ 10025350 f i TopologyFactory.obj
 0002:00023350       ??1?$char_separator@DU?$char_traits@D@std@@@boost@@QAE@XZ 10025350 f i stringUtilities.obj
 0002:000233a0       ??1?$split_iterator@V?$_String_const_iterator@DU?$char_traits@D@std@@V?$allocator@D@2@@std@@@algorithm@boost@@QAE@XZ 100253a0 f i ChannelAPIInputProcessor.obj
 0002:000233a0       ??1?$transform_iterator@U?$copy_iterator_rangeF@V?$basic_string@DU?$char_traits@D@std@@V?$allocator@D@2@@std@@V?$_String_const_iterator@DU?$char_traits@D@std@@V?$allocator@D@2@@2@@detail@algorithm@boost@@V?$split_iterator@V?$_String_const_iterator@DU?$char_traits@D@std@@V?$allocator@D@2@@std@@@34@Uuse_default@4@U64@@boost@@QAE@XZ 100253a0 f i ChannelAPIInputProcessor.obj
 0002:000233a0       ??1?$transform_iterator@U?$copy_iterator_rangeF@V?$basic_string@DU?$char_traits@D@std@@V?$allocator@D@2@@std@@V?$_String_iterator@DU?$char_traits@D@std@@V?$allocator@D@2@@2@@detail@algorithm@boost@@V?$split_iterator@V?$_String_iterator@DU?$char_traits@D@std@@V?$allocator@D@2@@std@@@34@Uuse_default@4@U64@@boost@@QAE@XZ 100253a0 f i TopologyFactory.obj
 0002:000233a0       ??1?$find_iterator_base@V?$_String_iterator@DU?$char_traits@D@std@@V?$allocator@D@2@@std@@@detail@algorithm@boost@@IAE@XZ 100253a0 f i TopologyFactory.obj
 0002:000233a0       ??1?$find_iterator_base@V?$_String_const_iterator@DU?$char_traits@D@std@@V?$allocator@D@2@@std@@@detail@algorithm@boost@@IAE@XZ 100253a0 f i ChannelAPIInputProcessor.obj
 0002:000233a0       ??1?$split_iterator@V?$_String_iterator@DU?$char_traits@D@std@@V?$allocator@D@2@@std@@@algorithm@boost@@QAE@XZ 100253a0 f i TopologyFactory.obj
 0002:000233d0       ?insert@?$_Tree@V?$_Tset_traits@IU?$less@I@std@@V?$allocator@I@2@$0A@@std@@@std@@QAE?AU?$pair@Viterator@?$_Tree@V?$_Tset_traits@IU?$less@I@std@@V?$allocator@I@2@$0A@@std@@@std@@_N@2@ABI@Z 100253d0 f i TopologyFactory.obj
 0002:000234c0       ?insert@?$_Tree@V?$_Tmap_traits@VDirectlyConnectableChannels@sass@@V?$set@IU?$less@I@std@@V?$allocator@I@2@@std@@U?$less@VDirectlyConnectableChannels@sass@@@4@V?$allocator@U?$pair@$$CBVDirectlyConnectableChannels@sass@@V?$set@IU?$less@I@std@@V?$allocator@I@2@@std@@@std@@@4@$0A@@std@@@std@@QAE?AU?$pair@Viterator@?$_Tree@V?$_Tmap_traits@VDirectlyConnectableChannels@sass@@V?$set@IU?$less@I@std@@V?$allocator@I@2@@std@@U?$less@VDirectlyConnectableChannels@sass@@@4@V?$allocator@U?$pair@$$CBVDirectlyConnectableChannels@sass@@V?$set@IU?$less@I@std@@V?$allocator@I@2@@std@@@std@@@4@$0A@@std@@@std@@_N@2@ABU?$pair@$$CBVDirectlyConnectableChannels@sass@@V?$set@IU?$less@I@std@@V?$allocator@I@2@@std@@@2@@Z 100254c0 f i TopologyFactory.obj
 0002:000235c0       ?insert@?$_Tree@V?$_Tmap_traits@VChannelIndex@sass@@V?$set@VChannelIndex@sass@@U?$less@VChannelIndex@sass@@@std@@V?$allocator@VChannelIndex@sass@@@4@@std@@U?$less@VChannelIndex@sass@@@4@V?$allocator@U?$pair@$$CBVChannelIndex@sass@@V?$set@VChannelIndex@sass@@U?$less@VChannelIndex@sass@@@std@@V?$allocator@VChannelIndex@sass@@@4@@std@@@std@@@4@$0A@@std@@@std@@QAE?AU?$pair@Viterator@?$_Tree@V?$_Tmap_traits@VChannelIndex@sass@@V?$set@VChannelIndex@sass@@U?$less@VChannelIndex@sass@@@std@@V?$allocator@VChannelIndex@sass@@@4@@std@@U?$less@VChannelIndex@sass@@@4@V?$allocator@U?$pair@$$CBVChannelIndex@sass@@V?$set@VChannelIndex@sass@@U?$less@VChannelIndex@sass@@@std@@V?$allocator@VChannelIndex@sass@@@4@@std@@@std@@@4@$0A@@std@@@std@@_N@2@ABU?$pair@$$CBVChannelIndex@sass@@V?$set@VChannelIndex@sass@@U?$less@VChannelIndex@sass@@@std@@V?$allocator@VChannelIndex@sass@@@4@@std@@@2@@Z 100255c0 f i TopologyFactory.obj
 0002:00023720       ?reserve@?$vector@U?$pair@V?$basic_string@DU?$char_traits@D@std@@V?$allocator@D@2@@std@@V12@@std@@V?$allocator@U?$pair@V?$basic_string@DU?$char_traits@D@std@@V?$allocator@D@2@@std@@V12@@std@@@2@@std@@QAEXI@Z 10025720 f i TopologyFactory.obj
 0002:00023870       ?back@?$vector@U?$pair@V?$basic_string@DU?$char_traits@D@std@@V?$allocator@D@2@@std@@V12@@std@@V?$allocator@U?$pair@V?$basic_string@DU?$char_traits@D@std@@V?$allocator@D@2@@std@@V12@@std@@@2@@std@@QAEAAU?$pair@V?$basic_string@DU?$char_traits@D@std@@V?$allocator@D@2@@std@@V12@@2@XZ 10025870 f i TopologyFactory.obj
 0002:000238f0       ?push_back@?$vector@U?$pair@V?$basic_string@DU?$char_traits@D@std@@V?$allocator@D@2@@std@@V12@@std@@V?$allocator@U?$pair@V?$basic_string@DU?$char_traits@D@std@@V?$allocator@D@2@@std@@V12@@std@@@2@@std@@QAEXABU?$pair@V?$basic_string@DU?$char_traits@D@std@@V?$allocator@D@2@@std@@V12@@2@@Z 100258f0 f i TopologyFactory.obj
 0002:00023990       ?insert@?$_Tree@V?$_Tset_traits@VChannelIndex@sass@@U?$less@VChannelIndex@sass@@@std@@V?$allocator@VChannelIndex@sass@@@4@$0A@@std@@@std@@QAE?AU?$pair@Viterator@?$_Tree@V?$_Tset_traits@VChannelIndex@sass@@U?$less@VChannelIndex@sass@@@std@@V?$allocator@VChannelIndex@sass@@@4@$0A@@std@@@std@@_N@2@ABVChannelIndex@sass@@@Z 10025990 f i TopologyFactory.obj
 0002:00023af0       ??0?$split_iterator@V?$_String_iterator@DU?$char_traits@D@std@@V?$allocator@D@2@@std@@@algorithm@boost@@QAE@ABV012@@Z 10025af0 f i TopologyFactory.obj
 0002:00023af0       ??0?$split_iterator@V?$_String_const_iterator@DU?$char_traits@D@std@@V?$allocator@D@2@@std@@@algorithm@boost@@QAE@ABV012@@Z 10025af0 f i ChannelAPIInputProcessor.obj
 0002:00023b80       ?_Insert@?$_Tree@V?$_Tset_traits@IU?$less@I@std@@V?$allocator@I@2@$0A@@std@@@std@@IAE?AViterator@12@_NPAU_Node@?$_Tree_nod@V?$_Tset_traits@IU?$less@I@std@@V?$allocator@I@2@$0A@@std@@@2@ABI@Z 10025b80 f i TopologyFactory.obj
 0002:00023d90       ??0?$_Tree@V?$_Tmap_traits@VDirectlyConnectableChannels@sass@@V?$set@IU?$less@I@std@@V?$allocator@I@2@@std@@U?$less@VDirectlyConnectableChannels@sass@@@4@V?$allocator@U?$pair@$$CBVDirectlyConnectableChannels@sass@@V?$set@IU?$less@I@std@@V?$allocator@I@2@@std@@@std@@@4@$0A@@std@@@std@@QAE@ABU?$less@VDirectlyConnectableChannels@sass@@@1@ABV?$allocator@U?$pair@$$CBVDirectlyConnectableChannels@sass@@V?$set@IU?$less@I@std@@V?$allocator@I@2@@std@@@std@@@1@@Z 10025d90 f i TopologyFactory.obj
 0002:00023e00       ?_Insert@?$_Tree@V?$_Tmap_traits@VDirectlyConnectableChannels@sass@@V?$set@IU?$less@I@std@@V?$allocator@I@2@@std@@U?$less@VDirectlyConnectableChannels@sass@@@4@V?$allocator@U?$pair@$$CBVDirectlyConnectableChannels@sass@@V?$set@IU?$less@I@std@@V?$allocator@I@2@@std@@@std@@@4@$0A@@std@@@std@@IAE?AViterator@12@_NPAU_Node@?$_Tree_nod@V?$_Tmap_traits@VDirectlyConnectableChannels@sass@@V?$set@IU?$less@I@std@@V?$allocator@I@2@@std@@U?$less@VDirectlyConnectableChannels@sass@@@4@V?$allocator@U?$pair@$$CBVDirectlyConnectableChannels@sass@@V?$set@IU?$less@I@std@@V?$allocator@I@2@@std@@@std@@@4@$0A@@std@@@2@ABU?$pair@$$CBVDirectlyConnectableChannels@sass@@V?$set@IU?$less@I@std@@V?$allocator@I@2@@std@@@2@@Z 10025e00 f i TopologyFactory.obj
 0002:00024010       ??0?$_Tree@V?$_Tmap_traits@VChannelIndex@sass@@V?$set@VChannelIndex@sass@@U?$less@VChannelIndex@sass@@@std@@V?$allocator@VChannelIndex@sass@@@4@@std@@U?$less@VChannelIndex@sass@@@4@V?$allocator@U?$pair@$$CBVChannelIndex@sass@@V?$set@VChannelIndex@sass@@U?$less@VChannelIndex@sass@@@std@@V?$allocator@VChannelIndex@sass@@@4@@std@@@std@@@4@$0A@@std@@@std@@QAE@ABU?$less@VChannelIndex@sass@@@1@ABV?$allocator@U?$pair@$$CBVChannelIndex@sass@@V?$set@VChannelIndex@sass@@U?$less@VChannelIndex@sass@@@std@@V?$allocator@VChannelIndex@sass@@@4@@std@@@std@@@1@@Z 10026010 f i TopologyFactory.obj
 0002:00024080       ?_Insert@?$_Tree@V?$_Tmap_traits@VChannelIndex@sass@@V?$set@VChannelIndex@sass@@U?$less@VChannelIndex@sass@@@std@@V?$allocator@VChannelIndex@sass@@@4@@std@@U?$less@VChannelIndex@sass@@@4@V?$allocator@U?$pair@$$CBVChannelIndex@sass@@V?$set@VChannelIndex@sass@@U?$less@VChannelIndex@sass@@@std@@V?$allocator@VChannelIndex@sass@@@4@@std@@@std@@@4@$0A@@std@@@std@@IAE?AViterator@12@_NPAU_Node@?$_Tree_nod@V?$_Tmap_traits@VChannelIndex@sass@@V?$set@VChannelIndex@sass@@U?$less@VChannelIndex@sass@@@std@@V?$allocator@VChannelIndex@sass@@@4@@std@@U?$less@VChannelIndex@sass@@@4@V?$allocator@U?$pair@$$CBVChannelIndex@sass@@V?$set@VChannelIndex@sass@@U?$less@VChannelIndex@sass@@@std@@V?$allocator@VChannelIndex@sass@@@4@@std@@@std@@@4@$0A@@std@@@2@ABU?$pair@$$CBVChannelIndex@sass@@V?$set@VChannelIndex@sass@@U?$less@VChannelIndex@sass@@@std@@V?$allocator@VChannelIndex@sass@@@4@@std@@@2@@Z 10026080 f i TopologyFactory.obj
 0002:00024290       ?insert@?$vector@U?$pair@V?$basic_string@DU?$char_traits@D@std@@V?$allocator@D@2@@std@@V12@@std@@V?$allocator@U?$pair@V?$basic_string@DU?$char_traits@D@std@@V?$allocator@D@2@@std@@V12@@std@@@2@@std@@QAE?AV?$_Vector_iterator@U?$pair@V?$basic_string@DU?$char_traits@D@std@@V?$allocator@D@2@@std@@V12@@std@@V?$allocator@U?$pair@V?$basic_string@DU?$char_traits@D@std@@V?$allocator@D@2@@std@@V12@@std@@@2@@2@V?$_Vector_const_iterator@U?$pair@V?$basic_string@DU?$char_traits@D@std@@V?$allocator@D@2@@std@@V12@@std@@V?$allocator@U?$pair@V?$basic_string@DU?$char_traits@D@std@@V?$allocator@D@2@@std@@V12@@std@@@2@@2@ABU?$pair@V?$basic_string@DU?$char_traits@D@std@@V?$allocator@D@2@@std@@V12@@2@@Z 10026290 f i TopologyFactory.obj
 0002:00024370       ?_Ufill@?$vector@U?$pair@V?$basic_string@DU?$char_traits@D@std@@V?$allocator@D@2@@std@@V12@@std@@V?$allocator@U?$pair@V?$basic_string@DU?$char_traits@D@std@@V?$allocator@D@2@@std@@V12@@std@@@2@@std@@IAEPAU?$pair@V?$basic_string@DU?$char_traits@D@std@@V?$allocator@D@2@@std@@V12@@2@PAU32@IABU32@@Z 10026370 f i TopologyFactory.obj
 0002:000243a0       ?_Insert@?$_Tree@V?$_Tset_traits@VChannelIndex@sass@@U?$less@VChannelIndex@sass@@@std@@V?$allocator@VChannelIndex@sass@@@4@$0A@@std@@@std@@IAE?AViterator@12@_NPAU_Node@?$_Tree_nod@V?$_Tset_traits@VChannelIndex@sass@@U?$less@VChannelIndex@sass@@@std@@V?$allocator@VChannelIndex@sass@@@4@$0A@@std@@@2@ABVChannelIndex@sass@@@Z 100263a0 f i TopologyFactory.obj
 0002:000245b0       ?_Buynode@?$_Tree@V?$_Tmap_traits@VDirectlyConnectableChannels@sass@@V?$set@IU?$less@I@std@@V?$allocator@I@2@@std@@U?$less@VDirectlyConnectableChannels@sass@@@4@V?$allocator@U?$pair@$$CBVDirectlyConnectableChannels@sass@@V?$set@IU?$less@I@std@@V?$allocator@I@2@@std@@@std@@@4@$0A@@std@@@std@@IAEPAU_Node@?$_Tree_nod@V?$_Tmap_traits@VDirectlyConnectableChannels@sass@@V?$set@IU?$less@I@std@@V?$allocator@I@2@@std@@U?$less@VDirectlyConnectableChannels@sass@@@4@V?$allocator@U?$pair@$$CBVDirectlyConnectableChannels@sass@@V?$set@IU?$less@I@std@@V?$allocator@I@2@@std@@@std@@@4@$0A@@std@@@2@PAU342@00ABU?$pair@$$CBVDirectlyConnectableChannels@sass@@V?$set@IU?$less@I@std@@V?$allocator@I@2@@std@@@2@D@Z 100265b0 f i TopologyFactory.obj
 0002:00024650       ?_Insert_n@?$vector@U?$pair@V?$basic_string@DU?$char_traits@D@std@@V?$allocator@D@2@@std@@V12@@std@@V?$allocator@U?$pair@V?$basic_string@DU?$char_traits@D@std@@V?$allocator@D@2@@std@@V12@@std@@@2@@std@@IAEXV?$_Vector_const_iterator@U?$pair@V?$basic_string@DU?$char_traits@D@std@@V?$allocator@D@2@@std@@V12@@std@@V?$allocator@U?$pair@V?$basic_string@DU?$char_traits@D@std@@V?$allocator@D@2@@std@@V12@@std@@@2@@2@IABU?$pair@V?$basic_string@DU?$char_traits@D@std@@V?$allocator@D@2@@std@@V12@@2@@Z 10026650 f i TopologyFactory.obj
 0002:000249b0       ??0?$pair@V?$basic_string@DU?$char_traits@D@std@@V?$allocator@D@2@@std@@V12@@std@@QAE@ABU01@@Z 100269b0 f i TopologyFactory.obj
 0002:00024a00       ?_Buynode@?$_Tree@V?$_Tmap_traits@VDirectlyConnectableChannels@sass@@V?$set@IU?$less@I@std@@V?$allocator@I@2@@std@@U?$less@VDirectlyConnectableChannels@sass@@@4@V?$allocator@U?$pair@$$CBVDirectlyConnectableChannels@sass@@V?$set@IU?$less@I@std@@V?$allocator@I@2@@std@@@std@@@4@$0A@@std@@@std@@IAEPAU_Node@?$_Tree_nod@V?$_Tmap_traits@VDirectlyConnectableChannels@sass@@V?$set@IU?$less@I@std@@V?$allocator@I@2@@std@@U?$less@VDirectlyConnectableChannels@sass@@@4@V?$allocator@U?$pair@$$CBVDirectlyConnectableChannels@sass@@V?$set@IU?$less@I@std@@V?$allocator@I@2@@std@@@std@@@4@$0A@@std@@@2@XZ 10026a00 f i TopologyFactory.obj
 0002:00024a40       ?_Buynode@?$_Tree@V?$_Tmap_traits@VChannelIndex@sass@@V?$set@VChannelIndex@sass@@U?$less@VChannelIndex@sass@@@std@@V?$allocator@VChannelIndex@sass@@@4@@std@@U?$less@VChannelIndex@sass@@@4@V?$allocator@U?$pair@$$CBVChannelIndex@sass@@V?$set@VChannelIndex@sass@@U?$less@VChannelIndex@sass@@@std@@V?$allocator@VChannelIndex@sass@@@4@@std@@@std@@@4@$0A@@std@@@std@@IAEPAU_Node@?$_Tree_nod@V?$_Tmap_traits@VChannelIndex@sass@@V?$set@VChannelIndex@sass@@U?$less@VChannelIndex@sass@@@std@@V?$allocator@VChannelIndex@sass@@@4@@std@@U?$less@VChannelIndex@sass@@@4@V?$allocator@U?$pair@$$CBVChannelIndex@sass@@V?$set@VChannelIndex@sass@@U?$less@VChannelIndex@sass@@@std@@V?$allocator@VChannelIndex@sass@@@4@@std@@@std@@@4@$0A@@std@@@2@XZ 10026a40 f i TopologyFactory.obj
 0002:00024a80       ?_Dec@const_iterator@?$_Tree@V?$_Tmap_traits@VDirectlyConnectableChannels@sass@@V?$set@IU?$less@I@std@@V?$allocator@I@2@@std@@U?$less@VDirectlyConnectableChannels@sass@@@4@V?$allocator@U?$pair@$$CBVDirectlyConnectableChannels@sass@@V?$set@IU?$less@I@std@@V?$allocator@I@2@@std@@@std@@@4@$0A@@std@@@std@@QAEXXZ 10026a80 f i TopologyFactory.obj
 0002:00024b10       ?_Dec@const_iterator@?$_Tree@V?$_Tmap_traits@VChannelIndex@sass@@V?$set@VChannelIndex@sass@@U?$less@VChannelIndex@sass@@@std@@V?$allocator@VChannelIndex@sass@@@4@@std@@U?$less@VChannelIndex@sass@@@4@V?$allocator@U?$pair@$$CBVChannelIndex@sass@@V?$set@VChannelIndex@sass@@U?$less@VChannelIndex@sass@@@std@@V?$allocator@VChannelIndex@sass@@@4@@std@@@std@@@4@$0A@@std@@@std@@QAEXXZ 10026b10 f i TopologyFactory.obj
 0002:00024ba0       ?_Dec@const_iterator@?$_Tree@V?$_Tset_traits@IU?$less@I@std@@V?$allocator@I@2@$0A@@std@@@std@@QAEXXZ 10026ba0 f i TopologyFactory.obj
 0002:00024c30       ?_Dec@const_iterator@?$_Tree@V?$_Tset_traits@GU?$less@G@std@@V?$allocator@G@2@$0A@@std@@@std@@QAEXXZ 10026c30 f i RelayInformationFactory.obj
 0002:00024c30       ?_Dec@const_iterator@?$_Tree@V?$_Tset_traits@VChannelIndex@sass@@U?$less@VChannelIndex@sass@@@std@@V?$allocator@VChannelIndex@sass@@@4@$0A@@std@@@std@@QAEXXZ 10026c30 f i TopologyFactory.obj
 0002:00024cc0       ??0?$pair@$$CBVDirectlyConnectableChannels@sass@@V?$set@IU?$less@I@std@@V?$allocator@I@2@@std@@@std@@QAE@ABU01@@Z 10026cc0 f i TopologyFactory.obj
 0002:00024d20       ??$?0U?$first_finderF@PBDUis_equal@algorithm@boost@@@detail@algorithm@boost@@@?$split_iterator@V?$_String_iterator@DU?$char_traits@D@std@@V?$allocator@D@2@@std@@@algorithm@boost@@QAE@V?$_String_iterator@DU?$char_traits@D@std@@V?$allocator@D@2@@std@@0U?$first_finderF@PBDUis_equal@algorithm@boost@@@detail@12@@Z 10026d20 f i TopologyFactory.obj
 0002:00024d20       ??$?0U?$first_finderF@PBDUis_equal@algorithm@boost@@@detail@algorithm@boost@@@?$split_iterator@V?$_String_const_iterator@DU?$char_traits@D@std@@V?$allocator@D@2@@std@@@algorithm@boost@@QAE@V?$_String_const_iterator@DU?$char_traits@D@std@@V?$allocator@D@2@@std@@0U?$first_finderF@PBDUis_equal@algorithm@boost@@@detail@12@@Z 10026d20 f i ChannelAPIInputProcessor.obj
 0002:00024dd0       ??$?0V?$transform_iterator@U?$copy_iterator_rangeF@V?$basic_string@DU?$char_traits@D@std@@V?$allocator@D@2@@std@@V?$_String_iterator@DU?$char_traits@D@std@@V?$allocator@D@2@@2@@detail@algorithm@boost@@V?$split_iterator@V?$_String_iterator@DU?$char_traits@D@std@@V?$allocator@D@2@@std@@@34@Uuse_default@4@U64@@boost@@@?$vector@V?$basic_string@DU?$char_traits@D@std@@V?$allocator@D@2@@std@@V?$allocator@V?$basic_string@DU?$char_traits@D@std@@V?$allocator@D@2@@std@@@2@@std@@QAE@V?$transform_iterator@U?$copy_iterator_rangeF@V?$basic_string@DU?$char_traits@D@std@@V?$allocator@D@2@@std@@V?$_String_iterator@DU?$char_traits@D@std@@V?$allocator@D@2@@2@@detail@algorithm@boost@@V?$split_iterator@V?$_String_iterator@DU?$char_traits@D@std@@V?$allocator@D@2@@std@@@34@Uuse_default@4@U64@@boost@@0@Z 10026dd0 f i TopologyFactory.obj
 0002:00024eb0       ??$includes@V?$transform_iterator@U?$select_first@V?$map@VDirectlyConnectableChannels@sass@@V?$set@IU?$less@I@std@@V?$allocator@I@2@@std@@U?$less@VDirectlyConnectableChannels@sass@@@4@V?$allocator@U?$pair@$$CBVDirectlyConnectableChannels@sass@@V?$set@IU?$less@I@std@@V?$allocator@I@2@@std@@@std@@@4@@std@@@range_detail@boost@@Vconst_iterator@?$_Tree@V?$_Tmap_traits@VDirectlyConnectableChannels@sass@@V?$set@IU?$less@I@std@@V?$allocator@I@2@@std@@U?$less@VDirectlyConnectableChannels@sass@@@4@V?$allocator@U?$pair@$$CBVDirectlyConnectableChannels@sass@@V?$set@IU?$less@I@std@@V?$allocator@I@2@@std@@@std@@@4@$0A@@std@@@std@@Uuse_default@3@U73@@boost@@V12@@std@@YA_NV?$transform_iterator@U?$select_first@V?$map@VDirectlyConnectableChannels@sass@@V?$set@IU?$less@I@std@@V?$allocator@I@2@@std@@U?$less@VDirectlyConnectableChannels@sass@@@4@V?$allocator@U?$pair@$$CBVDirectlyConnectableChannels@sass@@V?$set@IU?$less@I@std@@V?$allocator@I@2@@std@@@std@@@4@@std@@@range_detail@boost@@Vconst_iterator@?$_Tree@V?$_Tmap_traits@VDirectlyConnectableChannels@sass@@V?$set@IU?$less@I@std@@V?$allocator@I@2@@std@@U?$less@VDirectlyConnectableChannels@sass@@@4@V?$allocator@U?$pair@$$CBVDirectlyConnectableChannels@sass@@V?$set@IU?$less@I@std@@V?$allocator@I@2@@std@@@std@@@4@$0A@@std@@@std@@Uuse_default@3@U73@@boost@@000@Z 10026eb0 f i TopologyFactory.obj
 0002:00024f20       ??$_Destroy_range@V?$allocator@U?$pair@V?$basic_string@DU?$char_traits@D@std@@V?$allocator@D@2@@std@@V12@@std@@@std@@@std@@YAXPAU?$pair@V?$basic_string@DU?$char_traits@D@std@@V?$allocator@D@2@@std@@V12@@0@0AAV?$allocator@U?$pair@V?$basic_string@DU?$char_traits@D@std@@V?$allocator@D@2@@std@@V12@@std@@@0@U_Nonscalar_ptr_iterator_tag@0@@Z 10026f20 f i TopologyFactory.obj
 0002:00024f80       ??$?RV?$_String_iterator@DU?$char_traits@D@std@@V?$allocator@D@2@@std@@@?$first_finderF@PBDUis_equal@algorithm@boost@@@detail@algorithm@boost@@QBE?AV?$iterator_range@V?$_String_iterator@DU?$char_traits@D@std@@V?$allocator@D@2@@std@@@3@V?$_String_iterator@DU?$char_traits@D@std@@V?$allocator@D@2@@std@@0@Z 10026f80 f i TopologyFactory.obj
 0002:00024f80       ??$?RV?$_String_const_iterator@DU?$char_traits@D@std@@V?$allocator@D@2@@std@@@?$first_finderF@PBDUis_equal@algorithm@boost@@@detail@algorithm@boost@@QBE?AV?$iterator_range@V?$_String_const_iterator@DU?$char_traits@D@std@@V?$allocator@D@2@@std@@@3@V?$_String_const_iterator@DU?$char_traits@D@std@@V?$allocator@D@2@@std@@0@Z 10026f80 f i ChannelAPIInputProcessor.obj
 0002:000250c0       ??$_Allocate@U?$pair@V?$basic_string@DU?$char_traits@D@std@@V?$allocator@D@2@@std@@V12@@std@@@std@@YAPAU?$pair@V?$basic_string@DU?$char_traits@D@std@@V?$allocator@D@2@@std@@V12@@0@IPAU10@@Z 100270c0 f i TopologyFactory.obj
 0002:000250c0       ??$_Allocate@U_Node@?$_Tree_nod@V?$_Tmap_traits@VDirectlyConnectableChannels@sass@@V?$set@IU?$less@I@std@@V?$allocator@I@2@@std@@U?$less@VDirectlyConnectableChannels@sass@@@4@V?$allocator@U?$pair@$$CBVDirectlyConnectableChannels@sass@@V?$set@IU?$less@I@std@@V?$allocator@I@2@@std@@@std@@@4@$0A@@std@@@std@@@std@@YAPAU_Node@?$_Tree_nod@V?$_Tmap_traits@VDirectlyConnectableChannels@sass@@V?$set@IU?$less@I@std@@V?$allocator@I@2@@std@@U?$less@VDirectlyConnectableChannels@sass@@@4@V?$allocator@U?$pair@$$CBVDirectlyConnectableChannels@sass@@V?$set@IU?$less@I@std@@V?$allocator@I@2@@std@@@std@@@4@$0A@@std@@@0@IPAU120@@Z 100270c0 f i TopologyFactory.obj
 0002:00025120       ??$_Umove@PAU?$pair@V?$basic_string@DU?$char_traits@D@std@@V?$allocator@D@2@@std@@V12@@std@@@?$vector@U?$pair@V?$basic_string@DU?$char_traits@D@std@@V?$allocator@D@2@@std@@V12@@std@@V?$allocator@U?$pair@V?$basic_string@DU?$char_traits@D@std@@V?$allocator@D@2@@std@@V12@@std@@@2@@std@@IAEPAU?$pair@V?$basic_string@DU?$char_traits@D@std@@V?$allocator@D@2@@std@@V12@@1@PAU21@00@Z 10027120 f i TopologyFactory.obj
 0002:00025150       ??$fill@PAU?$pair@V?$basic_string@DU?$char_traits@D@std@@V?$allocator@D@2@@std@@V12@@std@@U12@@std@@YAXPAU?$pair@V?$basic_string@DU?$char_traits@D@std@@V?$allocator@D@2@@std@@V12@@0@0ABU10@@Z 10027150 f i TopologyFactory.obj
 0002:00025190       ??$_Unchecked_move_backward@PAU?$pair@V?$basic_string@DU?$char_traits@D@std@@V?$allocator@D@2@@std@@V12@@std@@PAU12@@stdext@@YAPAU?$pair@V?$basic_string@DU?$char_traits@D@std@@V?$allocator@D@2@@std@@V12@@std@@PAU12@00@Z 10027190 f i TopologyFactory.obj
 0002:000251f0       ?increment@?$split_iterator@V?$_String_iterator@DU?$char_traits@D@std@@V?$allocator@D@2@@std@@@algorithm@boost@@AAEXXZ 100271f0 f i TopologyFactory.obj
 0002:000251f0       ?increment@?$split_iterator@V?$_String_const_iterator@DU?$char_traits@D@std@@V?$allocator@D@2@@std@@@algorithm@boost@@AAEXXZ 100271f0 f i ChannelAPIInputProcessor.obj
 0002:000252c0       ??$_Construct@V?$transform_iterator@U?$copy_iterator_rangeF@V?$basic_string@DU?$char_traits@D@std@@V?$allocator@D@2@@std@@V?$_String_iterator@DU?$char_traits@D@std@@V?$allocator@D@2@@2@@detail@algorithm@boost@@V?$split_iterator@V?$_String_iterator@DU?$char_traits@D@std@@V?$allocator@D@2@@std@@@34@Uuse_default@4@U64@@boost@@@?$vector@V?$basic_string@DU?$char_traits@D@std@@V?$allocator@D@2@@std@@V?$allocator@V?$basic_string@DU?$char_traits@D@std@@V?$allocator@D@2@@std@@@2@@std@@QAEXV?$transform_iterator@U?$copy_iterator_rangeF@V?$basic_string@DU?$char_traits@D@std@@V?$allocator@D@2@@std@@V?$_String_iterator@DU?$char_traits@D@std@@V?$allocator@D@2@@2@@detail@algorithm@boost@@V?$split_iterator@V?$_String_iterator@DU?$char_traits@D@std@@V?$allocator@D@2@@std@@@34@Uuse_default@4@U64@@boost@@0Uinput_iterator_tag@1@@Z 100272c0 f i TopologyFactory.obj
 0002:000253b0       ??$_Includes@V?$transform_iterator@U?$select_first@V?$map@VDirectlyConnectableChannels@sass@@V?$set@IU?$less@I@std@@V?$allocator@I@2@@std@@U?$less@VDirectlyConnectableChannels@sass@@@4@V?$allocator@U?$pair@$$CBVDirectlyConnectableChannels@sass@@V?$set@IU?$less@I@std@@V?$allocator@I@2@@std@@@std@@@4@@std@@@range_detail@boost@@Vconst_iterator@?$_Tree@V?$_Tmap_traits@VDirectlyConnectableChannels@sass@@V?$set@IU?$less@I@std@@V?$allocator@I@2@@std@@U?$less@VDirectlyConnectableChannels@sass@@@4@V?$allocator@U?$pair@$$CBVDirectlyConnectableChannels@sass@@V?$set@IU?$less@I@std@@V?$allocator@I@2@@std@@@std@@@4@$0A@@std@@@std@@Uuse_default@3@U73@@boost@@V12@@std@@YA_NV?$transform_iterator@U?$select_first@V?$map@VDirectlyConnectableChannels@sass@@V?$set@IU?$less@I@std@@V?$allocator@I@2@@std@@U?$less@VDirectlyConnectableChannels@sass@@@4@V?$allocator@U?$pair@$$CBVDirectlyConnectableChannels@sass@@V?$set@IU?$less@I@std@@V?$allocator@I@2@@std@@@std@@@4@@std@@@range_detail@boost@@Vconst_iterator@?$_Tree@V?$_Tmap_traits@VDirectlyConnectableChannels@sass@@V?$set@IU?$less@I@std@@V?$allocator@I@2@@std@@U?$less@VDirectlyConnectableChannels@sass@@@4@V?$allocator@U?$pair@$$CBVDirectlyConnectableChannels@sass@@V?$set@IU?$less@I@std@@V?$allocator@I@2@@std@@@std@@@4@$0A@@std@@@std@@Uuse_default@3@U73@@boost@@000@Z 100273b0 f i TopologyFactory.obj
 0002:000254f0       ??$_Uninit_fill_n@PAU?$pair@V?$basic_string@DU?$char_traits@D@std@@V?$allocator@D@2@@std@@V12@@std@@IU12@V?$allocator@U?$pair@V?$basic_string@DU?$char_traits@D@std@@V?$allocator@D@2@@std@@V12@@std@@@2@@std@@YAXPAU?$pair@V?$basic_string@DU?$char_traits@D@std@@V?$allocator@D@2@@std@@V12@@0@IABU10@AAV?$allocator@U?$pair@V?$basic_string@DU?$char_traits@D@std@@V?$allocator@D@2@@std@@V12@@std@@@0@U_Nonscalar_ptr_iterator_tag@0@U_Range_checked_iterator_tag@0@@Z 100274f0 f i TopologyFactory.obj
 0002:00025590       ??$insert@V?$transform_iterator@U?$copy_iterator_rangeF@V?$basic_string@DU?$char_traits@D@std@@V?$allocator@D@2@@std@@V?$_String_iterator@DU?$char_traits@D@std@@V?$allocator@D@2@@2@@detail@algorithm@boost@@V?$split_iterator@V?$_String_iterator@DU?$char_traits@D@std@@V?$allocator@D@2@@std@@@34@Uuse_default@4@U64@@boost@@@?$vector@V?$basic_string@DU?$char_traits@D@std@@V?$allocator@D@2@@std@@V?$allocator@V?$basic_string@DU?$char_traits@D@std@@V?$allocator@D@2@@std@@@2@@std@@QAEXV?$_Vector_const_iterator@V?$basic_string@DU?$char_traits@D@std@@V?$allocator@D@2@@std@@V?$allocator@V?$basic_string@DU?$char_traits@D@std@@V?$allocator@D@2@@std@@@2@@1@V?$transform_iterator@U?$copy_iterator_rangeF@V?$basic_string@DU?$char_traits@D@std@@V?$allocator@D@2@@std@@V?$_String_iterator@DU?$char_traits@D@std@@V?$allocator@D@2@@2@@detail@algorithm@boost@@V?$split_iterator@V?$_String_iterator@DU?$char_traits@D@std@@V?$allocator@D@2@@std@@@34@Uuse_default@4@U64@@boost@@1@Z 10027590 f i TopologyFactory.obj
 0002:00025660       ??$_Uninit_move@PAU?$pair@V?$basic_string@DU?$char_traits@D@std@@V?$allocator@D@2@@std@@V12@@std@@PAU12@V?$allocator@U?$pair@V?$basic_string@DU?$char_traits@D@std@@V?$allocator@D@2@@std@@V12@@std@@@2@@std@@YAPAU?$pair@V?$basic_string@DU?$char_traits@D@std@@V?$allocator@D@2@@std@@V12@@0@PAU10@00AAV?$allocator@U?$pair@V?$basic_string@DU?$char_traits@D@std@@V?$allocator@D@2@@std@@V12@@std@@@0@U_Swap_move_tag@0@U_Range_checked_iterator_tag@0@@Z 10027660 f i TopologyFactory.obj
 0002:00025760       ??$_Move_backward_opt@PAU?$pair@V?$basic_string@DU?$char_traits@D@std@@V?$allocator@D@2@@std@@V12@@std@@PAU12@Uforward_iterator_tag@2@@std@@YAPAU?$pair@V?$basic_string@DU?$char_traits@D@std@@V?$allocator@D@2@@std@@V12@@0@PAU10@00Uforward_iterator_tag@0@U_Swap_move_tag@0@U_Range_checked_iterator_tag@0@@Z 10027760 f i TopologyFactory.obj
 0002:000257a0       ??$_Insert@V?$transform_iterator@U?$copy_iterator_rangeF@V?$basic_string@DU?$char_traits@D@std@@V?$allocator@D@2@@std@@V?$_String_iterator@DU?$char_traits@D@std@@V?$allocator@D@2@@2@@detail@algorithm@boost@@V?$split_iterator@V?$_String_iterator@DU?$char_traits@D@std@@V?$allocator@D@2@@std@@@34@Uuse_default@4@U64@@boost@@@?$vector@V?$basic_string@DU?$char_traits@D@std@@V?$allocator@D@2@@std@@V?$allocator@V?$basic_string@DU?$char_traits@D@std@@V?$allocator@D@2@@std@@@2@@std@@QAEXV?$_Vector_const_iterator@V?$basic_string@DU?$char_traits@D@std@@V?$allocator@D@2@@std@@V?$allocator@V?$basic_string@DU?$char_traits@D@std@@V?$allocator@D@2@@std@@@2@@1@V?$transform_iterator@U?$copy_iterator_rangeF@V?$basic_string@DU?$char_traits@D@std@@V?$allocator@D@2@@std@@V?$_String_iterator@DU?$char_traits@D@std@@V?$allocator@D@2@@2@@detail@algorithm@boost@@V?$split_iterator@V?$_String_iterator@DU?$char_traits@D@std@@V?$allocator@D@2@@std@@@34@Uuse_default@4@U64@@boost@@1Uinput_iterator_tag@1@@Z 100277a0 f i TopologyFactory.obj
 0002:00025970       ??D?$iterator_facade@V?$transform_iterator@U?$copy_iterator_rangeF@V?$basic_string@DU?$char_traits@D@std@@V?$allocator@D@2@@std@@V?$_String_iterator@DU?$char_traits@D@std@@V?$allocator@D@2@@2@@detail@algorithm@boost@@V?$split_iterator@V?$_String_iterator@DU?$char_traits@D@std@@V?$allocator@D@2@@std@@@34@Uuse_default@4@U64@@boost@@V?$basic_string@DU?$char_traits@D@std@@V?$allocator@D@2@@std@@Uforward_traversal_tag@2@V34@H@boost@@QBE?AV?$basic_string@DU?$char_traits@D@std@@V?$allocator@D@2@@std@@XZ 10027970 f i TopologyFactory.obj
 0002:00025990       ?invoke@?$function_obj_invoker2@U?$first_finderF@PBDUis_equal@algorithm@boost@@@detail@algorithm@boost@@V?$iterator_range@V?$_String_const_iterator@DU?$char_traits@D@std@@V?$allocator@D@2@@std@@@4@V?$_String_const_iterator@DU?$char_traits@D@std@@V?$allocator@D@2@@std@@V67@@function@detail@boost@@SA?AV?$iterator_range@V?$_String_const_iterator@DU?$char_traits@D@std@@V?$allocator@D@2@@std@@@4@AATfunction_buffer@234@V?$_String_const_iterator@DU?$char_traits@D@std@@V?$allocator@D@2@@std@@1@Z 10027990 f i ChannelAPIInputProcessor.obj
 0002:00025990       ?invoke@?$function_obj_invoker2@U?$first_finderF@PBDUis_equal@algorithm@boost@@@detail@algorithm@boost@@V?$iterator_range@V?$_String_iterator@DU?$char_traits@D@std@@V?$allocator@D@2@@std@@@4@V?$_String_iterator@DU?$char_traits@D@std@@V?$allocator@D@2@@std@@V67@@function@detail@boost@@SA?AV?$iterator_range@V?$_String_iterator@DU?$char_traits@D@std@@V?$allocator@D@2@@std@@@4@AATfunction_buffer@234@V?$_String_iterator@DU?$char_traits@D@std@@V?$allocator@D@2@@std@@1@Z 10027990 f i TopologyFactory.obj
 0002:000259c0       ??$dereference@V?$transform_iterator@U?$copy_iterator_rangeF@V?$basic_string@DU?$char_traits@D@std@@V?$allocator@D@2@@std@@V?$_String_iterator@DU?$char_traits@D@std@@V?$allocator@D@2@@2@@detail@algorithm@boost@@V?$split_iterator@V?$_String_iterator@DU?$char_traits@D@std@@V?$allocator@D@2@@std@@@34@Uuse_default@4@U64@@boost@@@iterator_core_access@boost@@CA?AV?$basic_string@DU?$char_traits@D@std@@V?$allocator@D@2@@std@@ABV?$transform_iterator@U?$copy_iterator_rangeF@V?$basic_string@DU?$char_traits@D@std@@V?$allocator@D@2@@std@@V?$_String_iterator@DU?$char_traits@D@std@@V?$allocator@D@2@@2@@detail@algorithm@boost@@V?$split_iterator@V?$_String_iterator@DU?$char_traits@D@std@@V?$allocator@D@2@@std@@@34@Uuse_default@4@U64@@1@@Z 100279c0 f i TopologyFactory.obj
 0002:000259e0       ?dereference@?$transform_iterator@U?$copy_iterator_rangeF@V?$basic_string@DU?$char_traits@D@std@@V?$allocator@D@2@@std@@V?$_String_iterator@DU?$char_traits@D@std@@V?$allocator@D@2@@2@@detail@algorithm@boost@@V?$split_iterator@V?$_String_iterator@DU?$char_traits@D@std@@V?$allocator@D@2@@std@@@34@Uuse_default@4@U64@@boost@@ABE?AV?$basic_string@DU?$char_traits@D@std@@V?$allocator@D@2@@std@@XZ 100279e0 f i TopologyFactory.obj
 0002:00025a00       ??R?$copy_iterator_rangeF@V?$basic_string@DU?$char_traits@D@std@@V?$allocator@D@2@@std@@V?$_String_iterator@DU?$char_traits@D@std@@V?$allocator@D@2@@2@@detail@algorithm@boost@@QBE?AV?$basic_string@DU?$char_traits@D@std@@V?$allocator@D@2@@std@@ABV?$iterator_range@V?$_String_iterator@DU?$char_traits@D@std@@V?$allocator@D@2@@std@@@3@@Z 10027a00 f i TopologyFactory.obj
 0002:00025a20       ??$copy_range@V?$basic_string@DU?$char_traits@D@std@@V?$allocator@D@2@@std@@V?$iterator_range@V?$_String_iterator@DU?$char_traits@D@std@@V?$allocator@D@2@@std@@@boost@@@boost@@YA?AV?$basic_string@DU?$char_traits@D@std@@V?$allocator@D@2@@std@@ABV?$iterator_range@V?$_String_iterator@DU?$char_traits@D@std@@V?$allocator@D@2@@std@@@0@@Z 10027a20 f i TopologyFactory.obj
 0002:00025a70       ??$_Construct@V?$_String_iterator@DU?$char_traits@D@std@@V?$allocator@D@2@@std@@@?$basic_string@DU?$char_traits@D@std@@V?$allocator@D@2@@std@@QAEXV?$_String_iterator@DU?$char_traits@D@std@@V?$allocator@D@2@@1@0Uforward_iterator_tag@1@@Z 10027a70 f i TopologyFactory.obj
 0002:00025ba0       ?equal@?$split_iterator@V?$_String_iterator@DU?$char_traits@D@std@@V?$allocator@D@2@@std@@@algorithm@boost@@ABE_NABV123@@Z 10027ba0 f i TopologyFactory.obj
 0002:00025c60       ??$equal_impl@V?$_String_iterator@DU?$char_traits@D@std@@V?$allocator@D@2@@std@@V12@@range_detail@boost@@YA_NV?$_String_iterator@DU?$char_traits@D@std@@V?$allocator@D@2@@std@@000Urandom_access_iterator_tag@3@1@Z 10027c60 f i TopologyFactory.obj
 0002:00025cf0       ??$_Equal@PADV?$_String_iterator@DU?$char_traits@D@std@@V?$allocator@D@2@@std@@@std@@YA_NPAD0V?$_String_iterator@DU?$char_traits@D@std@@V?$allocator@D@2@@0@Urandom_access_iterator_tag@0@U_Range_checked_iterator_tag@0@@Z 10027cf0 f i TopologyFactory.obj
 0002:00025cf0       ??$_Equal@PBDV?$_String_const_iterator@DU?$char_traits@D@std@@V?$allocator@D@2@@std@@@std@@YA_NPBD0V?$_String_const_iterator@DU?$char_traits@D@std@@V?$allocator@D@2@@0@Urandom_access_iterator_tag@0@U_Range_checked_iterator_tag@0@@Z 10027cf0 f i ChannelAPIInputProcessor.obj
 0002:00025d40       ??0DirectlyConnectableChannels@sass@@QAE@VChannelIndex@1@0@Z 10027d40 f   DirectlyConnectableChannels.obj
 0002:00025dc0       ??1DirectlyConnectableChannels@sass@@UAE@XZ 10027dc0 f   DirectlyConnectableChannels.obj
 0002:00025dd0       ??MDirectlyConnectableChannels@sass@@QBE_NABV01@@Z 10027dd0 f   DirectlyConnectableChannels.obj
 0002:00025e60       ??0?$Multiton@VTopologyFactory@sass@@@atut@@QAE@AAVTopologyFactory@sass@@@Z 10027e60 f i multitons.obj
 0002:00025f30       ??1?$Multiton@VTopologyFactory@sass@@@atut@@UAE@XZ 10027f30 f i multitons.obj
 0002:00026010       ??_G?$Multiton@VTopologyFactory@sass@@@atut@@UAEPAXI@Z 10028010 f i multitons.obj
 0002:00026010       ??_E?$Multiton@VTopologyFactory@sass@@@atut@@UAEPAXI@Z 10028010 f i  CIL library: CIL module
 0002:00026040       ??1?$map@V?$basic_string@DU?$char_traits@D@std@@V?$allocator@D@2@@std@@PAUTopology@sass@@U?$less@V?$basic_string@DU?$char_traits@D@std@@V?$allocator@D@2@@std@@@2@V?$allocator@U?$pair@$$CBV?$basic_string@DU?$char_traits@D@std@@V?$allocator@D@2@@std@@PAUTopology@sass@@@std@@@2@@std@@QAE@XZ 10028040 f i multitons.obj
 0002:00026090       ??0?$_Tree@V?$_Tmap_traits@V?$basic_string@DU?$char_traits@D@std@@V?$allocator@D@2@@std@@PAUTopology@sass@@U?$less@V?$basic_string@DU?$char_traits@D@std@@V?$allocator@D@2@@std@@@2@V?$allocator@U?$pair@$$CBV?$basic_string@DU?$char_traits@D@std@@V?$allocator@D@2@@std@@PAUTopology@sass@@@std@@@2@$0A@@std@@@std@@QAE@ABU?$less@V?$basic_string@DU?$char_traits@D@std@@V?$allocator@D@2@@std@@@1@ABV?$allocator@U?$pair@$$CBV?$basic_string@DU?$char_traits@D@std@@V?$allocator@D@2@@std@@PAUTopology@sass@@@std@@@1@@Z 10028090 f i multitons.obj
 0002:00026090       ??0?$_Tree@V?$_Tmap_traits@V?$basic_string@DU?$char_traits@D@std@@V?$allocator@D@2@@std@@PAVRelayIndexMap@sass@@U?$less@V?$basic_string@DU?$char_traits@D@std@@V?$allocator@D@2@@std@@@2@V?$allocator@U?$pair@$$CBV?$basic_string@DU?$char_traits@D@std@@V?$allocator@D@2@@std@@PAVRelayIndexMap@sass@@@std@@@2@$0A@@std@@@std@@QAE@ABU?$less@V?$basic_string@DU?$char_traits@D@std@@V?$allocator@D@2@@std@@@1@ABV?$allocator@U?$pair@$$CBV?$basic_string@DU?$char_traits@D@std@@V?$allocator@D@2@@std@@PAVRelayIndexMap@sass@@@std@@@1@@Z 10028090 f i Session.obj
 0002:00026100       ?_Tidy@?$_Tree@V?$_Tmap_traits@V?$basic_string@DU?$char_traits@D@std@@V?$allocator@D@2@@std@@PAUTopology@sass@@U?$less@V?$basic_string@DU?$char_traits@D@std@@V?$allocator@D@2@@std@@@2@V?$allocator@U?$pair@$$CBV?$basic_string@DU?$char_traits@D@std@@V?$allocator@D@2@@std@@PAUTopology@sass@@@std@@@2@$0A@@std@@@std@@IAEXXZ 10028100 f i multitons.obj
 0002:00026140       ?erase@?$_Tree@V?$_Tmap_traits@V?$basic_string@DU?$char_traits@D@std@@V?$allocator@D@2@@std@@PAUTopology@sass@@U?$less@V?$basic_string@DU?$char_traits@D@std@@V?$allocator@D@2@@std@@@2@V?$allocator@U?$pair@$$CBV?$basic_string@DU?$char_traits@D@std@@V?$allocator@D@2@@std@@PAUTopology@sass@@@std@@@2@$0A@@std@@@std@@QAE?AViterator@12@Vconst_iterator@12@0@Z 10028140 f i multitons.obj
 0002:00026220       ?erase@?$_Tree@V?$_Tmap_traits@V?$basic_string@DU?$char_traits@D@std@@V?$allocator@D@2@@std@@PAUTopology@sass@@U?$less@V?$basic_string@DU?$char_traits@D@std@@V?$allocator@D@2@@std@@@2@V?$allocator@U?$pair@$$CBV?$basic_string@DU?$char_traits@D@std@@V?$allocator@D@2@@std@@PAUTopology@sass@@@std@@@2@$0A@@std@@@std@@QAE?AViterator@12@Vconst_iterator@12@@Z 10028220 f i multitons.obj
 0002:000264f0       ?_Buynode@?$_Tree@V?$_Tmap_traits@V?$basic_string@DU?$char_traits@D@std@@V?$allocator@D@2@@std@@PAVRelayIndexMap@sass@@U?$less@V?$basic_string@DU?$char_traits@D@std@@V?$allocator@D@2@@std@@@2@V?$allocator@U?$pair@$$CBV?$basic_string@DU?$char_traits@D@std@@V?$allocator@D@2@@std@@PAVRelayIndexMap@sass@@@std@@@2@$0A@@std@@@std@@IAEPAU_Node@?$_Tree_nod@V?$_Tmap_traits@V?$basic_string@DU?$char_traits@D@std@@V?$allocator@D@2@@std@@PAVRelayIndexMap@sass@@U?$less@V?$basic_string@DU?$char_traits@D@std@@V?$allocator@D@2@@std@@@2@V?$allocator@U?$pair@$$CBV?$basic_string@DU?$char_traits@D@std@@V?$allocator@D@2@@std@@PAVRelayIndexMap@sass@@@std@@@2@$0A@@std@@@2@XZ 100284f0 f i Session.obj
 0002:000264f0       ?_Buynode@?$_Tree@V?$_Tmap_traits@V?$basic_string@DU?$char_traits@D@std@@V?$allocator@D@2@@std@@PAUTopology@sass@@U?$less@V?$basic_string@DU?$char_traits@D@std@@V?$allocator@D@2@@std@@@2@V?$allocator@U?$pair@$$CBV?$basic_string@DU?$char_traits@D@std@@V?$allocator@D@2@@std@@PAUTopology@sass@@@std@@@2@$0A@@std@@@std@@IAEPAU_Node@?$_Tree_nod@V?$_Tmap_traits@V?$basic_string@DU?$char_traits@D@std@@V?$allocator@D@2@@std@@PAUTopology@sass@@U?$less@V?$basic_string@DU?$char_traits@D@std@@V?$allocator@D@2@@std@@@2@V?$allocator@U?$pair@$$CBV?$basic_string@DU?$char_traits@D@std@@V?$allocator@D@2@@std@@PAUTopology@sass@@@std@@@2@$0A@@std@@@2@XZ 100284f0 f i multitons.obj
 0002:00026530       ?_Lrotate@?$_Tree@V?$_Tmap_traits@V?$basic_string@DU?$char_traits@D@std@@V?$allocator@D@2@@std@@PAVRelayIndexMap@sass@@U?$less@V?$basic_string@DU?$char_traits@D@std@@V?$allocator@D@2@@std@@@2@V?$allocator@U?$pair@$$CBV?$basic_string@DU?$char_traits@D@std@@V?$allocator@D@2@@std@@PAVRelayIndexMap@sass@@@std@@@2@$0A@@std@@@std@@IAEXPAU_Node@?$_Tree_nod@V?$_Tmap_traits@V?$basic_string@DU?$char_traits@D@std@@V?$allocator@D@2@@std@@PAVRelayIndexMap@sass@@U?$less@V?$basic_string@DU?$char_traits@D@std@@V?$allocator@D@2@@std@@@2@V?$allocator@U?$pair@$$CBV?$basic_string@DU?$char_traits@D@std@@V?$allocator@D@2@@std@@PAVRelayIndexMap@sass@@@std@@@2@$0A@@std@@@2@@Z 10028530 f i Session.obj
 0002:00026530       ?_Lrotate@?$_Tree@V?$_Tmap_traits@V?$basic_string@DU?$char_traits@D@std@@V?$allocator@D@2@@std@@PAUTopology@sass@@U?$less@V?$basic_string@DU?$char_traits@D@std@@V?$allocator@D@2@@std@@@2@V?$allocator@U?$pair@$$CBV?$basic_string@DU?$char_traits@D@std@@V?$allocator@D@2@@std@@PAUTopology@sass@@@std@@@2@$0A@@std@@@std@@IAEXPAU_Node@?$_Tree_nod@V?$_Tmap_traits@V?$basic_string@DU?$char_traits@D@std@@V?$allocator@D@2@@std@@PAUTopology@sass@@U?$less@V?$basic_string@DU?$char_traits@D@std@@V?$allocator@D@2@@std@@@2@V?$allocator@U?$pair@$$CBV?$basic_string@DU?$char_traits@D@std@@V?$allocator@D@2@@std@@PAUTopology@sass@@@std@@@2@$0A@@std@@@2@@Z 10028530 f i multitons.obj
 0002:00026590       ?_Rrotate@?$_Tree@V?$_Tmap_traits@V?$basic_string@DU?$char_traits@D@std@@V?$allocator@D@2@@std@@PAUTopology@sass@@U?$less@V?$basic_string@DU?$char_traits@D@std@@V?$allocator@D@2@@std@@@2@V?$allocator@U?$pair@$$CBV?$basic_string@DU?$char_traits@D@std@@V?$allocator@D@2@@std@@PAUTopology@sass@@@std@@@2@$0A@@std@@@std@@IAEXPAU_Node@?$_Tree_nod@V?$_Tmap_traits@V?$basic_string@DU?$char_traits@D@std@@V?$allocator@D@2@@std@@PAUTopology@sass@@U?$less@V?$basic_string@DU?$char_traits@D@std@@V?$allocator@D@2@@std@@@2@V?$allocator@U?$pair@$$CBV?$basic_string@DU?$char_traits@D@std@@V?$allocator@D@2@@std@@PAUTopology@sass@@@std@@@2@$0A@@std@@@2@@Z 10028590 f i multitons.obj
 0002:00026590       ?_Rrotate@?$_Tree@V?$_Tmap_traits@V?$basic_string@DU?$char_traits@D@std@@V?$allocator@D@2@@std@@PAVRelayIndexMap@sass@@U?$less@V?$basic_string@DU?$char_traits@D@std@@V?$allocator@D@2@@std@@@2@V?$allocator@U?$pair@$$CBV?$basic_string@DU?$char_traits@D@std@@V?$allocator@D@2@@std@@PAVRelayIndexMap@sass@@@std@@@2@$0A@@std@@@std@@IAEXPAU_Node@?$_Tree_nod@V?$_Tmap_traits@V?$basic_string@DU?$char_traits@D@std@@V?$allocator@D@2@@std@@PAVRelayIndexMap@sass@@U?$less@V?$basic_string@DU?$char_traits@D@std@@V?$allocator@D@2@@std@@@2@V?$allocator@U?$pair@$$CBV?$basic_string@DU?$char_traits@D@std@@V?$allocator@D@2@@std@@PAVRelayIndexMap@sass@@@std@@@2@$0A@@std@@@2@@Z 10028590 f i Session.obj
 0002:000265f0       ?getTOPFilePath@TopologyFilePaths@sass@@UBE?AV?$basic_string@DU?$char_traits@D@std@@V?$allocator@D@2@@std@@PBD@Z 100285f0 f   TopologyFilePaths.obj
 0002:000266c0       ?getSHWFilePath@TopologyFilePaths@sass@@UBE?AV?$basic_string@DU?$char_traits@D@std@@V?$allocator@D@2@@std@@PBD@Z 100286c0 f   TopologyFilePaths.obj
 0002:00026770       ?getFolderPath@TopologyFilePaths@sass@@ABE?AV?$basic_string@DU?$char_traits@D@std@@V?$allocator@D@2@@std@@ABV34@@Z 10028770 f   TopologyFilePaths.obj
 0002:00026820       ?getDeviceName@TopologyFilePaths@sass@@ABE?AV?$basic_string@DU?$char_traits@D@std@@V?$allocator@D@2@@std@@ABV34@@Z 10028820 f   TopologyFilePaths.obj
 0002:00026850       ?getNISwitchIviPath@TopologyFilePaths@sass@@ABE?AV?$basic_string@DU?$char_traits@D@std@@V?$allocator@D@2@@std@@XZ 10028850 f   TopologyFilePaths.obj
 0002:00026950       ?splitValuesByComma@sass@@YA?AV?$vector@V?$basic_string@DU?$char_traits@D@std@@V?$allocator@D@2@@std@@V?$allocator@V?$basic_string@DU?$char_traits@D@std@@V?$allocator@D@2@@std@@@2@@std@@ABV?$basic_string@DU?$char_traits@D@std@@V?$allocator@D@2@@3@H@Z 10028950 f   stringUtilities.obj
 0002:00026c20       ??1?$tokenizer@V?$char_separator@DU?$char_traits@D@std@@@boost@@V?$_String_const_iterator@DU?$char_traits@D@std@@V?$allocator@D@2@@std@@V?$basic_string@DU?$char_traits@D@std@@V?$allocator@D@2@@4@@boost@@QAE@XZ 10028c20 f i stringUtilities.obj
 0002:00026c70       ??1?$auto_any@V?$token_iterator@V?$char_separator@DU?$char_traits@D@std@@@boost@@V?$_String_const_iterator@DU?$char_traits@D@std@@V?$allocator@D@2@@std@@V?$basic_string@DU?$char_traits@D@std@@V?$allocator@D@2@@4@@boost@@@foreach_detail_@boost@@QAE@XZ 10028c70 f i stringUtilities.obj
 0002:00026c80       ??1?$token_iterator@V?$char_separator@DU?$char_traits@D@std@@@boost@@V?$_String_const_iterator@DU?$char_traits@D@std@@V?$allocator@D@2@@std@@V?$basic_string@DU?$char_traits@D@std@@V?$allocator@D@2@@4@@boost@@QAE@XZ 10028c80 f i stringUtilities.obj
 0002:00026ce0       ??0?$char_separator@DU?$char_traits@D@std@@@boost@@QAE@PBD0W4empty_token_policy@1@@Z 10028ce0 f i stringUtilities.obj
 0002:00026d50       ??$begin@V?$tokenizer@V?$char_separator@DU?$char_traits@D@std@@@boost@@V?$_String_const_iterator@DU?$char_traits@D@std@@V?$allocator@D@2@@std@@V?$basic_string@DU?$char_traits@D@std@@V?$allocator@D@2@@4@@boost@@U?$bool_@$0A@@mpl@2@@foreach_detail_@boost@@YA?AU?$auto_any@V?$token_iterator@V?$char_separator@DU?$char_traits@D@std@@@boost@@V?$_String_const_iterator@DU?$char_traits@D@std@@V?$allocator@D@2@@std@@V?$basic_string@DU?$char_traits@D@std@@V?$allocator@D@2@@4@@boost@@@01@ABUauto_any_base@01@PAU?$type2type@V?$tokenizer@V?$char_separator@DU?$char_traits@D@std@@@boost@@V?$_String_const_iterator@DU?$char_traits@D@std@@V?$allocator@D@2@@std@@V?$basic_string@DU?$char_traits@D@std@@V?$allocator@D@2@@4@@boost@@U?$bool_@$0A@@mpl@2@@01@PAU?$bool_@$0A@@mpl@1@@Z 10028d50 f i stringUtilities.obj
 0002:00026dc0       ??$end@V?$tokenizer@V?$char_separator@DU?$char_traits@D@std@@@boost@@V?$_String_const_iterator@DU?$char_traits@D@std@@V?$allocator@D@2@@std@@V?$basic_string@DU?$char_traits@D@std@@V?$allocator@D@2@@4@@boost@@U?$bool_@$0A@@mpl@2@@foreach_detail_@boost@@YA?AU?$auto_any@V?$token_iterator@V?$char_separator@DU?$char_traits@D@std@@@boost@@V?$_String_const_iterator@DU?$char_traits@D@std@@V?$allocator@D@2@@std@@V?$basic_string@DU?$char_traits@D@std@@V?$allocator@D@2@@4@@boost@@@01@ABUauto_any_base@01@PAU?$type2type@V?$tokenizer@V?$char_separator@DU?$char_traits@D@std@@@boost@@V?$_String_const_iterator@DU?$char_traits@D@std@@V?$allocator@D@2@@std@@V?$basic_string@DU?$char_traits@D@std@@V?$allocator@D@2@@4@@boost@@U?$bool_@$0A@@mpl@2@@01@PAU?$bool_@$0A@@mpl@1@@Z 10028dc0 f i stringUtilities.obj
 0002:00026e30       ??0?$char_separator@DU?$char_traits@D@std@@@boost@@QAE@ABV01@@Z 10028e30 f i stringUtilities.obj
 0002:00026ea0       ??0?$token_iterator@V?$char_separator@DU?$char_traits@D@std@@@boost@@V?$_String_const_iterator@DU?$char_traits@D@std@@V?$allocator@D@2@@std@@V?$basic_string@DU?$char_traits@D@std@@V?$allocator@D@2@@4@@boost@@QAE@ABV01@@Z 10028ea0 f i stringUtilities.obj
 0002:00026f10       ??$begin@V?$tokenizer@V?$char_separator@DU?$char_traits@D@std@@@boost@@V?$_String_const_iterator@DU?$char_traits@D@std@@V?$allocator@D@2@@std@@V?$basic_string@DU?$char_traits@D@std@@V?$allocator@D@2@@4@@boost@@@range_adl_barrier@boost@@YA?AV?$token_iterator@V?$char_separator@DU?$char_traits@D@std@@@boost@@V?$_String_const_iterator@DU?$char_traits@D@std@@V?$allocator@D@2@@std@@V?$basic_string@DU?$char_traits@D@std@@V?$allocator@D@2@@4@@1@AAV?$tokenizer@V?$char_separator@DU?$char_traits@D@std@@@boost@@V?$_String_const_iterator@DU?$char_traits@D@std@@V?$allocator@D@2@@std@@V?$basic_string@DU?$char_traits@D@std@@V?$allocator@D@2@@4@@1@@Z 10028f10 f i stringUtilities.obj
 0002:00026f30       ??$end@V?$tokenizer@V?$char_separator@DU?$char_traits@D@std@@@boost@@V?$_String_const_iterator@DU?$char_traits@D@std@@V?$allocator@D@2@@std@@V?$basic_string@DU?$char_traits@D@std@@V?$allocator@D@2@@4@@boost@@@range_adl_barrier@boost@@YA?AV?$token_iterator@V?$char_separator@DU?$char_traits@D@std@@@boost@@V?$_String_const_iterator@DU?$char_traits@D@std@@V?$allocator@D@2@@std@@V?$basic_string@DU?$char_traits@D@std@@V?$allocator@D@2@@4@@1@AAV?$tokenizer@V?$char_separator@DU?$char_traits@D@std@@@boost@@V?$_String_const_iterator@DU?$char_traits@D@std@@V?$allocator@D@2@@std@@V?$basic_string@DU?$char_traits@D@std@@V?$allocator@D@2@@4@@1@@Z 10028f30 f i stringUtilities.obj
 0002:00026f50       ?increment@?$token_iterator@V?$char_separator@DU?$char_traits@D@std@@@boost@@V?$_String_const_iterator@DU?$char_traits@D@std@@V?$allocator@D@2@@std@@V?$basic_string@DU?$char_traits@D@std@@V?$allocator@D@2@@4@@boost@@AAEXXZ 10028f50 f i stringUtilities.obj
 0002:00026f80       ??$range_begin@V?$tokenizer@V?$char_separator@DU?$char_traits@D@std@@@boost@@V?$_String_const_iterator@DU?$char_traits@D@std@@V?$allocator@D@2@@std@@V?$basic_string@DU?$char_traits@D@std@@V?$allocator@D@2@@4@@boost@@@range_detail@boost@@YA?AV?$token_iterator@V?$char_separator@DU?$char_traits@D@std@@@boost@@V?$_String_const_iterator@DU?$char_traits@D@std@@V?$allocator@D@2@@std@@V?$basic_string@DU?$char_traits@D@std@@V?$allocator@D@2@@4@@1@AAV?$tokenizer@V?$char_separator@DU?$char_traits@D@std@@@boost@@V?$_String_const_iterator@DU?$char_traits@D@std@@V?$allocator@D@2@@std@@V?$basic_string@DU?$char_traits@D@std@@V?$allocator@D@2@@4@@1@@Z 10028f80 f i stringUtilities.obj
 0002:00026fa0       ??$range_end@V?$tokenizer@V?$char_separator@DU?$char_traits@D@std@@@boost@@V?$_String_const_iterator@DU?$char_traits@D@std@@V?$allocator@D@2@@std@@V?$basic_string@DU?$char_traits@D@std@@V?$allocator@D@2@@4@@boost@@@range_detail@boost@@YA?AV?$token_iterator@V?$char_separator@DU?$char_traits@D@std@@@boost@@V?$_String_const_iterator@DU?$char_traits@D@std@@V?$allocator@D@2@@std@@V?$basic_string@DU?$char_traits@D@std@@V?$allocator@D@2@@4@@1@AAV?$tokenizer@V?$char_separator@DU?$char_traits@D@std@@@boost@@V?$_String_const_iterator@DU?$char_traits@D@std@@V?$allocator@D@2@@std@@V?$basic_string@DU?$char_traits@D@std@@V?$allocator@D@2@@4@@1@@Z 10028fa0 f i stringUtilities.obj
 0002:00026fc0       ??$?RV?$_String_const_iterator@DU?$char_traits@D@std@@V?$allocator@D@2@@std@@V?$basic_string@DU?$char_traits@D@std@@V?$allocator@D@2@@1@@?$char_separator@DU?$char_traits@D@std@@@boost@@QAE_NAAV?$_String_const_iterator@DU?$char_traits@D@std@@V?$allocator@D@2@@std@@V23@AAV?$basic_string@DU?$char_traits@D@std@@V?$allocator@D@2@@3@@Z 10028fc0 f i stringUtilities.obj
 0002:00027690       ?is_dropped@?$char_separator@DU?$char_traits@D@std@@@boost@@ABE_ND@Z 10029690 f i stringUtilities.obj
 0002:000276d0       ?begin@?$tokenizer@V?$char_separator@DU?$char_traits@D@std@@@boost@@V?$_String_const_iterator@DU?$char_traits@D@std@@V?$allocator@D@2@@std@@V?$basic_string@DU?$char_traits@D@std@@V?$allocator@D@2@@4@@boost@@QBE?AV?$token_iterator@V?$char_separator@DU?$char_traits@D@std@@@boost@@V?$_String_const_iterator@DU?$char_traits@D@std@@V?$allocator@D@2@@std@@V?$basic_string@DU?$char_traits@D@std@@V?$allocator@D@2@@4@@2@XZ 100296d0 f i stringUtilities.obj
 0002:00027760       ?end@?$tokenizer@V?$char_separator@DU?$char_traits@D@std@@@boost@@V?$_String_const_iterator@DU?$char_traits@D@std@@V?$allocator@D@2@@std@@V?$basic_string@DU?$char_traits@D@std@@V?$allocator@D@2@@4@@boost@@QBE?AV?$token_iterator@V?$char_separator@DU?$char_traits@D@std@@@boost@@V?$_String_const_iterator@DU?$char_traits@D@std@@V?$allocator@D@2@@std@@V?$basic_string@DU?$char_traits@D@std@@V?$allocator@D@2@@4@@2@XZ 10029760 f i stringUtilities.obj
 0002:000277f0       ??0?$token_iterator@V?$char_separator@DU?$char_traits@D@std@@@boost@@V?$_String_const_iterator@DU?$char_traits@D@std@@V?$allocator@D@2@@std@@V?$basic_string@DU?$char_traits@D@std@@V?$allocator@D@2@@4@@boost@@QAE@V?$char_separator@DU?$char_traits@D@std@@@1@V?$_String_const_iterator@DU?$char_traits@D@std@@V?$allocator@D@2@@std@@1@Z 100297f0 f i stringUtilities.obj
 0002:00027890       ?initialize@?$token_iterator@V?$char_separator@DU?$char_traits@D@std@@@boost@@V?$_String_const_iterator@DU?$char_traits@D@std@@V?$allocator@D@2@@std@@V?$basic_string@DU?$char_traits@D@std@@V?$allocator@D@2@@4@@boost@@AAEXXZ 10029890 f i stringUtilities.obj
 0002:000278f0       ??$equal@V?$token_iterator@V?$char_separator@DU?$char_traits@D@std@@@boost@@V?$_String_const_iterator@DU?$char_traits@D@std@@V?$allocator@D@2@@std@@V?$basic_string@DU?$char_traits@D@std@@V?$allocator@D@2@@4@@boost@@@?$token_iterator@V?$char_separator@DU?$char_traits@D@std@@@boost@@V?$_String_const_iterator@DU?$char_traits@D@std@@V?$allocator@D@2@@std@@V?$basic_string@DU?$char_traits@D@std@@V?$allocator@D@2@@4@@boost@@ABE_NABV01@@Z 100298f0 f i stringUtilities.obj
 0002:00027950       _nNIAPALS100_setStatusCode@20 10029950 f   tStatus.obj
 0002:00027ae0       ?splitValues@CommaSeparatedRange@atat@@SA?AV?$vector@V?$basic_string@DU?$char_traits@D@std@@V?$allocator@D@2@@std@@V?$allocator@V?$basic_string@DU?$char_traits@D@std@@V?$allocator@D@2@@std@@@2@@std@@ABV?$basic_string@DU?$char_traits@D@std@@V?$allocator@D@2@@4@@Z 10029ae0 f   CommaSeparatedRange.obj
 0002:00027d10       ?gmtime@c_time@date_time@boost@@SAPAUtm@@PB_JPAU4@@Z 10029d10 f i Session.obj
 0002:00027d80       ??0bad_day_of_month@gregorian@boost@@QAE@XZ 10029d80 f i Session.obj
 0002:00027df0       ??_Gbad_day_of_month@gregorian@boost@@UAEPAXI@Z 10029df0 f i Session.obj
 0002:00027df0       ??_Gnegative_edge@boost@@UAEPAXI@Z 10029df0 f i PathFinder.obj
 0002:00027df0       ??_Glength_error@std@@UAEPAXI@Z 10029df0 f i AutoSwitchStateBufferLock.obj
 0002:00027df0       ??_Enegative_edge@boost@@UAEPAXI@Z 10029df0 f i  CIL library: CIL module
 0002:00027df0       ??_Ebad_day_of_month@gregorian@boost@@UAEPAXI@Z 10029df0 f i  CIL library: CIL module
 0002:00027df0       ??_Ebad_graph@boost@@UAEPAXI@Z 10029df0 f i  CIL library: CIL module
 0002:00027df0       ??_Glogic_error@std@@UAEPAXI@Z 10029df0 f i AutoSwitchStateBufferLock.obj
 0002:00027df0       ??_Ginvalid_argument@std@@UAEPAXI@Z 10029df0 f i PathFinder.obj
 0002:00027df0       ??_Gbad_month@gregorian@boost@@UAEPAXI@Z 10029df0 f i Session.obj
 0002:00027df0       ??_Elength_error@std@@UAEPAXI@Z 10029df0 f i  CIL library: CIL module
 0002:00027df0       ??_Gbad_graph@boost@@UAEPAXI@Z 10029df0 f i PathFinder.obj
 0002:00027df0       ??_Ebad_year@gregorian@boost@@UAEPAXI@Z 10029df0 f i  CIL library: CIL module
 0002:00027df0       ??_Elogic_error@std@@UAEPAXI@Z 10029df0 f i  CIL library: CIL module
 0002:00027df0       ??_Ebad_month@gregorian@boost@@UAEPAXI@Z 10029df0 f i  CIL library: CIL module
 0002:00027df0       ??_Gbad_year@gregorian@boost@@UAEPAXI@Z 10029df0 f i Session.obj
 0002:00027df0       ??_Einvalid_argument@std@@UAEPAXI@Z 10029df0 f i  CIL library: CIL module
 0002:00027df0       ??_Gout_of_range@std@@UAEPAXI@Z 10029df0 f i Session.obj
 0002:00027df0       ??_Eout_of_range@std@@UAEPAXI@Z 10029df0 f i  CIL library: CIL module
 0002:00027e30       ??1bad_year@gregorian@boost@@UAE@XZ 10029e30 f i Session.obj
 0002:00027e30       ??1out_of_range@std@@UAE@XZ 10029e30 f i Session.obj
 0002:00027e30       ??1length_error@std@@UAE@XZ 10029e30 f i AutoSwitchStateBufferLock.obj
 0002:00027e30       ??1bad_month@gregorian@boost@@UAE@XZ 10029e30 f i Session.obj
 0002:00027e30       ??1bad_day_of_month@gregorian@boost@@UAE@XZ 10029e30 f i Session.obj
 0002:00027e50       ??0bad_year@gregorian@boost@@QAE@XZ 10029e50 f i Session.obj
 0002:00027ec0       ??0bad_month@gregorian@boost@@QAE@XZ 10029ec0 f i Session.obj
 0002:00027f30       ??0date@gregorian@boost@@QAE@Vgreg_year@12@Vgreg_month@12@Vgreg_day@12@@Z 10029f30 f i Session.obj
 0002:00027fe0       ??0timeout@detail@boost@@QAE@_K@Z 10029fe0 f i Session.obj
 0002:00028020       ??_ESession@atat@@UAEPAXI@Z 1002a020 f i  CIL library: CIL module
 0002:00028020       ??_GSession@atat@@UAEPAXI@Z 1002a020 f i Session.obj
 0002:00028060       ??1Session@atat@@UAE@XZ    1002a060 f   Session.obj
 0002:00028080       ?waitUntilRefCountIsOne@Session@atat@@QBEXXZ 1002a080 f   Session.obj
 0002:00028130       ??E?$Integer@I@niatomicop@@QCE?BV01@XZ 1002a130 f i Session.obj
 0002:00028140       ??F?$Integer@I@niatomicop@@QCE?BV01@XZ 1002a140 f i Session.obj
 0002:00028150       ?to_tick_count@?$time_resolution_traits@Utime_resolution_traits_adapted64_impl@date_time@boost@@$04$0PECEA@$05H@date_time@boost@@SA_JHHH_J@Z 1002a150 f i Session.obj
 0002:00028250       ?create_time@?$microsec_clock@Vptime@posix_time@boost@@@date_time@boost@@CA?AVptime@posix_time@3@P6APAUtm@@PB_JPAU6@@Z@Z 1002a250 f i Session.obj
 0002:000283c0       ?is_pos_inf@?$int_adapter@_J@date_time@boost@@SA_N_J@Z 1002a3c0 f i Session.obj
 0002:000283f0       ?on_error@?$simple_exception_policy@G$00$0BP@Ubad_day_of_month@gregorian@boost@@@CV@boost@@SAXGGW4violation_enum@23@@Z 1002a3f0 f i Session.obj
 0002:00028430       ?on_error@?$simple_exception_policy@G$0FHI@$0CHBA@Ubad_year@gregorian@boost@@@CV@boost@@SAXGGW4violation_enum@23@@Z 1002a430 f i Session.obj
 0002:00028470       ?on_error@?$simple_exception_policy@G$00$0M@Ubad_month@gregorian@boost@@@CV@boost@@SAXGGW4violation_enum@23@@Z 1002a470 f i Session.obj
 0002:000284b0       ?is_special@?$time_duration@V0posix_time@boost@@V?$time_resolution_traits@Utime_resolution_traits_adapted64_impl@date_time@boost@@$04$0PECEA@$05H@date_time@2@@date_time@boost@@QBE_NXZ 1002a4b0 f i Session.obj
 0002:000284f0       ??0?$counted_time_rep@Vmillisec_posix_time_system_config@posix_time@boost@@@date_time@boost@@QAE@ABVdate@gregorian@2@ABVtime_duration@posix_time@2@@Z 1002a4f0 f i Session.obj
 0002:000285a0       ?is_neg_inf@?$int_adapter@_J@date_time@boost@@SA_N_J@Z 1002a5a0 f i Session.obj
 0002:000285d0       ?is_infinity@?$int_adapter@_J@date_time@boost@@QBE_NXZ 1002a5d0 f i Session.obj
 0002:00028610       ??$throw_exception@Vruntime_error@std@@@boost@@YAXABVruntime_error@std@@@Z 1002a610 f i Session.obj
 0002:00028670       ?day_number@?$gregorian_calendar_base@U?$year_month_day_base@Vgreg_year@gregorian@boost@@Vgreg_month@23@Vgreg_day@23@@date_time@boost@@I@date_time@boost@@SAIABU?$year_month_day_base@Vgreg_year@gregorian@boost@@Vgreg_month@23@Vgreg_day@23@@23@@Z 1002a670 f i Session.obj
 0002:00028720       ?end_of_month_day@?$gregorian_calendar_base@U?$year_month_day_base@Vgreg_year@gregorian@boost@@Vgreg_month@23@Vgreg_day@23@@date_time@boost@@I@date_time@boost@@SAGVgreg_year@gregorian@3@Vgreg_month@53@@Z 1002a720 f i Session.obj
 0002:00028790       ??$throw_exception@Ubad_day_of_month@gregorian@boost@@@boost@@YAXABUbad_day_of_month@gregorian@0@@Z 1002a790 f i Session.obj
 0002:000287f0       ??$throw_exception@Ubad_year@gregorian@boost@@@boost@@YAXABUbad_year@gregorian@0@@Z 1002a7f0 f i Session.obj
 0002:00028850       ??$throw_exception@Ubad_month@gregorian@boost@@@boost@@YAXABUbad_month@gregorian@0@@Z 1002a850 f i Session.obj
 0002:000288b0       ??$?HI@?$int_adapter@_J@date_time@boost@@QBE?AV012@ABV?$int_adapter@I@12@@Z 1002a8b0 f i Session.obj
 0002:000289d0       ??_D?$clone_impl@U?$error_info_injector@Vruntime_error@std@@@exception_detail@boost@@@exception_detail@boost@@QAEXXZ 1002a9d0 f i Session.obj
 0002:000289f0       ??0?$clone_impl@U?$error_info_injector@Vruntime_error@std@@@exception_detail@boost@@@exception_detail@boost@@QAE@ABV012@@Z 1002a9f0 f i Session.obj
 0002:00028a90       ??0?$error_info_injector@Vruntime_error@std@@@exception_detail@boost@@QAE@ABU012@@Z 1002aa90 f i Session.obj
 0002:00028b20       ??_D?$clone_impl@U?$error_info_injector@Ubad_day_of_month@gregorian@boost@@@exception_detail@boost@@@exception_detail@boost@@QAEXXZ 1002ab20 f i Session.obj
 0002:00028b40       ??0?$clone_impl@U?$error_info_injector@Ubad_day_of_month@gregorian@boost@@@exception_detail@boost@@@exception_detail@boost@@QAE@ABV012@@Z 1002ab40 f i Session.obj
 0002:00028be0       ??0?$error_info_injector@Ubad_day_of_month@gregorian@boost@@@exception_detail@boost@@QAE@ABU012@@Z 1002abe0 f i Session.obj
 0002:00028c70       ??0bad_day_of_month@gregorian@boost@@QAE@ABU012@@Z 1002ac70 f i Session.obj
 0002:00028c90       ??_D?$clone_impl@U?$error_info_injector@Ubad_year@gregorian@boost@@@exception_detail@boost@@@exception_detail@boost@@QAEXXZ 1002ac90 f i Session.obj
 0002:00028cb0       ??0?$clone_impl@U?$error_info_injector@Ubad_year@gregorian@boost@@@exception_detail@boost@@@exception_detail@boost@@QAE@ABV012@@Z 1002acb0 f i Session.obj
 0002:00028d50       ??0?$error_info_injector@Ubad_year@gregorian@boost@@@exception_detail@boost@@QAE@ABU012@@Z 1002ad50 f i Session.obj
 0002:00028de0       ??0bad_year@gregorian@boost@@QAE@ABU012@@Z 1002ade0 f i Session.obj
 0002:00028e00       ??_D?$clone_impl@U?$error_info_injector@Ubad_month@gregorian@boost@@@exception_detail@boost@@@exception_detail@boost@@QAEXXZ 1002ae00 f i Session.obj
 0002:00028e20       ??0?$clone_impl@U?$error_info_injector@Ubad_month@gregorian@boost@@@exception_detail@boost@@@exception_detail@boost@@QAE@ABV012@@Z 1002ae20 f i Session.obj
 0002:00028ec0       ??0?$error_info_injector@Ubad_month@gregorian@boost@@@exception_detail@boost@@QAE@ABU012@@Z 1002aec0 f i Session.obj
 0002:00028f50       ??0bad_month@gregorian@boost@@QAE@ABU012@@Z 1002af50 f i Session.obj
 0002:00028f70       ??_E?$clone_impl@U?$error_info_injector@Vruntime_error@std@@@exception_detail@boost@@@exception_detail@boost@@UAEPAXI@Z 1002af70 f i  CIL library: CIL module
 0002:00028f70       ??_G?$clone_impl@U?$error_info_injector@Vruntime_error@std@@@exception_detail@boost@@@exception_detail@boost@@UAEPAXI@Z 1002af70 f i Session.obj
 0002:00028fa0       ??_G?$error_info_injector@Vruntime_error@std@@@exception_detail@boost@@UAEPAXI@Z 1002afa0 f i Session.obj
 0002:00028fa0       ??_E?$error_info_injector@Vruntime_error@std@@@exception_detail@boost@@UAEPAXI@Z 1002afa0 f i  CIL library: CIL module
 0002:00029000       ??_G?$clone_impl@U?$error_info_injector@Ubad_day_of_month@gregorian@boost@@@exception_detail@boost@@@exception_detail@boost@@UAEPAXI@Z 1002b000 f i Session.obj
 0002:00029000       ??_E?$clone_impl@U?$error_info_injector@Ubad_day_of_month@gregorian@boost@@@exception_detail@boost@@@exception_detail@boost@@UAEPAXI@Z 1002b000 f i  CIL library: CIL module
 0002:00029030       ??_E?$error_info_injector@Ubad_day_of_month@gregorian@boost@@@exception_detail@boost@@UAEPAXI@Z 1002b030 f i  CIL library: CIL module
 0002:00029030       ??_G?$error_info_injector@Ubad_day_of_month@gregorian@boost@@@exception_detail@boost@@UAEPAXI@Z 1002b030 f i Session.obj
 0002:00029090       ??_G?$clone_impl@U?$error_info_injector@Ubad_year@gregorian@boost@@@exception_detail@boost@@@exception_detail@boost@@UAEPAXI@Z 1002b090 f i Session.obj
 0002:00029090       ??_E?$clone_impl@U?$error_info_injector@Ubad_year@gregorian@boost@@@exception_detail@boost@@@exception_detail@boost@@UAEPAXI@Z 1002b090 f i  CIL library: CIL module
 0002:000290c0       ??_E?$error_info_injector@Ubad_year@gregorian@boost@@@exception_detail@boost@@UAEPAXI@Z 1002b0c0 f i  CIL library: CIL module
 0002:000290c0       ??_G?$error_info_injector@Ubad_year@gregorian@boost@@@exception_detail@boost@@UAEPAXI@Z 1002b0c0 f i Session.obj
 0002:00029120       ??_E?$clone_impl@U?$error_info_injector@Ubad_month@gregorian@boost@@@exception_detail@boost@@@exception_detail@boost@@UAEPAXI@Z 1002b120 f i  CIL library: CIL module
 0002:00029120       ??_G?$clone_impl@U?$error_info_injector@Ubad_month@gregorian@boost@@@exception_detail@boost@@@exception_detail@boost@@UAEPAXI@Z 1002b120 f i Session.obj
 0002:00029150       ??_E?$error_info_injector@Ubad_month@gregorian@boost@@@exception_detail@boost@@UAEPAXI@Z 1002b150 f i  CIL library: CIL module
 0002:00029150       ??_G?$error_info_injector@Ubad_month@gregorian@boost@@@exception_detail@boost@@UAEPAXI@Z 1002b150 f i Session.obj
 0002:000291b0       ??1?$error_info_injector@Vruntime_error@std@@@exception_detail@boost@@UAE@XZ 1002b1b0 f i Session.obj
 0002:00029200       ??1?$clone_impl@U?$error_info_injector@Vruntime_error@std@@@exception_detail@boost@@@exception_detail@boost@@UAE@XZ 1002b200 f i Session.obj
 0002:00029270       ?clone@?$clone_impl@U?$error_info_injector@Vruntime_error@std@@@exception_detail@boost@@@exception_detail@boost@@EBEPBVclone_base@23@XZ 1002b270 f i Session.obj
 0002:000292f0       ?rethrow@?$clone_impl@U?$error_info_injector@Vruntime_error@std@@@exception_detail@boost@@@exception_detail@boost@@EBEXXZ 1002b2f0 f i Session.obj
 0002:00029320       ??1?$error_info_injector@Ubad_day_of_month@gregorian@boost@@@exception_detail@boost@@UAE@XZ 1002b320 f i Session.obj
 0002:00029370       ??1?$clone_impl@U?$error_info_injector@Ubad_day_of_month@gregorian@boost@@@exception_detail@boost@@@exception_detail@boost@@UAE@XZ 1002b370 f i Session.obj
 0002:000293e0       ?clone@?$clone_impl@U?$error_info_injector@Ubad_day_of_month@gregorian@boost@@@exception_detail@boost@@@exception_detail@boost@@EBEPBVclone_base@23@XZ 1002b3e0 f i Session.obj
 0002:00029460       ?rethrow@?$clone_impl@U?$error_info_injector@Ubad_day_of_month@gregorian@boost@@@exception_detail@boost@@@exception_detail@boost@@EBEXXZ 1002b460 f i Session.obj
 0002:00029490       ??1?$error_info_injector@Ubad_year@gregorian@boost@@@exception_detail@boost@@UAE@XZ 1002b490 f i Session.obj
 0002:000294e0       ??1?$clone_impl@U?$error_info_injector@Ubad_year@gregorian@boost@@@exception_detail@boost@@@exception_detail@boost@@UAE@XZ 1002b4e0 f i Session.obj
 0002:00029550       ?clone@?$clone_impl@U?$error_info_injector@Ubad_year@gregorian@boost@@@exception_detail@boost@@@exception_detail@boost@@EBEPBVclone_base@23@XZ 1002b550 f i Session.obj
 0002:000295d0       ?rethrow@?$clone_impl@U?$error_info_injector@Ubad_year@gregorian@boost@@@exception_detail@boost@@@exception_detail@boost@@EBEXXZ 1002b5d0 f i Session.obj
 0002:00029600       ??1?$error_info_injector@Ubad_month@gregorian@boost@@@exception_detail@boost@@UAE@XZ 1002b600 f i Session.obj
 0002:00029650       ??1?$clone_impl@U?$error_info_injector@Ubad_month@gregorian@boost@@@exception_detail@boost@@@exception_detail@boost@@UAE@XZ 1002b650 f i Session.obj
 0002:000296c0       ?clone@?$clone_impl@U?$error_info_injector@Ubad_month@gregorian@boost@@@exception_detail@boost@@@exception_detail@boost@@EBEPBVclone_base@23@XZ 1002b6c0 f i Session.obj
 0002:00029740       ?rethrow@?$clone_impl@U?$error_info_injector@Ubad_month@gregorian@boost@@@exception_detail@boost@@@exception_detail@boost@@EBEXXZ 1002b740 f i Session.obj
 0002:00029770       ??0?$clone_impl@U?$error_info_injector@Vruntime_error@std@@@exception_detail@boost@@@exception_detail@boost@@AAE@ABV012@Uclone_tag@012@@Z 1002b770 f i Session.obj
 0002:00029820       ??0?$clone_impl@U?$error_info_injector@Ubad_day_of_month@gregorian@boost@@@exception_detail@boost@@@exception_detail@boost@@AAE@ABV012@Uclone_tag@012@@Z 1002b820 f i Session.obj
 0002:000298d0       ??0?$clone_impl@U?$error_info_injector@Ubad_year@gregorian@boost@@@exception_detail@boost@@@exception_detail@boost@@AAE@ABV012@Uclone_tag@012@@Z 1002b8d0 f i Session.obj
 0002:00029980       ??0?$clone_impl@U?$error_info_injector@Ubad_month@gregorian@boost@@@exception_detail@boost@@@exception_detail@boost@@AAE@ABV012@Uclone_tag@012@@Z 1002b980 f i Session.obj
 0002:00029a30       ??$enable_error_info@Vruntime_error@std@@@boost@@YA?AU?$error_info_injector@Vruntime_error@std@@@exception_detail@0@ABVruntime_error@std@@@Z 1002ba30 f i Session.obj
 0002:00029a80       ??$enable_current_exception@U?$error_info_injector@Vruntime_error@std@@@exception_detail@boost@@@boost@@YA?AV?$clone_impl@U?$error_info_injector@Vruntime_error@std@@@exception_detail@boost@@@exception_detail@0@ABU?$error_info_injector@Vruntime_error@std@@@20@@Z 1002ba80 f i Session.obj
 0002:00029ab0       ?is_leap_year@?$gregorian_calendar_base@U?$year_month_day_base@Vgreg_year@gregorian@boost@@Vgreg_month@23@Vgreg_day@23@@date_time@boost@@I@date_time@boost@@SA_NVgreg_year@gregorian@3@@Z 1002bab0 f i Session.obj
 0002:00029af0       ??$enable_error_info@Ubad_day_of_month@gregorian@boost@@@boost@@YA?AU?$error_info_injector@Ubad_day_of_month@gregorian@boost@@@exception_detail@0@ABUbad_day_of_month@gregorian@0@@Z 1002baf0 f i Session.obj
 0002:00029b40       ??$enable_current_exception@U?$error_info_injector@Ubad_day_of_month@gregorian@boost@@@exception_detail@boost@@@boost@@YA?AV?$clone_impl@U?$error_info_injector@Ubad_day_of_month@gregorian@boost@@@exception_detail@boost@@@exception_detail@0@ABU?$error_info_injector@Ubad_day_of_month@gregorian@boost@@@20@@Z 1002bb40 f i Session.obj
 0002:00029b70       ??$enable_error_info@Ubad_year@gregorian@boost@@@boost@@YA?AU?$error_info_injector@Ubad_year@gregorian@boost@@@exception_detail@0@ABUbad_year@gregorian@0@@Z 1002bb70 f i Session.obj
 0002:00029bc0       ??$enable_current_exception@U?$error_info_injector@Ubad_year@gregorian@boost@@@exception_detail@boost@@@boost@@YA?AV?$clone_impl@U?$error_info_injector@Ubad_year@gregorian@boost@@@exception_detail@boost@@@exception_detail@0@ABU?$error_info_injector@Ubad_year@gregorian@boost@@@20@@Z 1002bbc0 f i Session.obj
 0002:00029bf0       ??$enable_error_info@Ubad_month@gregorian@boost@@@boost@@YA?AU?$error_info_injector@Ubad_month@gregorian@boost@@@exception_detail@0@ABUbad_month@gregorian@0@@Z 1002bbf0 f i Session.obj
 0002:00029c40       ??$enable_current_exception@U?$error_info_injector@Ubad_month@gregorian@boost@@@exception_detail@boost@@@boost@@YA?AV?$clone_impl@U?$error_info_injector@Ubad_month@gregorian@boost@@@exception_detail@boost@@@exception_detail@0@ABU?$error_info_injector@Ubad_month@gregorian@boost@@@20@@Z 1002bc40 f i Session.obj
 0002:00029c70       ??0?$clone_impl@U?$error_info_injector@Vruntime_error@std@@@exception_detail@boost@@@exception_detail@boost@@QAE@ABU?$error_info_injector@Vruntime_error@std@@@12@@Z 1002bc70 f i Session.obj
 0002:00029d20       ??0?$clone_impl@U?$error_info_injector@Ubad_day_of_month@gregorian@boost@@@exception_detail@boost@@@exception_detail@boost@@QAE@ABU?$error_info_injector@Ubad_day_of_month@gregorian@boost@@@12@@Z 1002bd20 f i Session.obj
 0002:00029dd0       ??0?$clone_impl@U?$error_info_injector@Ubad_year@gregorian@boost@@@exception_detail@boost@@@exception_detail@boost@@QAE@ABU?$error_info_injector@Ubad_year@gregorian@boost@@@12@@Z 1002bdd0 f i Session.obj
 0002:00029e80       ??0?$clone_impl@U?$error_info_injector@Ubad_month@gregorian@boost@@@exception_detail@boost@@@exception_detail@boost@@QAE@ABU?$error_info_injector@Ubad_month@gregorian@boost@@@12@@Z 1002be80 f i Session.obj
 0002:00029f30       ?rethrow@?$clone_impl@U?$error_info_injector@Vruntime_error@std@@@exception_detail@boost@@@exception_detail@boost@@$0PPPPPPPM@A@BEXXZ 1002bf30 f i Session.obj
 0002:00029f40       ?rethrow@?$clone_impl@U?$error_info_injector@Ubad_day_of_month@gregorian@boost@@@exception_detail@boost@@@exception_detail@boost@@$0PPPPPPPM@A@BEXXZ 1002bf40 f i Session.obj
 0002:00029f50       ?clone@?$clone_impl@U?$error_info_injector@Ubad_month@gregorian@boost@@@exception_detail@boost@@@exception_detail@boost@@$0PPPPPPPM@A@BEPBVclone_base@23@XZ 1002bf50 f i Session.obj
 0002:00029f60       ?clone@?$clone_impl@U?$error_info_injector@Ubad_year@gregorian@boost@@@exception_detail@boost@@@exception_detail@boost@@$0PPPPPPPM@A@BEPBVclone_base@23@XZ 1002bf60 f i Session.obj
 0002:00029f70       ??_E?$error_info_injector@Vruntime_error@std@@@exception_detail@boost@@WCI@AEPAXI@Z 1002bf70 f i Session.obj
 0002:00029f80       ??_E?$clone_impl@U?$error_info_injector@Ubad_month@gregorian@boost@@@exception_detail@boost@@@exception_detail@boost@@$4PPPPPPPM@EE@AEPAXI@Z 1002bf80 f i Session.obj
 0002:00029f90       ?clone@?$clone_impl@U?$error_info_injector@Vruntime_error@std@@@exception_detail@boost@@@exception_detail@boost@@$0PPPPPPPM@A@BEPBVclone_base@23@XZ 1002bf90 f i Session.obj
 0002:00029fa0       ??_E?$clone_impl@U?$error_info_injector@Ubad_year@gregorian@boost@@@exception_detail@boost@@@exception_detail@boost@@$4PPPPPPPM@EE@AEPAXI@Z 1002bfa0 f i Session.obj
 0002:00029fb0       ?clone@?$clone_impl@U?$error_info_injector@Ubad_day_of_month@gregorian@boost@@@exception_detail@boost@@@exception_detail@boost@@$0PPPPPPPM@A@BEPBVclone_base@23@XZ 1002bfb0 f i Session.obj
 0002:00029fc0       ??_E?$error_info_injector@Ubad_day_of_month@gregorian@boost@@@exception_detail@boost@@WCI@AEPAXI@Z 1002bfc0 f i Session.obj
 0002:00029fd0       ??_E?$clone_impl@U?$error_info_injector@Ubad_month@gregorian@boost@@@exception_detail@boost@@@exception_detail@boost@@WCI@AEPAXI@Z 1002bfd0 f i Session.obj
 0002:00029fe0       ??_E?$clone_impl@U?$error_info_injector@Ubad_year@gregorian@boost@@@exception_detail@boost@@@exception_detail@boost@@WCI@AEPAXI@Z 1002bfe0 f i Session.obj
 0002:00029ff0       ??_E?$clone_impl@U?$error_info_injector@Vruntime_error@std@@@exception_detail@boost@@@exception_detail@boost@@$4PPPPPPPM@EE@AEPAXI@Z 1002bff0 f i Session.obj
 0002:0002a000       ??_E?$error_info_injector@Ubad_month@gregorian@boost@@@exception_detail@boost@@WCI@AEPAXI@Z 1002c000 f i Session.obj
 0002:0002a010       ??_E?$error_info_injector@Ubad_year@gregorian@boost@@@exception_detail@boost@@WCI@AEPAXI@Z 1002c010 f i Session.obj
 0002:0002a020       ??_E?$clone_impl@U?$error_info_injector@Ubad_day_of_month@gregorian@boost@@@exception_detail@boost@@@exception_detail@boost@@$4PPPPPPPM@EE@AEPAXI@Z 1002c020 f i Session.obj
 0002:0002a030       ?rethrow@?$clone_impl@U?$error_info_injector@Ubad_year@gregorian@boost@@@exception_detail@boost@@@exception_detail@boost@@$0PPPPPPPM@A@BEXXZ 1002c030 f i Session.obj
 0002:0002a040       ??_E?$clone_impl@U?$error_info_injector@Vruntime_error@std@@@exception_detail@boost@@@exception_detail@boost@@WCI@AEPAXI@Z 1002c040 f i Session.obj
 0002:0002a050       ?rethrow@?$clone_impl@U?$error_info_injector@Ubad_month@gregorian@boost@@@exception_detail@boost@@@exception_detail@boost@@$0PPPPPPPM@A@BEXXZ 1002c050 f i Session.obj
 0002:0002a060       ??_E?$clone_impl@U?$error_info_injector@Ubad_day_of_month@gregorian@boost@@@exception_detail@boost@@@exception_detail@boost@@WCI@AEPAXI@Z 1002c060 f i Session.obj
 0002:0002a070       ?statusTranslatorInserter@nierr@@YA?AV?$ObjectInserter@V?$ObjectInserter@VInserterBase@jsonz@@@jsonz@@@jsonz@@AAVStatus@1@PBD@Z 1002c070 f i mxl_json.obj
 0002:0002a1c0       ?getOrderedDataInserter@nimxl@@YA?AV?$ArrayInserter@V?$ObjectInserter@V?$ObjectInserter@VInserterBase@jsonz@@@jsonz@@@jsonz@@@jsonz@@AAVStatus@nierr@@PBDP6AAAV?$ObjectInserter@V?$ObjectInserter@VInserterBase@jsonz@@@jsonz@@@3@AAV63@@Z@Z 1002c1c0 f   mxl_json.obj
 0002:0002a280       ?insertMxlInitialTranslatorInfo@nimxl@@YAAAV?$ObjectInserter@V?$ObjectInserter@VInserterBase@jsonz@@@jsonz@@@jsonz@@AAV23@@Z 1002c280 f   mxl_json.obj
 0002:0002a2c0       ??6?$ObjectInserter@VInserterBase@jsonz@@@jsonz@@QAEAAV?$ObjectInserter@V?$ObjectInserter@VInserterBase@jsonz@@@jsonz@@@1@ABU?$pair@PBDUObjectBegin@jsonz@@@std@@@Z 1002c2c0 f i mxl_json.obj
 0002:0002a2e0       ??1Win32Error@nierr@@QAE@XZ 1002c2e0 f i stdpath.obj
 0002:0002a2f0       ??6nierr@@YA?AV?$ObjectInserter@VInserterBase@jsonz@@@jsonz@@V12@ABVWin32Error@0@@Z 1002c2f0 f i stdpath.obj
 0002:0002a390       ?nierr_helper_statusThrow@nierr@@YAXAAVStatus@1@@Z 1002c390 f i stdpath.obj
 0002:0002a400       ?errStatusThrower@nierr@@YA?AV?$AutoStatusThrower@VStatus@nierr@@@1@XZ 1002c400 f i stdpath.obj
 0002:0002a410       ??6nierr@@YA?AV?$ObjectInserter@VInserterBase@jsonz@@@jsonz@@V12@ABVHRESULTError@0@@Z 1002c410 f i stdpath.obj
 0002:0002a480       ?createPrivateDir@nisysq@@YAXPBDAAVStatus@nierr@@PA_N@Z 1002c480 f   stdpath.obj
 0002:0002a8d0       ?readPathFromRegistry@nisysq@@YAXPBG0KAAV?$Vector@G@err@nihtl@@AAVStatus@nierr@@@Z 1002c8d0 f   stdpath.obj
 0002:0002aba0       ?readPathFromRegistry@nisysq@@YAXPBD0KAAV?$Vector@D@err@nihtl@@AAVStatus@nierr@@@Z 1002cba0 f   stdpath.obj
 0002:0002ace0       ?callSHGetFolderPath@nisysq@@YAXHAAV?$Vector@G@err@nihtl@@AAVStatus@nierr@@@Z 1002cce0 f   stdpath.obj
 0002:0002ae80       ?getNIShared32Dir@nisysq@@YAXAAV?$basic_string@DU?$char_traits@D@std@@V?$allocator@D@2@@std@@@Z 1002ce80 f   stdpath.obj
 0002:0002ae80       ?getNISharedDir@nisysq@@YAXAAV?$basic_string@DU?$char_traits@D@std@@V?$allocator@D@2@@std@@@Z 1002ce80 f   stdpath.obj
 0002:0002aee0       ?getUserAppDataDir@nisysq@@YAXAAV?$basic_string@DU?$char_traits@D@std@@V?$allocator@D@2@@std@@_N@Z 1002cee0 f   stdpath.obj
 0002:0002af50       ?getCommonAppDataDir@nisysq@@YAXAAV?$basic_string@DU?$char_traits@D@std@@V?$allocator@D@2@@std@@@Z 1002cf50 f   stdpath.obj
 0002:0002af50       ?getAdminSessionDir@nisysq@@YAXAAV?$basic_string@DU?$char_traits@D@std@@V?$allocator@D@2@@std@@@Z 1002cf50 f   stdpath.obj
 0002:0002afb0       ?getTempDir@nisysq@@YAXAAV?$basic_string@DU?$char_traits@D@std@@V?$allocator@D@2@@std@@@Z 1002cfb0 f   stdpath.obj
 0002:0002b010       ?tmpnam@nisysq@@YAXAAV?$basic_string@DU?$char_traits@D@std@@V?$allocator@D@2@@std@@@Z 1002d010 f   stdpath.obj
 0002:0002b0a0       ??1?$AutoStatusThrower@VStatus@nierr@@@nierr@@QAE@XZ 1002d0a0 f i stdpath.obj
 0002:0002b110       ??$autoStatusThrower@VStatus@nierr@@@nierr@@YA?AV?$AutoStatusThrower@VStatus@nierr@@@0@XZ 1002d110 f i stdpath.obj
 0002:0002b130       ??1?$BasicString@GV?$CharTraits@G@nihtl@@V?$Allocator@G@err@2@@nihtl@@QAE@XZ 1002d130 f i stdpath.obj
 0002:0002b150       ??$utf8to16@V?$BackInsertIterator@V?$BasicString@GV?$CharTraits@G@nihtl@@V?$Allocator@G@err@2@@nihtl@@@nihtl@@PBD@unchecked@utf8@@YA?AV?$BackInsertIterator@V?$BasicString@GV?$CharTraits@G@nihtl@@V?$Allocator@G@err@2@@nihtl@@@nihtl@@PBD0V23@@Z 1002d150 f i stdpath.obj
 0002:0002b2a0       ??$utf16to8@PAGV?$BackInsertIterator@V?$Vector@D@err@nihtl@@@nihtl@@@unchecked@utf8@@YA?AV?$BackInsertIterator@V?$Vector@D@err@nihtl@@@nihtl@@PAG0V23@@Z 1002d2a0 f i stdpath.obj
 0002:0002b310       ??$trimDir@V?$basic_string@DU?$char_traits@D@std@@V?$allocator@D@2@@std@@@nisysq@@YAXAAV?$basic_string@DU?$char_traits@D@std@@V?$allocator@D@2@@std@@@Z 1002d310 f i stdpath.obj
 0002:0002b3f0       ??$getNISharedDir_@VContainerStdString@nisysq@@@nisysq@@YAXVContainerStdString@0@AAVStatus@nierr@@@Z 1002d3f0 f i stdpath.obj
 0002:0002b3f0       ??$getNIShared32Dir_@VContainerStdString@nisysq@@@nisysq@@YAXVContainerStdString@0@AAVStatus@nierr@@@Z 1002d3f0 f i stdpath.obj
 0002:0002b4b0       ??$getUserAppDataDir_@VContainerStdString@nisysq@@@nisysq@@YAXVContainerStdString@0@_NAAVStatus@nierr@@@Z 1002d4b0 f i stdpath.obj
 0002:0002b5a0       ??$getCommonAppDataDir_@VContainerStdString@nisysq@@@nisysq@@YAXVContainerStdString@0@AAVStatus@nierr@@@Z 1002d5a0 f i stdpath.obj
 0002:0002b5a0       ??$getAdminSessionDir_@VContainerStdString@nisysq@@@nisysq@@YAXVContainerStdString@0@AAVStatus@nierr@@@Z 1002d5a0 f i stdpath.obj
 0002:0002b650       ??$getTempDir_@VContainerStdString@nisysq@@@nisysq@@YAXVContainerStdString@0@AAVStatus@nierr@@@Z 1002d650 f i stdpath.obj
 0002:0002b780       ?allocate_sc@?$AllocBase@D@err@nihtl@@QAEPADIAAVStatus@nierr@@@Z 1002d780 f i stdpath.obj
 0002:0002b7e0       ??$next@PBD@unchecked@utf8@@YAIAAPBD@Z 1002d7e0 f i stdpath.obj
 0002:0002b8b0       ?resize@?$Vector@GV?$Allocator@G@err@nihtl@@@nihtl@@QAEXIABGAAVStatus@nierr@@@Z 1002d8b0 f i stdpath.obj
 0002:0002b930       ??$append@V?$BackInsertIterator@V?$Vector@D@err@nihtl@@@nihtl@@@unchecked@utf8@@YA?AV?$BackInsertIterator@V?$Vector@D@err@nihtl@@@nihtl@@IV23@@Z 1002d930 f i stdpath.obj
 0002:0002ba70       ??$utf16to8@PAGV?$back_insert_iterator@V?$basic_string@DU?$char_traits@D@std@@V?$allocator@D@2@@std@@@std@@@unchecked@utf8@@YA?AV?$back_insert_iterator@V?$basic_string@DU?$char_traits@D@std@@V?$allocator@D@2@@std@@@std@@PAG0V23@@Z 1002da70 f i stdpath.obj
 0002:0002bad0       ?erase@?$Vector@GV?$Allocator@G@err@nihtl@@@nihtl@@QAEPAGPAG0@Z 1002dad0 f i stdpath.obj
 0002:0002bb30       ??$_Find_if@V?$reverse_iterator@PAD@std@@P6A_ND@Z@std@@YA?AV?$reverse_iterator@PAD@0@V10@0P6A_ND@Z@Z 1002db30 f i stdpath.obj
 0002:0002bb90       ??$append@V?$back_insert_iterator@V?$basic_string@DU?$char_traits@D@std@@V?$allocator@D@2@@std@@@std@@@unchecked@utf8@@YA?AV?$back_insert_iterator@V?$basic_string@DU?$char_traits@D@std@@V?$allocator@D@2@@std@@@std@@IV23@@Z 1002db90 f i stdpath.obj
 0002:0002bc80       ?set_out_of_memory@?$AllocBase@D@err@nihtl@@QBEXAAVStatus@nierr@@@Z 1002dc80 f i stdpath.obj
 0002:0002bc80       ?set_out_of_memory@?$AllocBase@G@err@nihtl@@QBEXAAVStatus@nierr@@@Z 1002dc80 f i stdpath.obj
 0002:0002bd80       ?reserve@?$BasicString@GV?$CharTraits@G@nihtl@@V?$Allocator@G@err@2@@nihtl@@QAEXIAAVStatus@nierr@@@Z 1002dd80 f i stdpath.obj
 0002:0002be20       ??$insert_@V?$NIteratorT@G@nihtl@@@?$Vector@GV?$Allocator@G@err@nihtl@@@nihtl@@AAEXIV?$NIteratorT@G@1@0AAVStatus@nierr@@@Z 1002de20 f i stdpath.obj
 0002:0002bfa0       ?allocate_sc@?$AllocBase@G@err@nihtl@@QAEPAGIAAVStatus@nierr@@@Z 1002dfa0 f i stdpath.obj
 0002:0002c000       ??$insert_@PBD@?$Vector@DV?$Allocator@D@err@nihtl@@@nihtl@@AAEXIPBD0AAVStatus@nierr@@@Z 1002e000 f i stdpath.obj
 0002:0002c170       ??_ESysqWrapper@nisysq@@UAEPAXI@Z 1002e170 f i  CIL library: CIL module
 0002:0002c170       ??_GSysqWrapper@nisysq@@UAEPAXI@Z 1002e170 f i SysqWrapper.obj
 0002:0002c1a0       ?getCommonAppDataDir@SysqWrapper@nisysq@@UBE?AV?$basic_string@DU?$char_traits@D@std@@V?$allocator@D@2@@std@@XZ 1002e1a0 f   SysqWrapper.obj
 0002:0002c1a0       ?getAdminSessionDir@SysqWrapper@nisysq@@UBE?AV?$basic_string@DU?$char_traits@D@std@@V?$allocator@D@2@@std@@XZ 1002e1a0 f   SysqWrapper.obj
 0002:0002c200       ?getNIShared32Dir@SysqWrapper@nisysq@@UBE?AV?$basic_string@DU?$char_traits@D@std@@V?$allocator@D@2@@std@@XZ 1002e200 f   SysqWrapper.obj
 0002:0002c200       ?getNISharedDir@SysqWrapper@nisysq@@UBE?AV?$basic_string@DU?$char_traits@D@std@@V?$allocator@D@2@@std@@XZ 1002e200 f   SysqWrapper.obj
 0002:0002c260       ?getTempDir@SysqWrapper@nisysq@@UBE?AV?$basic_string@DU?$char_traits@D@std@@V?$allocator@D@2@@std@@XZ 1002e260 f   SysqWrapper.obj
 0002:0002c2c0       ?getUserAppDataDir@SysqWrapper@nisysq@@UBE?AV?$basic_string@DU?$char_traits@D@std@@V?$allocator@D@2@@std@@_N@Z 1002e2c0 f   SysqWrapper.obj
 0002:0002c330       ?tmpnam@SysqWrapper@nisysq@@UBE?AV?$basic_string@DU?$char_traits@D@std@@V?$allocator@D@2@@std@@XZ 1002e330 f   SysqWrapper.obj
 0002:0002c390       ?readPathFromRegistry@SysqWrapper@nisysq@@UBE?AV?$basic_string@GU?$char_traits@G@std@@V?$allocator@G@2@@std@@PBG0K@Z 1002e390 f   SysqWrapper.obj
 0002:0002c430       ?readPathFromRegistry@SysqWrapper@nisysq@@UBE?AV?$basic_string@DU?$char_traits@D@std@@V?$allocator@D@2@@std@@PBD0K@Z 1002e430 f   SysqWrapper.obj
 0002:0002c4d0       ??1?$Vector@D@err@nihtl@@QAE@XZ 1002e4d0 f i SysqWrapper.obj
 0002:0002c4d0       ??1?$Vector@G@err@nihtl@@QAE@XZ 1002e4d0 f i stdpath.obj
 0002:0002c4f0       ?getNumberOfSubkeys@SysqWrapper@nisysq@@UBEIPBGK@Z 1002e4f0 f   SysqWrapper.obj
 0002:0002c560       ?getNumberOfSubkeys@SysqWrapper@nisysq@@UBEIPBDK@Z 1002e560 f   SysqWrapper.obj
 0002:0002c5d0       ?readSubkeyName@SysqWrapper@nisysq@@UBE?AV?$basic_string@GU?$char_traits@G@std@@V?$allocator@G@2@@std@@PBGKI@Z 1002e5d0 f   SysqWrapper.obj
 0002:0002c680       ?readSubkeyName@SysqWrapper@nisysq@@UBE?AV?$basic_string@DU?$char_traits@D@std@@V?$allocator@D@2@@std@@PBDKI@Z 1002e680 f   SysqWrapper.obj
 0002:0002c740       ??$_Construct@PAG@?$basic_string@GU?$char_traits@G@std@@V?$allocator@G@2@@std@@QAEXPAG0Uforward_iterator_tag@1@@Z 1002e740 f i SysqWrapper.obj
 0002:0002c7c0       ?getNumberOfSubkeys@nisysq@@YAIPBGKAAVStatus@nierr@@@Z 1002e7c0 f   windowsRegistry.obj
 0002:0002ca00       ?getNumberOfSubkeys@nisysq@@YAIPBDKAAVStatus@nierr@@@Z 1002ea00 f   windowsRegistry.obj
 0002:0002cac0       ?readSubkeyName@nisysq@@YAXPBGKIAAV?$Vector@G@err@nihtl@@AAVStatus@nierr@@@Z 1002eac0 f   windowsRegistry.obj
 0002:0002cd10       ?readSubkeyName@nisysq@@YAXPBDKIAAV?$Vector@D@err@nihtl@@AAVStatus@nierr@@@Z 1002ed10 f   windowsRegistry.obj
 0002:0002cdf0       ??0AutoRegKey@nisysq@@QAE@PBGKAAVStatus@nierr@@@Z 1002edf0 f   windowsRegistry.obj
 0002:0002d020       ??1AutoRegKey@nisysq@@QAE@XZ 1002f020 f   windowsRegistry.obj
 0002:0002d030       ?icmp@nisstutf8@@YAHPBD000@Z 1002f030 f   icmp.obj
 0002:0002d190       ??_GAutoLStrHandle@lvdataconv@@UAEPAXI@Z 1002f190 f i AutoLStrHandle.obj
 0002:0002d190       ??_EAutoLStrHandle@lvdataconv@@UAEPAXI@Z 1002f190 f i  CIL library: CIL module
 0002:0002d1d0       ??1AutoLStrHandle@lvdataconv@@UAE@XZ 1002f1d0 f   AutoLStrHandle.obj
 0002:0002d200       ??$convert@PAPAULStr@@V?$basic_string@DU?$char_traits@D@std@@V?$allocator@D@2@@std@@@lvdataconv@@YAXABQAPAULStr@@AAV?$basic_string@DU?$char_traits@D@std@@V?$allocator@D@2@@std@@@Z 1002f200 f   convert.obj
 0002:0002d3e0       ??$convert@V?$basic_string@DU?$char_traits@D@std@@V?$allocator@D@2@@std@@PAPAULStr@@@lvdataconv@@YAXABV?$basic_string@DU?$char_traits@D@std@@V?$allocator@D@2@@std@@AAPAPAULStr@@@Z 1002f3e0 f   convert.obj
 0002:0002d640       ??$_Construct@PAD@?$basic_string@DU?$char_traits@D@std@@V?$allocator@D@2@@std@@QAEXPAD0Uforward_iterator_tag@1@@Z 1002f640 f i NameIndexMap.obj
 0002:0002d640       ??$_Construct@PAE@?$basic_string@DU?$char_traits@D@std@@V?$allocator@D@2@@std@@QAEXPAE0Uforward_iterator_tag@1@@Z 1002f640 f i convert.obj
 0002:0002d6c0       ??$convert@VStatus@nierr@@ULVErrorClusterWithJSON@lvdataconv@@@lvdataconv@@YAXABVStatus@nierr@@AAULVErrorClusterWithJSON@0@@Z 1002f6c0 f   nierrStatusToLVErrorClusterWithJSON.obj
 0002:0002d800       ??0ExceptionBase@nierr@@QAE@HABVLocation@1@@Z 1002f800 f i cJSONUtils.obj
 0002:0002d860       ??0Exception@nierr@@QAE@HABVLocation@1@@Z 1002f860 f i cJSONUtils.obj
 0002:0002d900       ??1AutoFreeCharPtr@nijsonlh@@QAE@XZ 1002f900 f i cJSONUtils.obj
 0002:0002d910       ?print@nijsonlh@@YA?AV?$basic_string@DU?$char_traits@D@std@@V?$allocator@D@2@@std@@PAUcJSON@@@Z 1002f910 f   cJSONUtils.obj
 0002:0002d9a0       ??1CppJson@nijsonlh@@QAE@XZ 1002f9a0 f   CppJson.obj
 0002:0002da00       _nierr_defaultReallocJson  1002fa00 f   nierr_Status.obj
 0002:0002da90       _nierr_Status_setCode      1002fa90 f   nierr_Status.obj
 0002:0002db00       _nierr_Status_jsonSet      1002fb00 f   nierr_Status.obj
 0002:0002dea0       _jsonz_initBuffer          1002fea0 f   cgenerate.obj
 0002:0002e0a0       _jsonz_addString           100300a0 f   cgenerate.obj
 0002:0002e110       _jsonz_addInt32            10030110 f   cgenerate.obj
 0002:0002e1a0       _jsonz_addUInt32           100301a0 f   cgenerate.obj
 0002:0002e230       _jsonz_addObject           10030230 f   cgenerate.obj
 0002:0002e2a0       _jsonz_addArray            100302a0 f   cgenerate.obj
 0002:0002e920       _jsonz_internal_parseArrayItem 10030920 f   cparse.obj
 0002:0002eaf0       _jsonz_objectItem          10030af0 f   cparse.obj
 0002:0002edb0       _jsonz_StringDecoder_next  10030db0 f   cparse.obj
 0002:0002ef10       _jsonz_getValue            10030f10 f   cparse.obj
 0002:0002ef60       _jsonz_getString           10030f60 f   cparse.obj
 0002:0002efb0       _jsonz_endOfCompound       10030fb0 f   cparse.obj
 0002:0002eff0       _nisdbg_debugPrint_default 10030ff0 f   nisdbg.obj
 0002:0002f000       _nisdbg_lprintfln          10031000 f   nisdbg.obj
 0002:0002f020       _nisdbg_prefixCopyFromTail 10031020 f   nisdbg.obj
 0002:0002f090       _nisdbg_prefixBegin        10031090 f   nisdbg.obj
 0002:0002f0d0       _nisdbg_prefixSeparator    100310d0 f   nisdbg.obj
 0002:0002f110       _nisdbg_prefixEnd          10031110 f   nisdbg.obj
 0002:0002f150       _nisdbg_prefixComponent    10031150 f   nisdbg.obj
 0002:0002f170       _nisdbg_prefixFile         10031170 f   nisdbg.obj
 0002:0002f190       _nisdbg_prefixLineNumber   10031190 f   nisdbg.obj
 0002:0002f200       _nisdbg_vprintfln          10031200 f   nisdbg.obj
 0002:0002f2c0       _nisdbg_vsnprintf_default  100312c0 f   nisdbg_vsnprintf.obj
 0002:0002ff30       _IniNew@4                  10031f30 f   niini.obj
 0002:00030000       _IniItemExists@12          10032000 f   niini.obj
 0002:00030040       _IniNthItemName@16         10032040 f   niini.obj
 0002:000300a0       _IniSort@4                 100320a0 f   niini.obj
 0002:000301d0       _niini_IniReadFromFileHelper 100321d0 f   niini.obj
 0002:000302e0       _IniRead@12                100322e0 f   niini.obj
 0002:00030d60       _IniGetPointerToString@16  10032d60 f   niini.obj
 0002:00030e30       _niini_StrICmpWithoutSurrWhiteSpace 10032e30 f   toolbox.obj
 0002:00030f40       _niini_StrDup              10032f40 f   toolbox.obj
 0002:00030f80       _niini_StrDupWithoutSurrWhiteSpace 10032f80 f   toolbox.obj
 0002:00031000       _niini_PI_NewHandle        10033000 f   toolbox.obj
 0002:00031040       _niini_PI_SetHandleSize    10033040 f   toolbox.obj
 0002:000310a0       _niini_BinSearch           100330a0 f   toolbox.obj
 0002:000311f0       _niini_ListCreate          100331f0 f   lists.obj
 0002:00031270       _niini_ListNumItems        10033270 f   lists.obj
 0002:00031280       _niini_ListGetItem         10033280 f   lists.obj
 0002:000312d0       _niini_ListInsertItems     100332d0 f   lists.obj
 0002:00031340       _niini_ListRemoveItems     10033340 f   lists.obj
 0002:000313d0       _niini_ListFindItem        100333d0 f   lists.obj
 0002:00031440       _IniReadFromFileW@8        10033440 f   fileWIDE.obj
 0002:000315a0       _cJSON_Delete              100335a0 f   cJSON.obj
 0002:00031f50       _cJSON_ParseWithOpts       10033f50 f   cJSON.obj
 0002:00032d20       _SetLVRTModule             10034d20 f   labviewv:lvlvrt.obj
 0002:00032d40       _SetLVRTTLSIndex           10034d40 f   labviewv:lvlvrt.obj
 0002:00032d60       _SetLVRTTLSModule          10034d60 f   labviewv:lvlvrt.obj
 0002:00032da0       _SwapIfSamePtr             10034da0 f   labviewv:lvlvrt.obj
 0002:00032dd0       _GetModuleVersion          10034dd0 f   labviewv:lvlvrt.obj
 0002:00032e00       _GetModuleProc             10034e00 f   labviewv:lvlvrt.obj
 0002:00032fa0       _GetLVRTHandle             10034fa0 f   labviewv:lvlvrt.obj
 0002:00033040       _DynPatchLVRTProc          10035040 f   labviewv:lvlvrt.obj
 0002:000333c0       _SetLVRTModuleHook         100353c0 f   labviewv:SetLVRTModuleHook.obj
 0002:000333d0       _SetLVRTTLSIndexHook       100353d0 f   labviewv:SetLVRTTLSIndexHook.obj
 0002:000333e0       ??$wideCharToLower@K@tDoubleWCharTable@nNISST100@@QAEKKPAK@Z 100353e0 f i nisstlibu:tCharTable.obj
 0002:00033420       ??$wideCharToLower@K@tTripleWCharTable@nNISST100@@QAEKKPAK@Z 10035420 f i nisstlibu:tCharTable.obj
 0002:00033490       ??$wideCharToLowerTemplate@K@@YGKKPAK@Z 10035490 f i nisstlibu:tCharTable.obj
 0002:000335b0       ?wideCharToLower@tCharTable@nNISST100@@SGKKPAK@Z 100355b0 f   nisstlibu:tCharTable.obj
 0002:000335b9       ?_AtModuleExit@@YAXP6AXXZ@Z 100355b9 f   msvcprt:locale0_implib.obj
 0002:000335d4       ??1_Fac_node@std@@QAE@XZ   100355d4 f i msvcprt:locale0_implib.obj
 0002:000335ea       ??_G_Fac_node@std@@QAEPAXI@Z 100355ea f i msvcprt:locale0_implib.obj
 0002:0003360b       __Fac_tidy                 1003560b f   msvcprt:locale0_implib.obj
 0002:00033642       ?facet_Register@facet@locale@std@@CAXPAV123@@Z 10035642 f   msvcprt:locale0_implib.obj
 0002:00033680       ??_U@YAPAXI@Z              10035680 f   msvcprt:newaop_s.obj
 0002:0003368c       ?what@exception@std@@UBEPBDXZ 1003568c f   MSVCRT:MSVCR90.dll
 0002:00033692       ??0exception@std@@QAE@ABV01@@Z 10035692 f   MSVCRT:MSVCR90.dll
 0002:00033698       ?__ArrayUnwind@@YGXPAXIHP6EX0@Z@Z 10035698 f   MSVCRT:ehvecdtr.obj
 0002:000336f6       ??_M@YGXPAXIHP6EX0@Z@Z     100356f6 f   MSVCRT:ehvecdtr.obj
 0002:00033759       __onexit                   10035759 f   MSVCRT:atonexit.obj
 0002:000337fe       _atexit                    100357fe f   MSVCRT:atonexit.obj
 0002:00033816       ??_V@YAXPAX@Z              10035816 f   MSVCRT:MSVCR90.dll
 0002:0003381c       __purecall                 1003581c f   MSVCRT:MSVCR90.dll
 0002:00033822       ??3@YAXPAX@Z               10035822 f   MSVCRT:MSVCR90.dll
 0002:00033828       ??_Etype_info@@UAEPAXI@Z   10035828 f i MSVCRT:ti_inst.obj
 0002:00033874       ??2@YAPAXI@Z               10035874 f   MSVCRT:MSVCR90.dll
 0002:0003387a       ??1bad_cast@std@@UAE@XZ    1003587a f   MSVCRT:MSVCR90.dll
 0002:00033880       ??0bad_cast@std@@QAE@ABV01@@Z 10035880 f   MSVCRT:MSVCR90.dll
 0002:00033886       ___RTtypeid                10035886 f   MSVCRT:MSVCR90.dll
 0002:0003388c       _free                      1003588c f   MSVCRT:MSVCR90.dll
 0002:00033892       _malloc                    10035892 f   MSVCRT:MSVCR90.dll
 0002:00033898       ??2@YAPAXIABUnothrow_t@std@@@Z 10035898 f   MSVCRT:newopnt.obj
 0002:00033916       __CRT_INIT@12              10035916 f   MSVCRT:crtdll.obj
 0002:00033c52       __DllMainCRTStartup@12     10035c52 f   MSVCRT:crtdll.obj
 0002:00033c76       ?terminate@@YAXXZ          10035c76 f   MSVCRT:MSVCR90.dll
 0002:00033c7c       __SEH_prolog4              10035c7c f   MSVCRT:sehprolg4.obj
 0002:00033cc1       __SEH_epilog4              10035cc1 f   MSVCRT:sehprolg4.obj
 0002:00033cd5       __except_handler4          10035cd5 f   MSVCRT:chandler4gs.obj
 0002:00033cfa       __unlock                   10035cfa f   MSVCRT:MSVCR90.dll
 0002:00033d00       ___dllonexit               10035d00 f   MSVCRT:MSVCR90.dll
 0002:00033d06       __lock                     10035d06 f   MSVCRT:MSVCR90.dll
 0002:00033d0c       ___CxxFrameHandler3        10035d0c f   MSVCRT:MSVCR90.dll
 0002:00033d12       @__security_check_cookie@4 10035d12 f   MSVCRT:secchk.obj
 0002:00033d21       __EH_prolog3_catch         10035d21 f   MSVCRT:ehprolg3.obj
 0002:00033d57       __EH_epilog3               10035d57 f   MSVCRT:ehprolg3.obj
 0002:00033d6b       ___clean_type_info_names   10035d6b f   MSVCRT:tncleanup.obj
 0002:00033d77       __RTC_Initialize           10035d77 f   MSVCRT:_initsect_.obj
 0002:00033d9d       __RTC_Terminate            10035d9d f   MSVCRT:_initsect_.obj
 0002:00033dd0       __ValidateImageBase        10035dd0 f   MSVCRT:pesect.obj
 0002:00033e10       __FindPESection            10035e10 f   MSVCRT:pesect.obj
 0002:00033e60       __IsNonwritableInCurrentImage 10035e60 f   MSVCRT:pesect.obj
 0002:00033f1e       __initterm                 10035f1e f   MSVCRT:MSVCR90.dll
 0002:00033f24       __initterm_e               10035f24 f   MSVCRT:MSVCR90.dll
 0002:00033f2a       __amsg_exit                10035f2a f   MSVCRT:MSVCR90.dll
 0002:00033f30       ___CppXcptFilter           10035f30 f   MSVCRT:MSVCR90.dll
 0002:00033f36       _DllMain@12                10035f36 f   MSVCRT:dllmain.obj
 0002:00033f5a       ___security_init_cookie    10035f5a f   MSVCRT:gs_support.obj
 0002:00033ff0       __except_handler4_common   10035ff0 f   MSVCRT:MSVCR90.dll
 0002:00033ff6       ?_type_info_dtor_internal_method@type_info@@QAEXXZ 10035ff6 f   MSVCRT:MSVCR90.dll
 0002:00033ff6       ??1type_info@@UAE@XZ       10035ff6 f   MSVCRT:MSVCR90.dll
 0002:00033ffc       ___report_gsfailure        10035ffc f   MSVCRT:gs_report.obj
 0002:00034102       ___clean_type_info_names_internal 10036102 f   MSVCRT:MSVCR90.dll
 0002:00034108       __crt_debugger_hook        10036108 f   MSVCRT:MSVCR90.dll
 0002:00034110       ??1handle_manager@win32@detail@boost@@QAE@XZ 10036110 f i libboost_thread-vc90-mt-1_55:thread.obj
 0002:00034130       ??0remaining_time@timeout@detail@boost@@QAE@_K@Z 10036130 f i libboost_thread-vc90-mt-1_55:thread.obj
 0002:00034170       ??1once_context@detail@boost@@QAE@XZ 10036170 f i libboost_thread-vc90-mt-1_55:thread.obj
 0002:00034190       ?create_current_thread_tls_key@?A0xa413ba99@boost@@YAXXZ 10036190 f   libboost_thread-vc90-mt-1_55:thread.obj
 0002:000341b0       ?on_process_exit@boost@@YAXXZ 100361b0 f   libboost_thread-vc90-mt-1_55:thread.obj
 0002:000341d0       ?_Max@?$_Tree@V?$_Tmap_traits@PBXUtss_data_node@detail@boost@@U?$less@PBX@std@@V?$allocator@U?$pair@QBXUtss_data_node@detail@boost@@@std@@@5@$0A@@std@@@std@@KAPAU_Node@?$_Tree_nod@V?$_Tmap_traits@PBXUtss_data_node@detail@boost@@U?$less@PBX@std@@V?$allocator@U?$pair@QBXUtss_data_node@detail@boost@@@std@@@5@$0A@@std@@@2@PAU342@@Z 100361d0 f i libboost_thread-vc90-mt-1_55:thread.obj
 0002:000341f0       ?_Min@?$_Tree@V?$_Tmap_traits@PBXUtss_data_node@detail@boost@@U?$less@PBX@std@@V?$allocator@U?$pair@QBXUtss_data_node@detail@boost@@@std@@@5@$0A@@std@@@std@@KAPAU_Node@?$_Tree_nod@V?$_Tmap_traits@PBXUtss_data_node@detail@boost@@U?$less@PBX@std@@V?$allocator@U?$pair@QBXUtss_data_node@detail@boost@@@std@@@5@$0A@@std@@@2@PAU342@@Z 100361f0 f i libboost_thread-vc90-mt-1_55:thread.obj
 0002:00034210       ?_Rrotate@?$_Tree@V?$_Tmap_traits@PBXUtss_data_node@detail@boost@@U?$less@PBX@std@@V?$allocator@U?$pair@QBXUtss_data_node@detail@boost@@@std@@@5@$0A@@std@@@std@@IAEXPAU_Node@?$_Tree_nod@V?$_Tmap_traits@PBXUtss_data_node@detail@boost@@U?$less@PBX@std@@V?$allocator@U?$pair@QBXUtss_data_node@detail@boost@@@std@@@5@$0A@@std@@@2@@Z 10036210 f i libboost_thread-vc90-mt-1_55:thread.obj
 0002:00034270       ?_Inc@const_iterator@?$_Tree@V?$_Tmap_traits@PBXUtss_data_node@detail@boost@@U?$less@PBX@std@@V?$allocator@U?$pair@QBXUtss_data_node@detail@boost@@@std@@@5@$0A@@std@@@std@@QAEXXZ 10036270 f i libboost_thread-vc90-mt-1_55:thread.obj
 0002:000342e0       ??$int_to_string@H@detail@boost@@YAXHPAD@Z 100362e0 f i libboost_thread-vc90-mt-1_55:thread.obj
 0002:00034360       ??$int_to_string@K@detail@boost@@YAXKPAD@Z 10036360 f i libboost_thread-vc90-mt-1_55:thread.obj
 0002:000343e0       ?open_once_event@detail@boost@@YAPAXPADPAX@Z 100363e0 f i libboost_thread-vc90-mt-1_55:thread.obj
 0002:00034440       ?create_once_event@detail@boost@@YAPAXPADPAX@Z 10036440 f i libboost_thread-vc90-mt-1_55:thread.obj
 0002:000344a0       ?rollback_once_region@detail@boost@@YAXAAUonce_flag@2@AAUonce_context@12@@Z 100364a0 f i libboost_thread-vc90-mt-1_55:thread.obj
 0002:000344f0       ?call_once@boost@@YAXAAUonce_flag@1@P6AXXZ@Z 100364f0 f i libboost_thread-vc90-mt-1_55:thread.obj
 0002:00034700       ?from_special@?$int_adapter@I@date_time@boost@@SA?AV123@W4special_values@23@@Z 10036700 f i libboost_thread-vc90-mt-1_55:thread.obj
 0002:00034760       ??1?$intrusive_ptr@Uthread_data_base@detail@boost@@@boost@@QAE@XZ 10036760 f i libboost_thread-vc90-mt-1_55:thread.obj
 0002:00034790       ?from_special@?$int_adapter@_J@date_time@boost@@SA?AV123@W4special_values@23@@Z 10036790 f i libboost_thread-vc90-mt-1_55:thread.obj
 0002:00034810       ?_Lrotate@?$_Tree@V?$_Tmap_traits@PBXUtss_data_node@detail@boost@@U?$less@PBX@std@@V?$allocator@U?$pair@QBXUtss_data_node@detail@boost@@@std@@@5@$0A@@std@@@std@@IAEXPAU_Node@?$_Tree_nod@V?$_Tmap_traits@PBXUtss_data_node@detail@boost@@U?$less@PBX@std@@V?$allocator@U?$pair@QBXUtss_data_node@detail@boost@@@std@@@5@$0A@@std@@@2@@Z 10036810 f i libboost_thread-vc90-mt-1_55:thread.obj
 0002:00034860       ??$?G_J@?$int_adapter@_J@date_time@boost@@QBE?AV012@ABV012@@Z 10036860 f i libboost_thread-vc90-mt-1_55:thread.obj
 0002:000349d0       ?get_time_of_day@?$counted_time_system@U?$counted_time_rep@Vmillisec_posix_time_system_config@posix_time@boost@@@date_time@boost@@@date_time@boost@@SA?AVtime_duration@posix_time@3@ABU?$counted_time_rep@Vmillisec_posix_time_system_config@posix_time@boost@@@23@@Z 100369d0 f i libboost_thread-vc90-mt-1_55:thread.obj
 0002:00034a80       ?subtract_times@?$counted_time_system@U?$counted_time_rep@Vmillisec_posix_time_system_config@posix_time@boost@@@date_time@boost@@@date_time@boost@@SA?AVtime_duration@posix_time@3@ABU?$counted_time_rep@Vmillisec_posix_time_system_config@posix_time@boost@@@23@0@Z 10036a80 f i libboost_thread-vc90-mt-1_55:thread.obj
 0002:00034bc0       ?erase@?$_Tree@V?$_Tmap_traits@PBXUtss_data_node@detail@boost@@U?$less@PBX@std@@V?$allocator@U?$pair@QBXUtss_data_node@detail@boost@@@std@@@5@$0A@@std@@@std@@QAE?AViterator@12@Vconst_iterator@12@@Z 10036bc0 f i libboost_thread-vc90-mt-1_55:thread.obj
 0002:00034eb0       ?run_thread_exit_callbacks@?A0xa413ba99@boost@@YAXXZ 10036eb0 f   libboost_thread-vc90-mt-1_55:thread.obj
 0002:000350a0       ?on_thread_exit@boost@@YAXXZ 100370a0 f   libboost_thread-vc90-mt-1_55:thread.obj
 0002:000350b0       ??0date@gregorian@boost@@QAE@W4special_values@date_time@2@@Z 100370b0 f i libboost_thread-vc90-mt-1_55:thread.obj
 0002:00035150       ?from_day_number@?$gregorian_calendar_base@U?$year_month_day_base@Vgreg_year@gregorian@boost@@Vgreg_month@23@Vgreg_day@23@@date_time@boost@@I@date_time@boost@@SA?AU?$year_month_day_base@Vgreg_year@gregorian@boost@@Vgreg_month@23@Vgreg_day@23@@23@I@Z 10037150 f i libboost_thread-vc90-mt-1_55:thread.obj
 0002:00035280       ?date@?$counted_time_rep@Vmillisec_posix_time_system_config@posix_time@boost@@@date_time@boost@@QBE?AV0gregorian@3@XZ 10037280 f i libboost_thread-vc90-mt-1_55:thread.obj
 0002:00035370       ?remaining_milliseconds@timeout@detail@boost@@QBE?AUremaining_time@123@XZ 10037370 f i libboost_thread-vc90-mt-1_55:thread.obj
 0002:00035480       ?get_due_time@?A0xa413ba99@this_thread@boost@@YA?AT_LARGE_INTEGER@@ABUtimeout@detail@3@@Z 10037480 f   libboost_thread-vc90-mt-1_55:thread.obj
 0002:00035690       ?interruptible_wait@this_thread@boost@@YA_NPAXUtimeout@detail@2@@Z 10037690 f   libboost_thread-vc90-mt-1_55:thread.obj
 0002:00035950       ?dll_callback@?A0x72dedfaf@@YGHPAXK0@Z 10037950 f   libboost_thread-vc90-mt-1_55:tss_pe.obj
 0002:00035990       ?tss_cleanup_implemented@boost@@YAXXZ 10037990 f   libboost_thread-vc90-mt-1_55:tss_pe.obj
 0002:00035990       ?on_process_enter@boost@@YAXXZ 10037990 f   libboost_thread-vc90-mt-1_55:thread.obj
 0002:000359a0       ??_Gsystem_error_category@?A0x48f2d5a2@system@boost@@UAEPAXI@Z 100379a0 f i libboost_system-vc90-mt-1_55:error_code.obj
 0002:000359a0       ??_Egeneric_error_category@?A0x48f2d5a2@system@boost@@UAEPAXI@Z 100379a0 f i libboost_system-vc90-mt-1_55:error_code.obj
 0002:000359a0       ??_Gerror_category@system@boost@@UAEPAXI@Z 100379a0 f i libboost_system-vc90-mt-1_55:error_code.obj
 0002:000359a0       ??_Esystem_error_category@?A0x48f2d5a2@system@boost@@UAEPAXI@Z 100379a0 f i libboost_system-vc90-mt-1_55:error_code.obj
 0002:000359a0       ??_Ggeneric_error_category@?A0x48f2d5a2@system@boost@@UAEPAXI@Z 100379a0 f i libboost_system-vc90-mt-1_55:error_code.obj
 0002:000359a0       ??_Eerror_category@system@boost@@UAEPAXI@Z 100379a0 f i libboost_system-vc90-mt-1_55:error_code.obj
 0002:000359c0       ?default_error_condition@error_category@system@boost@@UBE?AVerror_condition@23@H@Z 100379c0 f i libboost_system-vc90-mt-1_55:error_code.obj
 0002:000359d0       ?equivalent@error_category@system@boost@@UBE_NHABVerror_condition@23@@Z 100379d0 f i libboost_system-vc90-mt-1_55:error_code.obj
 0002:00035a10       ?equivalent@error_category@system@boost@@UBE_NABVerror_code@23@H@Z 10037a10 f i libboost_system-vc90-mt-1_55:error_code.obj
 0002:00035a30       ??1local_free_on_destruction@detail@system@boost@@QAE@XZ 10037a30 f i libboost_system-vc90-mt-1_55:error_code.obj
 0002:00035a40       ?name@generic_error_category@?A0x48f2d5a2@system@boost@@UBEPBDXZ 10037a40 f   libboost_system-vc90-mt-1_55:error_code.obj
 0002:00035a50       ?name@system_error_category@?A0x48f2d5a2@system@boost@@UBEPBDXZ 10037a50 f   libboost_system-vc90-mt-1_55:error_code.obj
 0002:00035a60       ?message@system_error_category@?A0x48f2d5a2@system@boost@@UBE?AV?$basic_string@DU?$char_traits@D@std@@V?$allocator@D@2@@std@@H@Z 10037a60 f   libboost_system-vc90-mt-1_55:error_code.obj
 0002:00035c10       ?message@generic_error_category@?A0x48f2d5a2@system@boost@@UBE?AV?$basic_string@DU?$char_traits@D@std@@V?$allocator@D@2@@std@@H@Z 10037c10 f   libboost_system-vc90-mt-1_55:error_code.obj
 0002:00035cf0       ?system_category@system@boost@@YAABVerror_category@12@XZ 10037cf0 f   libboost_system-vc90-mt-1_55:error_code.obj
 0002:00035d60       ?generic_category@system@boost@@YAABVerror_category@12@XZ 10037d60 f   libboost_system-vc90-mt-1_55:error_code.obj
 0002:00035dd0       ?default_error_condition@system_error_category@?A0x48f2d5a2@system@boost@@UBE?AVerror_condition@34@H@Z 10037dd0 f   libboost_system-vc90-mt-1_55:error_code.obj
 0002:000364ba       __CxxThrowException@8      100384ba f   MSVCRT:MSVCR90.dll
 0002:000364c0       __aulldiv                  100384c0 f   MSVCRT:ulldiv.obj
 0002:00036530       __allmul                   10038530 f   MSVCRT:llmul.obj
 0002:00036570       __allrem                   10038570 f   MSVCRT:llrem.obj
 0002:00036630       __alldiv                   10038630 f   MSVCRT:lldiv.obj
 0002:000366e0       __aulldvrm                 100386e0 f   MSVCRT:ulldvrm.obj
 0002:00036780       __ftol2_sse                10038780 f   MSVCRT:ftol2.obj
 0002:00036789       __ftol2_pentium4           10038789 f   MSVCRT:ftol2.obj
 0002:0003679c       __ftol2_sse_excpt          1003879c f   MSVCRT:ftol2.obj
 0002:000367b6       __ftol2                    100387b6 f   MSVCRT:ftol2.obj
 0002:0003682c       __CIpow                    1003882c f   MSVCRT:MSVCR90.dll
 0002:00036832       _memcpy                    10038832 f   MSVCRT:MSVCR90.dll
 0002:00036838       _memset                    10038838 f   MSVCRT:MSVCR90.dll
 0002:0003683e       __except_handler3          1003883e f   MSVCRT:MSVCR90.dll
 0002:00036844       _floor                     10038844 f   MSVCRT:MSVCR90.dll
 0002:0003689a       __get_sse2_info            1003889a f   MSVCRT:cpu_disp.obj
 0002:000368fc       ___sse2_available_init     100388fc f   MSVCRT:cpu_disp.obj
 0003:00000000       __imp__RegQueryInfoKeyW@48 1003c000     advapi32:ADVAPI32.dll
 0003:00000004       __imp__RegOpenKeyExW@20    1003c004     advapi32:ADVAPI32.dll
 0003:00000008       __imp__RegEnumKeyExW@32    1003c008     advapi32:ADVAPI32.dll
 0003:0000000c       __imp__RegCloseKey@4       1003c00c     advapi32:ADVAPI32.dll
 0003:00000010       __imp__RegQueryValueExW@24 1003c010     advapi32:ADVAPI32.dll
 0003:00000014       \177ADVAPI32_NULL_THUNK_DATA 1003c014     advapi32:ADVAPI32.dll
 0003:00000018       __imp__CreateWaitableTimerA@12 1003c018     kernel32:KERNEL32.dll
 0003:0000001c       __imp__SetWaitableTimer@24 1003c01c     kernel32:KERNEL32.dll
 0003:00000020       __imp__WaitForMultipleObjects@16 1003c020     kernel32:KERNEL32.dll
 0003:00000024       __imp__CloseHandle@4       1003c024     kernel32:KERNEL32.dll
 0003:00000028       __imp__WaitForSingleObject@8 1003c028     kernel32:KERNEL32.dll
 0003:0000002c       __imp__SetEvent@4          1003c02c     kernel32:KERNEL32.dll
 0003:00000030       __imp__InitializeCriticalSection@4 1003c030     kernel32:KERNEL32.dll
 0003:00000034       __imp__LeaveCriticalSection@4 1003c034     kernel32:KERNEL32.dll
 0003:00000038       __imp__EnterCriticalSection@4 1003c038     kernel32:KERNEL32.dll
 0003:0000003c       __imp__DeleteCriticalSection@4 1003c03c     kernel32:KERNEL32.dll
 0003:00000040       __imp__InterlockedIncrement@4 1003c040     kernel32:KERNEL32.dll
 0003:00000044       __imp__InterlockedDecrement@4 1003c044     kernel32:KERNEL32.dll
 0003:00000048       __imp__GetTickCount@0      1003c048     kernel32:KERNEL32.dll
 0003:0000004c       __imp__GetSystemTimeAsFileTime@4 1003c04c     kernel32:KERNEL32.dll
 0003:00000050       __imp__CreateDirectoryW@8  1003c050     kernel32:KERNEL32.dll
 0003:00000054       __imp__FormatMessageA@28   1003c054     kernel32:KERNEL32.dll
 0003:00000058       __imp__GetFileAttributesW@4 1003c058     kernel32:KERNEL32.dll
 0003:0000005c       __imp__GetTempPathW@8      1003c05c     kernel32:KERNEL32.dll
 0003:00000060       __imp__GetLastError@0      1003c060     kernel32:KERNEL32.dll
 0003:00000064       __imp__LocalFree@4         1003c064     kernel32:KERNEL32.dll
 0003:00000068       __imp__OutputDebugStringA@4 1003c068     kernel32:KERNEL32.dll
 0003:0000006c       __imp__FindClose@4         1003c06c     kernel32:KERNEL32.dll
 0003:00000070       __imp__FindFirstFileW@8    1003c070     kernel32:KERNEL32.dll
 0003:00000074       __imp__TlsSetValue@8       1003c074     kernel32:KERNEL32.dll
 0003:00000078       __imp__TlsGetValue@4       1003c078     kernel32:KERNEL32.dll
 0003:0000007c       __imp__GetProcAddress@8    1003c07c     kernel32:KERNEL32.dll
 0003:00000080       __imp__GetModuleHandleA@4  1003c080     kernel32:KERNEL32.dll
 0003:00000084       __imp__ExitProcess@4       1003c084     kernel32:KERNEL32.dll
 0003:00000088       __imp__GetModuleFileNameA@12 1003c088     kernel32:KERNEL32.dll
 0003:0000008c       __imp__InterlockedExchange@8 1003c08c     kernel32:KERNEL32.dll
 0003:00000090       __imp__Sleep@4             1003c090     kernel32:KERNEL32.dll
 0003:00000094       __imp__InterlockedCompareExchange@12 1003c094     kernel32:KERNEL32.dll
 0003:00000098       __imp__DisableThreadLibraryCalls@4 1003c098     kernel32:KERNEL32.dll
 0003:0000009c       __imp__QueryPerformanceCounter@4 1003c09c     kernel32:KERNEL32.dll
 0003:000000a0       __imp__GetCurrentThreadId@0 1003c0a0     kernel32:KERNEL32.dll
 0003:000000a4       __imp__GetCurrentProcessId@0 1003c0a4     kernel32:KERNEL32.dll
 0003:000000a8       __imp__TerminateProcess@8  1003c0a8     kernel32:KERNEL32.dll
 0003:000000ac       __imp__GetCurrentProcess@0 1003c0ac     kernel32:KERNEL32.dll
 0003:000000b0       __imp__UnhandledExceptionFilter@4 1003c0b0     kernel32:KERNEL32.dll
 0003:000000b4       __imp__SetUnhandledExceptionFilter@4 1003c0b4     kernel32:KERNEL32.dll
 0003:000000b8       __imp__IsDebuggerPresent@0 1003c0b8     kernel32:KERNEL32.dll
 0003:000000bc       __imp__HeapFree@12         1003c0bc     kernel32:KERNEL32.dll
 0003:000000c0       __imp__GetProcessHeap@0    1003c0c0     kernel32:KERNEL32.dll
 0003:000000c4       __imp__TlsAlloc@0          1003c0c4     kernel32:KERNEL32.dll
 0003:000000c8       __imp__TlsFree@4           1003c0c8     kernel32:KERNEL32.dll
 0003:000000cc       __imp__OpenEventA@12       1003c0cc     kernel32:KERNEL32.dll
 0003:000000d0       __imp__ResetEvent@4        1003c0d0     kernel32:KERNEL32.dll
 0003:000000d4       __imp__SystemTimeToFileTime@8 1003c0d4     kernel32:KERNEL32.dll
 0003:000000d8       __imp__CreateEventA@16     1003c0d8     kernel32:KERNEL32.dll
 0003:000000dc       \177KERNEL32_NULL_THUNK_DATA 1003c0dc     kernel32:KERNEL32.dll
 0003:000000e0       __imp_??9locale@std@@QBE_NABV01@@Z 1003c0e0     msvcprt:MSVCP90.dll
 0003:000000e4       __imp_?deallocate@?$allocator@G@std@@QAEXPAGI@Z 1003c0e4     msvcprt:MSVCP90.dll
 0003:000000e8       __imp_?allocate@?$allocator@G@std@@QAEPAGI@Z 1003c0e8     msvcprt:MSVCP90.dll
 0003:000000ec       __imp_??$?8DU?$char_traits@D@std@@V?$allocator@D@1@@std@@YA_NABV?$basic_string@DU?$char_traits@D@std@@V?$allocator@D@2@@0@PBD@Z 1003c0ec     msvcprt:MSVCP90.dll
 0003:000000f0       __imp_??$?9DU?$char_traits@D@std@@V?$allocator@D@1@@std@@YA_NABV?$basic_string@DU?$char_traits@D@std@@V?$allocator@D@2@@0@PBD@Z 1003c0f0     msvcprt:MSVCP90.dll
 0003:000000f4       __imp_?npos@?$basic_string@DU?$char_traits@D@std@@V?$allocator@D@2@@std@@2IB 1003c0f4     msvcprt:MSVCP90.dll
 0003:000000f8       __imp_?find@?$basic_string@DU?$char_traits@D@std@@V?$allocator@D@2@@std@@QBEIDI@Z 1003c0f8     msvcprt:MSVCP90.dll
 0003:000000fc       __imp_?append@?$basic_string@DU?$char_traits@D@std@@V?$allocator@D@2@@std@@QAEAAV12@PBD@Z 1003c0fc     msvcprt:MSVCP90.dll
 0003:00000100       __imp_?append@?$basic_string@DU?$char_traits@D@std@@V?$allocator@D@2@@std@@QAEAAV12@ABV12@@Z 1003c100     msvcprt:MSVCP90.dll
 0003:00000104       __imp_?assign@?$basic_string@DU?$char_traits@D@std@@V?$allocator@D@2@@std@@QAEAAV12@V?$_String_const_iterator@DU?$char_traits@D@std@@V?$allocator@D@2@@2@0@Z 1003c104     msvcprt:MSVCP90.dll
 0003:00000108       __imp_?append@?$basic_string@DU?$char_traits@D@std@@V?$allocator@D@2@@std@@QAEAAV12@ID@Z 1003c108     msvcprt:MSVCP90.dll
 0003:0000010c       __imp_?push_back@?$basic_string@DU?$char_traits@D@std@@V?$allocator@D@2@@std@@QAEXD@Z 1003c10c     msvcprt:MSVCP90.dll
 0003:00000110       __imp_?rend@?$basic_string@DU?$char_traits@D@std@@V?$allocator@D@2@@std@@QAE?AV?$reverse_iterator@V?$_String_iterator@DU?$char_traits@D@std@@V?$allocator@D@2@@std@@@2@XZ 1003c110     msvcprt:MSVCP90.dll
 0003:00000114       __imp_?rbegin@?$basic_string@DU?$char_traits@D@std@@V?$allocator@D@2@@std@@QAE?AV?$reverse_iterator@V?$_String_iterator@DU?$char_traits@D@std@@V?$allocator@D@2@@std@@@2@XZ 1003c114     msvcprt:MSVCP90.dll
 0003:00000118       __imp_?clear@?$basic_string@DU?$char_traits@D@std@@V?$allocator@D@2@@std@@QAEXXZ 1003c118     msvcprt:MSVCP90.dll
 0003:0000011c       __imp_?reserve@?$basic_string@GU?$char_traits@G@std@@V?$allocator@G@2@@std@@QAEXI@Z 1003c11c     msvcprt:MSVCP90.dll
 0003:00000120       __imp_?append@?$basic_string@GU?$char_traits@G@std@@V?$allocator@G@2@@std@@QAEAAV12@IG@Z 1003c120     msvcprt:MSVCP90.dll
 0003:00000124       __imp_?_Tidy@?$basic_string@GU?$char_traits@G@std@@V?$allocator@G@2@@std@@IAEX_NI@Z 1003c124     msvcprt:MSVCP90.dll
 0003:00000128       __imp_??0?$basic_string@GU?$char_traits@G@std@@V?$allocator@G@2@@std@@QAE@PBG@Z 1003c128     msvcprt:MSVCP90.dll
 0003:0000012c       __imp_?_Decref@facet@locale@std@@QAEPAV123@XZ 1003c12c     msvcprt:MSVCP90.dll
 0003:00000130       __imp_?reserve@?$basic_string@DU?$char_traits@D@std@@V?$allocator@D@2@@std@@QAEXI@Z 1003c130     msvcprt:MSVCP90.dll
 0003:00000134       __imp_?_Tidy@?$basic_string@DU?$char_traits@D@std@@V?$allocator@D@2@@std@@IAEX_NI@Z 1003c134     msvcprt:MSVCP90.dll
 0003:00000138       __imp_?thousands_sep@?$numpunct@D@std@@QBEDXZ 1003c138     msvcprt:MSVCP90.dll
 0003:0000013c       __imp_?grouping@?$numpunct@D@std@@QBE?AV?$basic_string@DU?$char_traits@D@std@@V?$allocator@D@2@@2@XZ 1003c13c     msvcprt:MSVCP90.dll
 0003:00000140       __imp_?_Getcat@?$numpunct@D@std@@SAIPAPBVfacet@locale@2@PBV42@@Z 1003c140     msvcprt:MSVCP90.dll
 0003:00000144       __imp_?classic@locale@std@@SAABV12@XZ 1003c144     msvcprt:MSVCP90.dll
 0003:00000148       __imp_??$?8DU?$char_traits@D@std@@V?$allocator@D@1@@std@@YA_NABV?$basic_string@DU?$char_traits@D@std@@V?$allocator@D@2@@0@0@Z 1003c148     msvcprt:MSVCP90.dll
 0003:0000014c       __imp_?id@?$numpunct@D@std@@2V0locale@2@A 1003c14c     msvcprt:MSVCP90.dll
 0003:00000150       __imp_??4?$basic_string@DU?$char_traits@D@std@@V?$allocator@D@2@@std@@QAEAAV01@ABV01@@Z 1003c150     msvcprt:MSVCP90.dll
 0003:00000154       __imp_?at@?$basic_string@DU?$char_traits@D@std@@V?$allocator@D@2@@std@@QAEAADI@Z 1003c154     msvcprt:MSVCP90.dll
 0003:00000158       __imp_?substr@?$basic_string@DU?$char_traits@D@std@@V?$allocator@D@2@@std@@QBE?AV12@II@Z 1003c158     msvcprt:MSVCP90.dll
 0003:0000015c       __imp_?begin@?$basic_string@DU?$char_traits@D@std@@V?$allocator@D@2@@std@@QBE?AV?$_String_const_iterator@DU?$char_traits@D@std@@V?$allocator@D@2@@2@XZ 1003c15c     msvcprt:MSVCP90.dll
 0003:00000160       __imp_?end@?$basic_string@DU?$char_traits@D@std@@V?$allocator@D@2@@std@@QBE?AV?$_String_const_iterator@DU?$char_traits@D@std@@V?$allocator@D@2@@2@XZ 1003c160     msvcprt:MSVCP90.dll
 0003:00000164       __imp_?swap@?$basic_string@DU?$char_traits@D@std@@V?$allocator@D@2@@std@@QAEXAAV12@@Z 1003c164     msvcprt:MSVCP90.dll
 0003:00000168       __imp_?erase@?$basic_string@DU?$char_traits@D@std@@V?$allocator@D@2@@std@@QAEAAV12@II@Z 1003c168     msvcprt:MSVCP90.dll
 0003:0000016c       __imp_??0?$basic_string@DU?$char_traits@D@std@@V?$allocator@D@2@@std@@QAE@V?$_String_const_iterator@DU?$char_traits@D@std@@V?$allocator@D@2@@1@0@Z 1003c16c     msvcprt:MSVCP90.dll
 0003:00000170       __imp_??$?HDU?$char_traits@D@std@@V?$allocator@D@1@@std@@YA?AV?$basic_string@DU?$char_traits@D@std@@V?$allocator@D@2@@0@ABV10@PBD@Z 1003c170     msvcprt:MSVCP90.dll
 0003:00000174       __imp_??$?HDU?$char_traits@D@std@@V?$allocator@D@1@@std@@YA?AV?$basic_string@DU?$char_traits@D@std@@V?$allocator@D@2@@0@PBDABV10@@Z 1003c174     msvcprt:MSVCP90.dll
 0003:00000178       __imp_??Bid@locale@std@@QAEIXZ 1003c178     msvcprt:MSVCP90.dll
 0003:0000017c       __imp_?_Incref@facet@locale@std@@QAEXXZ 1003c17c     msvcprt:MSVCP90.dll
 0003:00000180       __imp_??0locale@std@@QAE@XZ 1003c180     msvcprt:MSVCP90.dll
 0003:00000184       __imp_??1locale@std@@QAE@XZ 1003c184     msvcprt:MSVCP90.dll
 0003:00000188       __imp_?_Getfacet@locale@std@@QBEPBVfacet@12@I@Z 1003c188     msvcprt:MSVCP90.dll
 0003:0000018c       __imp_?_Getcat@?$ctype@D@std@@SAIPAPBVfacet@locale@2@PBV42@@Z 1003c18c     msvcprt:MSVCP90.dll
 0003:00000190       __imp_?erase@?$basic_string@DU?$char_traits@D@std@@V?$allocator@D@2@@std@@QAE?AV?$_String_iterator@DU?$char_traits@D@std@@V?$allocator@D@2@@2@V?$_String_const_iterator@DU?$char_traits@D@std@@V?$allocator@D@2@@2@0@Z 1003c190     msvcprt:MSVCP90.dll
 0003:00000194       __imp_?begin@?$basic_string@DU?$char_traits@D@std@@V?$allocator@D@2@@std@@QAE?AV?$_String_iterator@DU?$char_traits@D@std@@V?$allocator@D@2@@2@XZ 1003c194     msvcprt:MSVCP90.dll
 0003:00000198       __imp_?end@?$basic_string@DU?$char_traits@D@std@@V?$allocator@D@2@@std@@QAE?AV?$_String_iterator@DU?$char_traits@D@std@@V?$allocator@D@2@@2@XZ 1003c198     msvcprt:MSVCP90.dll
 0003:0000019c       __imp_??0_Lockit@std@@QAE@H@Z 1003c19c     msvcprt:MSVCP90.dll
 0003:000001a0       __imp_??1_Lockit@std@@QAE@XZ 1003c1a0     msvcprt:MSVCP90.dll
 0003:000001a4       __imp_?id@?$ctype@D@std@@2V0locale@2@A 1003c1a4     msvcprt:MSVCP90.dll
 0003:000001a8       __imp_??0?$basic_string@GU?$char_traits@G@std@@V?$allocator@G@2@@std@@QAE@XZ 1003c1a8     msvcprt:MSVCP90.dll
 0003:000001ac       __imp_??1?$basic_string@GU?$char_traits@G@std@@V?$allocator@G@2@@std@@QAE@XZ 1003c1ac     msvcprt:MSVCP90.dll
 0003:000001b0       __imp_?push_back@?$basic_string@GU?$char_traits@G@std@@V?$allocator@G@2@@std@@QAEXG@Z 1003c1b0     msvcprt:MSVCP90.dll
 0003:000001b4       __imp_??$?MDU?$char_traits@D@std@@V?$allocator@D@1@@std@@YA_NABV?$basic_string@DU?$char_traits@D@std@@V?$allocator@D@2@@0@0@Z 1003c1b4     msvcprt:MSVCP90.dll
 0003:000001b8       __imp_?uncaught_exception@std@@YA_NXZ 1003c1b8     msvcprt:MSVCP90.dll
 0003:000001bc       __imp_??0?$basic_string@DU?$char_traits@D@std@@V?$allocator@D@2@@std@@QAE@PBD@Z 1003c1bc     msvcprt:MSVCP90.dll
 0003:000001c0       __imp_??4?$basic_string@DU?$char_traits@D@std@@V?$allocator@D@2@@std@@QAEAAV01@PBD@Z 1003c1c0     msvcprt:MSVCP90.dll
 0003:000001c4       __imp_??Y?$basic_string@DU?$char_traits@D@std@@V?$allocator@D@2@@std@@QAEAAV01@ABV01@@Z 1003c1c4     msvcprt:MSVCP90.dll
 0003:000001c8       __imp_??Y?$basic_string@DU?$char_traits@D@std@@V?$allocator@D@2@@std@@QAEAAV01@PBD@Z 1003c1c8     msvcprt:MSVCP90.dll
 0003:000001cc       __imp_??0?$basic_string@DU?$char_traits@D@std@@V?$allocator@D@2@@std@@QAE@XZ 1003c1cc     msvcprt:MSVCP90.dll
 0003:000001d0       __imp_??0?$basic_string@DU?$char_traits@D@std@@V?$allocator@D@2@@std@@QAE@ABV01@@Z 1003c1d0     msvcprt:MSVCP90.dll
 0003:000001d4       __imp_??1?$basic_string@DU?$char_traits@D@std@@V?$allocator@D@2@@std@@QAE@XZ 1003c1d4     msvcprt:MSVCP90.dll
 0003:000001d8       \177MSVCP90_NULL_THUNK_DATA 1003c1d8     msvcprt:MSVCP90.dll
 0003:000001dc       __imp__isdigit             1003c1dc     MSVCRT:MSVCR90.dll
 0003:000001e0       __imp__ferror              1003c1e0     MSVCRT:MSVCR90.dll
 0003:000001e4       __imp__realloc             1003c1e4     MSVCRT:MSVCR90.dll
 0003:000001e8       __imp__toupper             1003c1e8     MSVCRT:MSVCR90.dll
 0003:000001ec       __imp__qsort               1003c1ec     MSVCRT:MSVCR90.dll
 0003:000001f0       __imp___wfopen             1003c1f0     MSVCRT:MSVCR90.dll
 0003:000001f4       __imp__abort               1003c1f4     MSVCRT:MSVCR90.dll
 0003:000001f8       __imp_?terminate@@YAXXZ    1003c1f8     MSVCRT:MSVCR90.dll
 0003:000001fc       __imp___unlock             1003c1fc     MSVCRT:MSVCR90.dll
 0003:00000200       __imp____dllonexit         1003c200     MSVCRT:MSVCR90.dll
 0003:00000204       __imp___encode_pointer     1003c204     MSVCRT:MSVCR90.dll
 0003:00000208       __imp___lock               1003c208     MSVCRT:MSVCR90.dll
 0003:0000020c       __imp___onexit             1003c20c     MSVCRT:MSVCR90.dll
 0003:00000210       __imp___decode_pointer     1003c210     MSVCRT:MSVCR90.dll
 0003:00000214       __imp____CxxFrameHandler3  1003c214     MSVCRT:MSVCR90.dll
 0003:00000218       __imp___vsnprintf_s        1003c218     MSVCRT:MSVCR90.dll
 0003:00000218       __imp__vsnprintf_s         1003c218     MSVCRT:MSVCR90.dll
 0003:0000021c       __imp___malloc_crt         1003c21c     MSVCRT:MSVCR90.dll
 0003:00000220       __imp___encoded_null       1003c220     MSVCRT:MSVCR90.dll
 0003:00000224       __imp___initterm           1003c224     MSVCRT:MSVCR90.dll
 0003:00000228       __imp___initterm_e         1003c228     MSVCRT:MSVCR90.dll
 0003:0000022c       __imp___amsg_exit          1003c22c     MSVCRT:MSVCR90.dll
 0003:00000230       __imp___adjust_fdiv        1003c230     MSVCRT:MSVCR90.dll
 0003:00000234       __imp____CppXcptFilter     1003c234     MSVCRT:MSVCR90.dll
 0003:00000238       __imp___except_handler4_common 1003c238     MSVCRT:MSVCR90.dll
 0003:0000023c       __imp_?_type_info_dtor_internal_method@type_info@@QAEXXZ 1003c23c     MSVCRT:MSVCR90.dll
 0003:00000240       __imp____clean_type_info_names_internal 1003c240     MSVCRT:MSVCR90.dll
 0003:00000244       __imp___crt_debugger_hook  1003c244     MSVCRT:MSVCR90.dll
 0003:00000248       __imp__strtol              1003c248     MSVCRT:MSVCR90.dll
 0003:0000024c       __imp__strstr              1003c24c     MSVCRT:MSVCR90.dll
 0003:00000250       __imp__calloc              1003c250     MSVCRT:MSVCR90.dll
 0003:00000254       __imp__strncat             1003c254     MSVCRT:MSVCR90.dll
 0003:00000258       __imp__sprintf             1003c258     MSVCRT:MSVCR90.dll
 0003:0000025c       __imp__isxdigit            1003c25c     MSVCRT:MSVCR90.dll
 0003:00000260       __imp__strncpy_s           1003c260     MSVCRT:MSVCR90.dll
 0003:00000264       __imp__strchr              1003c264     MSVCRT:MSVCR90.dll
 0003:00000268       __imp__memmove             1003c268     MSVCRT:MSVCR90.dll
 0003:0000026c       __imp__sprintf_s           1003c26c     MSVCRT:MSVCR90.dll
 0003:00000270       __imp__fclose              1003c270     MSVCRT:MSVCR90.dll
 0003:00000274       __imp__fseek               1003c274     MSVCRT:MSVCR90.dll
 0003:00000278       __imp__fread               1003c278     MSVCRT:MSVCR90.dll
 0003:0000027c       __imp___errno              1003c27c     MSVCRT:MSVCR90.dll
 0003:00000280       __imp__tmpnam              1003c280     MSVCRT:MSVCR90.dll
 0003:00000284       __imp__strncmp             1003c284     MSVCRT:MSVCR90.dll
 0003:00000288       __imp___gmtime64           1003c288     MSVCRT:MSVCR90.dll
 0003:0000028c       __imp__malloc              1003c28c     MSVCRT:MSVCR90.dll
 0003:00000290       __imp__free                1003c290     MSVCRT:MSVCR90.dll
 0003:00000294       __imp__isspace             1003c294     MSVCRT:MSVCR90.dll
 0003:00000298       __imp__strncpy             1003c298     MSVCRT:MSVCR90.dll
 0003:0000029c       __imp____RTtypeid          1003c29c     MSVCRT:MSVCR90.dll
 0003:000002a0       __imp_??8type_info@@QBE_NABV0@@Z 1003c2a0     MSVCRT:MSVCR90.dll
 0003:000002a4       __imp_??0bad_cast@std@@QAE@ABV01@@Z 1003c2a4     MSVCRT:MSVCR90.dll
 0003:000002a8       __imp_??0bad_cast@std@@QAE@PBD@Z 1003c2a8     MSVCRT:MSVCR90.dll
 0003:000002ac       __imp_??1bad_cast@std@@UAE@XZ 1003c2ac     MSVCRT:MSVCR90.dll
 0003:000002b0       __imp_??2@YAPAXI@Z         1003c2b0     MSVCRT:MSVCR90.dll
 0003:000002b4       __imp_??3@YAXPAX@Z         1003c2b4     MSVCRT:MSVCR90.dll
 0003:000002b8       __imp___purecall           1003c2b8     MSVCRT:MSVCR90.dll
 0003:000002bc       __imp_??_V@YAXPAX@Z        1003c2bc     MSVCRT:MSVCR90.dll
 0003:000002c0       __imp___invalid_parameter_noinfo 1003c2c0     MSVCRT:MSVCR90.dll
 0003:000002c4       __imp_??0exception@std@@QAE@ABV01@@Z 1003c2c4     MSVCRT:MSVCR90.dll
 0003:000002c8       __imp_??0exception@std@@QAE@ABQBDH@Z 1003c2c8     MSVCRT:MSVCR90.dll
 0003:000002cc       __imp_??0exception@std@@QAE@ABQBD@Z 1003c2cc     MSVCRT:MSVCR90.dll
 0003:000002d0       __imp_??0exception@std@@QAE@XZ 1003c2d0     MSVCRT:MSVCR90.dll
 0003:000002d4       __imp_??1exception@std@@UAE@XZ 1003c2d4     MSVCRT:MSVCR90.dll
 0003:000002d8       __imp_?what@exception@std@@UBEPBDXZ 1003c2d8     MSVCRT:MSVCR90.dll
 0003:000002dc       __imp__memmove_s           1003c2dc     MSVCRT:MSVCR90.dll
 0003:000002e0       __imp___CIpow              1003c2e0     MSVCRT:MSVCR90.dll
 0003:000002e4       __imp__memcpy              1003c2e4     MSVCRT:MSVCR90.dll
 0003:000002e8       __imp__memset              1003c2e8     MSVCRT:MSVCR90.dll
 0003:000002ec       __imp___except_handler3    1003c2ec     MSVCRT:MSVCR90.dll
 0003:000002f0       __imp__ispunct             1003c2f0     MSVCRT:MSVCR90.dll
 0003:000002f4       __imp___CxxThrowException@8 1003c2f4     MSVCRT:MSVCR90.dll
 0003:000002f8       __imp__strerror            1003c2f8     MSVCRT:MSVCR90.dll
 0003:000002fc       __imp__floor               1003c2fc     MSVCRT:MSVCR90.dll
 0003:00000300       \177MSVCR90_NULL_THUNK_DATA 1003c300     MSVCRT:MSVCR90.dll
 0003:00000304       __imp__SHGetFolderPathW@20 1003c304     shell32:SHELL32.dll
 0003:00000308       \177SHELL32_NULL_THUNK_DATA 1003c308     shell32:SHELL32.dll
 0003:0000030c       __imp__MessageBoxA@16      1003c30c     user32:USER32.dll
 0003:00000310       \177USER32_NULL_THUNK_DATA 1003c310     user32:USER32.dll
 0003:00000314       ___xc_a                    1003c314     MSVCRT:cinitexe.obj
 0003:00000318       ?p_process_init@?A0x72dedfaf@@3P6AHXZA 1003c318     libboost_thread-vc90-mt-1_55:tss_pe.obj
 0003:00000400       ___xc_z                    1003c400     MSVCRT:cinitexe.obj
 0003:00000404       ___xi_a                    1003c404     MSVCRT:cinitexe.obj
 0003:00000410       ?p_tls_prepare@?A0x72dedfaf@@3P6AHXZA 1003c410     libboost_thread-vc90-mt-1_55:tss_pe.obj
 0003:00000414       ___xi_z                    1003c414     MSVCRT:cinitexe.obj
 0003:00000418       ___xl_a                    1003c418     MSVCRT:tlssup.obj
 0003:0000041c       ?__xl_ca@?A0x72dedfaf@@3P6GXPAUHINSTANCE__@@KPAX@ZA 1003c41c     libboost_thread-vc90-mt-1_55:tss_pe.obj
 0003:00000420       ___xl_z                    1003c420     MSVCRT:tlssup.obj
 0003:00000424       ?p_process_term@?A0x72dedfaf@@3P6AHXZA 1003c424     libboost_thread-vc90-mt-1_55:tss_pe.obj
 0003:00000450       ??_7type_info@@6B@         1003c450     MSVCRT:ti_inst.obj
 0003:00000454       __pDefaultRawDllMain       1003c454     MSVCRT:crtdll.obj
 0003:00000468       ??_7bad_exception@std@@6B@ 1003c468     libboost_thread-vc90-mt-1_55:thread.obj
 0003:00000474       ??_7bad_alloc@std@@6B@     1003c474     libboost_thread-vc90-mt-1_55:thread.obj
 0003:00000480       ??_7logic_error@std@@6B@   1003c480     libboost_thread-vc90-mt-1_55:thread.obj
 0003:0000048c       ??_7length_error@std@@6B@  1003c48c     libboost_thread-vc90-mt-1_55:thread.obj
 0003:00000498       ??_7out_of_range@std@@6B@  1003c498     libboost_thread-vc90-mt-1_55:thread.obj
 0003:000004a4       ??_7runtime_error@std@@6B@ 1003c4a4     libboost_thread-vc90-mt-1_55:thread.obj
 0003:000004b0       ??_7clone_base@exception_detail@boost@@6B@ 1003c4b0     libboost_thread-vc90-mt-1_55:thread.obj
 0003:000004c0       ??_7sp_counted_base@detail@boost@@6B@ 1003c4c0     libboost_thread-vc90-mt-1_55:thread.obj
 0003:000004d8       ??_7bad_day_of_month@gregorian@boost@@6B@ 1003c4d8     libboost_thread-vc90-mt-1_55:thread.obj
 0003:000004e4       ??_7bad_year@gregorian@boost@@6B@ 1003c4e4     libboost_thread-vc90-mt-1_55:thread.obj
 0003:000004f0       ??_7bad_month@gregorian@boost@@6B@ 1003c4f0     libboost_thread-vc90-mt-1_55:thread.obj
 0003:000004fc       ??_7system_error@system@boost@@6B@ 1003c4fc     libboost_thread-vc90-mt-1_55:thread.obj
 0003:00000508       ??_7thread_exception@boost@@6B@ 1003c508     libboost_thread-vc90-mt-1_55:thread.obj
 0003:00000514       ??_7thread_resource_error@boost@@6B@ 1003c514     libboost_thread-vc90-mt-1_55:thread.obj
 0003:00000520       ??_7?$sp_counted_impl_p@V?$clone_impl@Ubad_alloc_@exception_detail@boost@@@exception_detail@boost@@@detail@boost@@6B@ 1003c520     libboost_thread-vc90-mt-1_55:thread.obj
 0003:00000538       ??_7?$sp_counted_impl_p@V?$clone_impl@Ubad_exception_@exception_detail@boost@@@exception_detail@boost@@@detail@boost@@6B@ 1003c538     libboost_thread-vc90-mt-1_55:thread.obj
 0003:0000054c       ?fixed_mutex_name@?1??name_once_mutex@detail@boost@@YAXPADPAX@Z@4QBDB 1003c54c     libboost_thread-vc90-mt-1_55:thread.obj
 0003:00000588       ??_7exception@boost@@6B@   1003c588     libboost_thread-vc90-mt-1_55:thread.obj
 0003:00000590       ??_7bad_alloc_@exception_detail@boost@@6Bbad_alloc@std@@@ 1003c590     libboost_thread-vc90-mt-1_55:thread.obj
 0003:0000059c       ??_7bad_alloc_@exception_detail@boost@@6Bexception@2@@ 1003c59c     libboost_thread-vc90-mt-1_55:thread.obj
 0003:000005a4       ??_7bad_exception_@exception_detail@boost@@6Bbad_exception@std@@@ 1003c5a4     libboost_thread-vc90-mt-1_55:thread.obj
 0003:000005b0       ??_7bad_exception_@exception_detail@boost@@6Bexception@2@@ 1003c5b0     libboost_thread-vc90-mt-1_55:thread.obj
 0003:000005b8       ??_7?$error_info_injector@Vruntime_error@std@@@exception_detail@boost@@6Bexception@2@@ 1003c5b8     libboost_thread-vc90-mt-1_55:thread.obj
 0003:000005c0       ??_7?$error_info_injector@Vruntime_error@std@@@exception_detail@boost@@6Bruntime_error@std@@@ 1003c5c0     libboost_thread-vc90-mt-1_55:thread.obj
 0003:000005cc       ??_7?$error_info_injector@Ubad_day_of_month@gregorian@boost@@@exception_detail@boost@@6Bexception@2@@ 1003c5cc     libboost_thread-vc90-mt-1_55:thread.obj
 0003:000005d4       ??_7?$error_info_injector@Ubad_day_of_month@gregorian@boost@@@exception_detail@boost@@6Bbad_day_of_month@gregorian@2@@ 1003c5d4     libboost_thread-vc90-mt-1_55:thread.obj
 0003:000005e0       ??_7?$error_info_injector@Ubad_year@gregorian@boost@@@exception_detail@boost@@6Bexception@2@@ 1003c5e0     libboost_thread-vc90-mt-1_55:thread.obj
 0003:000005e8       ??_7?$error_info_injector@Ubad_year@gregorian@boost@@@exception_detail@boost@@6Bbad_year@gregorian@2@@ 1003c5e8     libboost_thread-vc90-mt-1_55:thread.obj
 0003:000005f4       ??_7?$error_info_injector@Ubad_month@gregorian@boost@@@exception_detail@boost@@6Bexception@2@@ 1003c5f4     libboost_thread-vc90-mt-1_55:thread.obj
 0003:000005fc       ??_7?$error_info_injector@Ubad_month@gregorian@boost@@@exception_detail@boost@@6Bbad_month@gregorian@2@@ 1003c5fc     libboost_thread-vc90-mt-1_55:thread.obj
 0003:00000608       ??_7?$clone_impl@U?$error_info_injector@Vruntime_error@std@@@exception_detail@boost@@@exception_detail@boost@@6B@ 1003c608     libboost_thread-vc90-mt-1_55:thread.obj
 0003:00000618       ??_7?$clone_impl@U?$error_info_injector@Vruntime_error@std@@@exception_detail@boost@@@exception_detail@boost@@6Bexception@2@@ 1003c618     libboost_thread-vc90-mt-1_55:thread.obj
 0003:00000620       ??_7?$clone_impl@U?$error_info_injector@Vruntime_error@std@@@exception_detail@boost@@@exception_detail@boost@@6Bruntime_error@std@@@ 1003c620     libboost_thread-vc90-mt-1_55:thread.obj
 0003:0000062c       ??_7?$clone_impl@U?$error_info_injector@Ubad_day_of_month@gregorian@boost@@@exception_detail@boost@@@exception_detail@boost@@6B@ 1003c62c     libboost_thread-vc90-mt-1_55:thread.obj
 0003:0000063c       ??_7?$clone_impl@U?$error_info_injector@Ubad_day_of_month@gregorian@boost@@@exception_detail@boost@@@exception_detail@boost@@6Bexception@2@@ 1003c63c     libboost_thread-vc90-mt-1_55:thread.obj
 0003:00000644       ??_7?$clone_impl@U?$error_info_injector@Ubad_day_of_month@gregorian@boost@@@exception_detail@boost@@@exception_detail@boost@@6Bbad_day_of_month@gregorian@2@@ 1003c644     libboost_thread-vc90-mt-1_55:thread.obj
 0003:00000650       ??_7?$error_info_injector@Vthread_resource_error@boost@@@exception_detail@boost@@6Bexception@2@@ 1003c650     libboost_thread-vc90-mt-1_55:thread.obj
 0003:00000658       ??_7?$error_info_injector@Vthread_resource_error@boost@@@exception_detail@boost@@6Bthread_resource_error@2@@ 1003c658     libboost_thread-vc90-mt-1_55:thread.obj
 0003:00000664       ??_7?$clone_impl@U?$error_info_injector@Vthread_resource_error@boost@@@exception_detail@boost@@@exception_detail@boost@@6B@ 1003c664     libboost_thread-vc90-mt-1_55:thread.obj
 0003:00000674       ??_7?$clone_impl@U?$error_info_injector@Vthread_resource_error@boost@@@exception_detail@boost@@@exception_detail@boost@@6Bexception@2@@ 1003c674     libboost_thread-vc90-mt-1_55:thread.obj
 0003:0000067c       ??_7?$clone_impl@U?$error_info_injector@Vthread_resource_error@boost@@@exception_detail@boost@@@exception_detail@boost@@6Bthread_resource_error@2@@ 1003c67c     libboost_thread-vc90-mt-1_55:thread.obj
 0003:00000688       ??_7?$clone_impl@U?$error_info_injector@Ubad_year@gregorian@boost@@@exception_detail@boost@@@exception_detail@boost@@6B@ 1003c688     libboost_thread-vc90-mt-1_55:thread.obj
 0003:00000698       ??_7?$clone_impl@U?$error_info_injector@Ubad_year@gregorian@boost@@@exception_detail@boost@@@exception_detail@boost@@6Bexception@2@@ 1003c698     libboost_thread-vc90-mt-1_55:thread.obj
 0003:000006a0       ??_7?$clone_impl@U?$error_info_injector@Ubad_year@gregorian@boost@@@exception_detail@boost@@@exception_detail@boost@@6Bbad_year@gregorian@2@@ 1003c6a0     libboost_thread-vc90-mt-1_55:thread.obj
 0003:000006ac       ??_7?$clone_impl@U?$error_info_injector@Ubad_month@gregorian@boost@@@exception_detail@boost@@@exception_detail@boost@@6B@ 1003c6ac     libboost_thread-vc90-mt-1_55:thread.obj
 0003:000006bc       ??_7?$clone_impl@U?$error_info_injector@Ubad_month@gregorian@boost@@@exception_detail@boost@@@exception_detail@boost@@6Bexception@2@@ 1003c6bc     libboost_thread-vc90-mt-1_55:thread.obj
 0003:000006c4       ??_7?$clone_impl@U?$error_info_injector@Ubad_month@gregorian@boost@@@exception_detail@boost@@@exception_detail@boost@@6Bbad_month@gregorian@2@@ 1003c6c4     libboost_thread-vc90-mt-1_55:thread.obj
 0003:000006d0       ??_7?$clone_impl@Ubad_alloc_@exception_detail@boost@@@exception_detail@boost@@6B@ 1003c6d0     libboost_thread-vc90-mt-1_55:thread.obj
 0003:000006e0       ??_7?$clone_impl@Ubad_alloc_@exception_detail@boost@@@exception_detail@boost@@6Bbad_alloc@std@@@ 1003c6e0     libboost_thread-vc90-mt-1_55:thread.obj
 0003:000006ec       ??_7?$clone_impl@Ubad_alloc_@exception_detail@boost@@@exception_detail@boost@@6Bexception@2@@ 1003c6ec     libboost_thread-vc90-mt-1_55:thread.obj
 0003:000006f4       ??_7?$clone_impl@Ubad_exception_@exception_detail@boost@@@exception_detail@boost@@6B@ 1003c6f4     libboost_thread-vc90-mt-1_55:thread.obj
 0003:00000704       ??_7?$clone_impl@Ubad_exception_@exception_detail@boost@@@exception_detail@boost@@6Bbad_exception@std@@@ 1003c704     libboost_thread-vc90-mt-1_55:thread.obj
 0003:00000710       ??_7?$clone_impl@Ubad_exception_@exception_detail@boost@@@exception_detail@boost@@6Bexception@2@@ 1003c710     libboost_thread-vc90-mt-1_55:thread.obj
 0003:00000714       __pDefaultRawDllMainOrig   1003c714     libboost_thread-vc90-mt-1_55:tss_pe.obj
 0003:00000714       __pRawDllMainOrig          1003c714     libboost_thread-vc90-mt-1_55:tss_pe.obj
 0003:00000718       __pRawDllMain              1003c718     libboost_thread-vc90-mt-1_55:tss_pe.obj
 0003:00000720       ??_7error_category@system@boost@@6B@ 1003c720     libboost_system-vc90-mt-1_55:error_code.obj
 0003:0000073c       ??_7system_error_category@?A0x48f2d5a2@system@boost@@6B@ 1003c73c     libboost_system-vc90-mt-1_55:error_code.obj
 0003:00000754       ??_C@_07DCLBNMLN@generic?$AA@ 1003c754     libboost_system-vc90-mt-1_55:error_code.obj
 0003:0000075c       ??_C@_06FHFOAHML@system?$AA@ 1003c75c     libboost_system-vc90-mt-1_55:error_code.obj
 0003:00000764       ??_C@_0O@NIPGCINC@Unknown?5error?$AA@ 1003c764     libboost_system-vc90-mt-1_55:error_code.obj
 0003:00000778       ??_7generic_error_category@?A0x48f2d5a2@system@boost@@6B@ 1003c778     libboost_system-vc90-mt-1_55:error_code.obj
 0003:00000790       ??_C@_0P@GHFPNOJB@bad?5allocation?$AA@ 1003c790     convert.obj
 0003:0000079f       ??_C@_00CNPNBAHC@?$AA@     1003c79f     AutoSwitchStateBufferLock.obj
 0003:000007d8       ?objectBegin@jsonz@@3UObjectBegin@1@B 1003c7d8     inserter.obj
 0003:000007d9       ?objectEnd@jsonz@@3UObjectEnd@1@B 1003c7d9     inserter.obj
 0003:000007da       ?arrayBegin@jsonz@@3UArrayBegin@1@B 1003c7da     inserter.obj
 0003:000007db       ?arrayEnd@jsonz@@3UArrayEnd@1@B 1003c7db     inserter.obj
 0003:000007e1       ?nullTerminator@CStringWrapper@sass@@0DB 1003c7e1     CStringWrapper.obj
 0003:00000894       _nNIAPALS100_tStatus_kDebugSize1 1003c894     tStatus.obj
 0003:00000ae8       ?invalidIndexValue@ChannelIndex@sass@@2IB 1003cae8     ChannelIndex.obj
 0003:00001844       ??_C@_02LMMGGCAJ@?3?5?$AA@ 1003d844     AutoSwitchStateBufferLock.obj
 0003:00001848       ??_C@_0BN@BEPNICCK@boost?3?3thread_resource_error?$AA@ 1003d848     AutoSwitchStateBufferLock.obj
 0003:00001868       ??_C@_0BD@OLBABOEK@vector?$DMT?$DO?5too?5long?$AA@ 1003d868     AutoSwitchStateBufferLock.obj
 0003:00001880       ??_C@_0JA@GDBNCMOG@c?3?2Users?2tblair?2Perforce?2slscdev@ 1003d880     AutoSwitchStateBufferLock.obj
 0003:00001910       ??_C@_0IK@LHEHAGMH@class?5boost?3?3exception_ptr?5__cde@ 1003d910     AutoSwitchStateBufferLock.obj
 0003:000019a0       ??_C@_0IO@BHMGIOEK@class?5boost?3?3exception_ptr?5__cde@ 1003d9a0     AutoSwitchStateBufferLock.obj
 0003:00001a30       ??_C@_0O@DPKOEFFH@bad?5exception?$AA@ 1003da30     AutoSwitchStateBufferLock.obj
 0003:00001a40       ??_8?$clone_impl@Ubad_exception_@exception_detail@boost@@@exception_detail@boost@@7B@ 1003da40     AutoSwitchStateBufferLock.obj
 0003:00001a40       ??_8?$clone_impl@Ubad_alloc_@exception_detail@boost@@@exception_detail@boost@@7B@ 1003da40     AutoSwitchStateBufferLock.obj
 0003:00001a4c       ??_7AutoSwitchStateBufferLockInterface@sass@@6B@ 1003da4c     AutoSwitchStateBufferLock.obj
 0003:00001a5c       ??_7AutoSwitchStateBufferLock@slscsl@@6B@ 1003da5c     AutoSwitchStateBufferLock.obj
 0003:00001a68       ??_8?$clone_impl@U?$error_info_injector@Vthread_resource_error@boost@@@exception_detail@boost@@@exception_detail@boost@@7B@ 1003da68     AutoSwitchStateBufferLock.obj
 0003:00001a70       ??_C@_04DAMGJPCA@file?$AA@ 1003da70     ChannelActionProcessor.obj
 0003:00001a78       ??_C@_04HJPCFDOP@line?$AA@ 1003da78     ChannelActionProcessor.obj
 0003:00001a80       ??_C@_09NILLCKIE@component?$AA@ 1003da80     ChannelActionProcessor.obj
 0003:00001a8c       ??_C@_06MIDLBFEG@slscsl?$AA@ 1003da8c     ChannelActionProcessor.obj
 0003:00001a94       ??_C@_0DB@PFJEBFNG@source?2slscsl?2session?2ChannelAct@ 1003da94     ChannelActionProcessor.obj
 0003:00001ac8       ??_C@_0EB@FFGAOEHP@seas_constants?3?3ERR_DISCONNECTIO@ 1003dac8     ChannelActionProcessor.obj
 0003:00001b0c       ??_C@_0P@IAGDLHMJ@error_constant?$AA@ 1003db0c     ChannelActionProcessor.obj
 0003:00001b1c       ??_C@_0P@POHIGEDE@mxlator_slscsl?$AA@ 1003db1c     ChannelActionProcessor.obj
 0003:00001b30       ??_7ChannelAction@sass@@6B@ 1003db30     ChannelActionProcessor.obj
 0003:00001b38       ??_7ExceptionBase@nierr@@6B@ 1003db38     ChannelActionProcessor.obj
 0003:00001b44       ??_7Exception@nierr@@6BExceptionBase@1@@ 1003db44     ChannelActionProcessor.obj
 0003:00001b50       ??_7Exception@nierr@@6Bexception@std@@@ 1003db50     ChannelActionProcessor.obj
 0003:00001b58       ??_8Exception@nierr@@7B@   1003db58     ChannelActionProcessor.obj
 0003:00001b68       ??_7ChannelActionProcessor@slscsl@@6B@ 1003db68     ChannelActionProcessor.obj
 0003:00001b70       ??_C@_0GK@NEDEIOE@c?3?2Users?2tblair?2Perforce?2slscdev@ 1003db70     Session.obj
 0003:00001bdc       ??_C@_0BM@PAPJHAGI@invalid?5map?1set?$DMT?$DO?5iterator?$AA@ 1003dbdc     Session.obj
 0003:00001bf8       ??_C@_0BE@JONHPENG@map?1set?$DMT?$DO?5too?5long?$AA@ 1003dbf8     Session.obj
 0003:00001c10       ??_C@_0HO@CIAAGLHH@c?3?2Users?2tblair?2Perforce?2slscdev@ 1003dc10     Session.obj
 0003:00001c90       ??_C@_0CH@HGGGHOOD@this?9?$DOsessionCreationConflictErr@ 1003dc90     Session.obj
 0003:00001cb8       ??_C@_0DD@GCCFKPIL@this?9?$DOinvalidSessionHandleProvid@ 1003dcb8     Session.obj
 0003:00001cf0       ??_7Session@slscsl@@6B@    1003dcf0     Session.obj
 0003:00001cfc       ??_7?$SimpleSessionManager@_KVSession@slscsl@@USessionParameters@2@@atat@@6B@ 1003dcfc     Session.obj
 0003:00001d10       ??_7?$SessionManagerBase@_KVSession@slscsl@@USessionParameters@2@Ublank@boost@@@atat@@6B@ 1003dd10     Session.obj
 0003:00001d24       ??_7?$SessionManagerInterface@_KVSession@slscsl@@USessionParameters@2@@atat@@6B@ 1003dd24     Session.obj
 0003:00001d38       ??_7?$SessionFactoryInterface@VSession@slscsl@@USessionParameters@2@@atat@@6B@ 1003dd38     Session.obj
 0003:00001d48       ??_7?$SessionRegistryInterface@_KVSession@slscsl@@Ublank@boost@@@atat@@6B@ 1003dd48     Session.obj
 0003:00001d64       ??_7SessionFactory@slscsl@@6B@ 1003dd64     Session.obj
 0003:00001d74       ??_7?$SessionRegistry@_KVSession@slscsl@@Ublank@boost@@@atat@@6B@ 1003dd74     Session.obj
 0003:00001d90       ??_7?$Multiton@VRelayInformationFactory@sass@@@atut@@6B@ 1003dd90     Session.obj
 0003:00001d98       ??_7SessionImplementation@slscsl@@6B@ 1003dd98     SessionImplementation.obj
 0003:00001da0       ??_7SwitchStateFactory@slscsl@@6B@ 1003dda0     SwitchStateFactory.obj
 0003:00001da8       ??_7TopologyFilePathsInterface@sass@@6B@ 1003dda8     TopologyFilePaths.obj
 0003:00001db8       ??_7TopologyFilePaths@slscsl@@6B@ 1003ddb8     TopologyFilePaths.obj
 0003:00001dc4       ??_C@_0BD@LIEKPHPI@std_exception_what?$AA@ 1003ddc4     slscsl.obj
 0003:00001dd8       ??_C@_0CB@MHOGMILG@bad?5numeric?5conversion?3?5overflow@ 1003ddd8     slscsl.obj
 0003:00001dfc       ??_C@_0CK@HPFKOAM@bad?5numeric?5conversion?3?5negative@ 1003ddfc     slscsl.obj
 0003:00001e28       ??_C@_0CK@PPMIIBFK@bad?5numeric?5conversion?3?5positive@ 1003de28     slscsl.obj
 0003:00001e54       ??_C@_08EPJLHIJG@bad?5cast?$AA@ 1003de54     slscsl.obj
 0003:00001e60       ??_C@_0BJ@FPGLLEMK@source?2slscsl?2slscsl?4cpp?$AA@ 1003de60     slscsl.obj
 0003:00001e7c       ??_C@_0CK@KKPENGAD@slscsl?3?3Errors?3?3invalidSessionHa@ 1003de7c     slscsl.obj
 0003:00001ea8       ??_C@_0HK@IJHBPBOK@c?3?2Users?2tblair?2Perforce?2slscdev@ 1003dea8     slscsl.obj
 0003:00001f28       ??_7bad_numeric_cast@numeric@boost@@6B@ 1003df28     slscsl.obj
 0003:00001f34       ??_7negative_overflow@numeric@boost@@6B@ 1003df34     slscsl.obj
 0003:00001f40       ??_7positive_overflow@numeric@boost@@6B@ 1003df40     slscsl.obj
 0003:00001f48       ??_C@_0IE@GBIFHACI@c?3?2Users?2tblair?2Perforce?2slscdev@ 1003df48     ChannelActionWriter.obj
 0003:00001fcc       ??_C@_09LMNIMBH@errorCode?$AA@ 1003dfcc     ChannelActionWriter.obj
 0003:00001fd8       ??_C@_0BD@PFPOIKM@Invalid?5code?5point?$AA@ 1003dfd8     IniReader.obj
 0003:00001fec       ??_C@_0O@MHDBOPLB@Invalid?5UTF?98?$AA@ 1003dfec     IniReader.obj
 0003:00001ffc       ??_C@_0BB@IMDKMPFB@Not?5enough?5space?$AA@ 1003dffc     IniReader.obj
 0003:00002010       ??_C@_0HM@JIAPPFHP@c?3?2Users?2tblair?2Perforce?2slscdev@ 1003e010     IniReader.obj
 0003:0000208c       ??_C@_0BB@PGGEMLIG@errorNullPointer?$AA@ 1003e08c     IniReader.obj
 0003:000020a0       ??_C@_0BP@BHCPBAOG@Variable?5name?3?5iniFilePathName?$AA@ 1003e0a0     IniReader.obj
 0003:000020c0       ??_C@_0BB@LDHIJACD@errorEmptyString?$AA@ 1003e0c0     IniReader.obj
 0003:000020d4       ??_C@_0BP@LCLENGFP@sass?3?3errorIniAllocationFailed?$AA@ 1003e0d4     IniReader.obj
 0003:000020f4       ??_C@_0BO@MLKNFMJM@Ini?5object?5allocation?5failed?4?$AA@ 1003e0f4     IniReader.obj
 0003:00002114       ??_C@_0BI@OIHEBBMM@IniReadFromFile?5failed?4?$AA@ 1003e114     IniReader.obj
 0003:0000212c       ??_C@_0BL@BPIEAHMB@Variable?5name?3?5sectionName?$AA@ 1003e12c     IniReader.obj
 0003:00002148       ??_C@_0CG@BNBEELJC@sass?3?3errorIniSectionNameDoesNot@ 1003e148     IniReader.obj
 0003:00002170       ??_C@_0BI@LOIMJMFG@Section?5does?5not?5exist?4?$AA@ 1003e170     IniReader.obj
 0003:00002188       ??_C@_0CC@JNNBHELF@sass?3?3errorIniItemNotFoundByInde@ 1003e188     IniReader.obj
 0003:000021ac       ??_C@_0DB@EBGOCJCE@Item?5not?5found?5for?5given?5section@ 1003e1ac     IniReader.obj
 0003:000021e0       ??_C@_0BI@EAEJAPHJ@Variable?5name?3?5itemName?$AA@ 1003e1e0     IniReader.obj
 0003:000021f8       ??_C@_0EE@NCIFDMAO@?$CIreturnCode?5?$DN?$DN?50?5?$DP?5sass?3?3errorIn@ 1003e1f8     IniReader.obj
 0003:0000223c       ??_C@_0CD@GOOFMOM@Section?5is?5not?5properly?5formatte@ 1003e23c     IniReader.obj
 0003:00002264       ??_7IniReader@sass@@6B@    1003e264     IniReader.obj
 0003:0000226c       ??_7exception@utf8@@6B@    1003e26c     IniReader.obj
 0003:00002278       ??_7invalid_code_point@utf8@@6B@ 1003e278     IniReader.obj
 0003:00002284       ??_7invalid_utf8@utf8@@6B@ 1003e284     IniReader.obj
 0003:00002290       ??_7not_enough_room@utf8@@6B@ 1003e290     IniReader.obj
 0003:00002298       ??_C@_0IO@IKJEHBCO@c?3?2Users?2tblair?2Perforce?2slscdev@ 1003e298     RelayAPIInputProcessor.obj
 0003:00002328       ??_C@_0CC@NBMJIFJI@seas_constants?3?3ERR_INVALID_VALU@ 1003e328     RelayAPIInputProcessor.obj
 0003:0000234c       ??_C@_0CB@JLPMLDIA@seas_constants?3?3ERR_NULL_POINTER@ 1003e34c     RelayAPIInputProcessor.obj
 0003:00002370       ??_C@_02HBOOOICD@?9?$DO?$AA@ 1003e370     ChannelAPIInputProcessor.obj
 0003:00002374       ??_C@_0BO@HKHPGMPA@call?5to?5empty?5boost?3?3function?$AA@ 1003e374     ChannelAPIInputProcessor.obj
 0003:00002398       ??_C@_0JA@NOFOGCDG@c?3?2Users?2tblair?2Perforce?2slscdev@ 1003e398     ChannelAPIInputProcessor.obj
 0003:00002428       ??_C@_0EK@PKMFFPBJ@ChannelAPIInputProcessor?3?3?5No?5va@ 1003e428     ChannelAPIInputProcessor.obj
 0003:00002478       ??_C@_0EH@FGGAGHAP@ChannelAPIInputProcessor?3?3?5Brack@ 1003e478     ChannelAPIInputProcessor.obj
 0003:000024c0       ??_C@_0CM@KEJNNFI@seas_constants?3?3ERR_INVALID_CONN@ 1003e4c0     ChannelAPIInputProcessor.obj
 0003:000024ec       ??_C@_0CP@HCDLFLAD@seas_constants?3?3ERR_CHANNEL_DUPL@ 1003e4ec     ChannelAPIInputProcessor.obj
 0003:0000251c       ??_C@_0BO@OEFPAECH@?5?8?5Must?5be?5enclosed?5within?5?$FL?$FN?$AA@ 1003e51c     ChannelAPIInputProcessor.obj
 0003:0000253c       ??_C@_0BH@BFJNAPFI@Explicit?5connection?5?8?5?$AA@ 1003e53c     ChannelAPIInputProcessor.obj
 0003:00002554       ?stored_vtable@?1???$assign_to@U?$first_finderF@PBDUis_equal@algorithm@boost@@@detail@algorithm@boost@@@?$function2@V?$iterator_range@V?$_String_const_iterator@DU?$char_traits@D@std@@V?$allocator@D@2@@std@@@boost@@V?$_String_const_iterator@DU?$char_traits@D@std@@V?$allocator@D@2@@std@@V34@@boost@@AAEXU?$first_finderF@PBDUis_equal@algorithm@boost@@@detail@algorithm@2@@Z@4U?$basic_vtable2@V?$iterator_range@V?$_String_const_iterator@DU?$char_traits@D@std@@V?$allocator@D@2@@std@@@boost@@V?$_String_const_iterator@DU?$char_traits@D@std@@V?$allocator@D@2@@std@@V34@@function@42@B 1003e554     ChannelAPIInputProcessor.obj
 0003:00002554       ?stored_vtable@?1???$assign_to@U?$first_finderF@PBDUis_equal@algorithm@boost@@@detail@algorithm@boost@@@?$function2@V?$iterator_range@V?$_String_iterator@DU?$char_traits@D@std@@V?$allocator@D@2@@std@@@boost@@V?$_String_iterator@DU?$char_traits@D@std@@V?$allocator@D@2@@std@@V34@@boost@@AAEXU?$first_finderF@PBDUis_equal@algorithm@boost@@@detail@algorithm@2@@Z@4U?$basic_vtable2@V?$iterator_range@V?$_String_iterator@DU?$char_traits@D@std@@V?$allocator@D@2@@std@@@boost@@V?$_String_iterator@DU?$char_traits@D@std@@V?$allocator@D@2@@std@@V34@@function@42@B 1003e554     TopologyFactory.obj
 0003:00002560       ??_7bad_function_call@boost@@6B@ 1003e560     ChannelAPIInputProcessor.obj
 0003:0000256c       ??_7?$error_info_injector@Vbad_function_call@boost@@@exception_detail@boost@@6Bbad_function_call@2@@ 1003e56c     ChannelAPIInputProcessor.obj
 0003:00002578       ??_7?$error_info_injector@Vbad_function_call@boost@@@exception_detail@boost@@6Bexception@2@@ 1003e578     ChannelAPIInputProcessor.obj
 0003:00002580       ??_7?$clone_impl@U?$error_info_injector@Vbad_function_call@boost@@@exception_detail@boost@@@exception_detail@boost@@6Bbad_function_call@2@@ 1003e580     ChannelAPIInputProcessor.obj
 0003:0000258c       ??_7?$clone_impl@U?$error_info_injector@Vbad_function_call@boost@@@exception_detail@boost@@@exception_detail@boost@@6Bexception@2@@ 1003e58c     ChannelAPIInputProcessor.obj
 0003:00002594       ??_7?$clone_impl@U?$error_info_injector@Vbad_function_call@boost@@@exception_detail@boost@@@exception_detail@boost@@6B@ 1003e594     ChannelAPIInputProcessor.obj
 0003:000025a0       ??_C@_0DI@ELODIPLP@The?5graph?5may?5not?5contain?5an?5edg@ 1003e5a0     PathFinder.obj
 0003:000025d8       ?instance@?$keyword@Uindex_in_heap_map@tag@keywords@graph@boost@@@parameter@boost@@2U123@B 1003e5d8     PathFinder.obj
 0003:000025d8       ?instance@?$keyword@Uiterations@tag@keywords@graph@boost@@@parameter@boost@@2U123@B 1003e5d8     PathFinder.obj
 0003:000025d8       ?instance@?$keyword@Uparity_map@tag@keywords@graph@boost@@@parameter@boost@@2U123@B 1003e5d8     PathFinder.obj
 0003:000025d8       ?instance@?$keyword@Uvertex_index_map@tag@keywords@graph@boost@@@parameter@boost@@2U123@B 1003e5d8     PathFinder.obj
 0003:000025d8       ?instance@?$keyword@Udistance_map@tag@keywords@graph@boost@@@parameter@boost@@2U123@B 1003e5d8     PathFinder.obj
 0003:000025d8       ?instance@?$keyword@Ulookahead@tag@keywords@graph@boost@@@parameter@boost@@2U123@B 1003e5d8     PathFinder.obj
 0003:000025d8       ?instance@?$keyword@Uvertex_invariant1@tag@keywords@graph@boost@@@parameter@boost@@2U123@B 1003e5d8     PathFinder.obj
 0003:000025d8       ?instance@?$keyword@Uweight_map@tag@keywords@graph@boost@@@parameter@boost@@2U123@B 1003e5d8     PathFinder.obj
 0003:000025d8       ?instance@?$keyword@Upolling@tag@keywords@graph@boost@@@parameter@boost@@2U123@B 1003e5d8     PathFinder.obj
 0003:000025d8       ?instance@?$keyword@Uvertex_assignment_map@tag@keywords@graph@boost@@@parameter@boost@@2U123@B 1003e5d8     PathFinder.obj
 0003:000025d8       ?instance@?$keyword@Uweight_map2@tag@keywords@graph@boost@@@parameter@boost@@2U123@B 1003e5d8     PathFinder.obj
 0003:000025d8       ?instance@?$keyword@Upredecessor_map@tag@keywords@graph@boost@@@parameter@boost@@2U123@B 1003e5d8     PathFinder.obj
 0003:000025d8       ?instance@?$keyword@Ulowpoint_map@tag@keywords@graph@boost@@@parameter@boost@@2U123@B 1003e5d8     PathFinder.obj
 0003:000025d8       ?instance@?$keyword@Uvertex_copy@tag@keywords@graph@boost@@@parameter@boost@@2U123@B 1003e5d8     PathFinder.obj
 0003:000025d8       ?instance@?$keyword@Uedge_centrality_map@tag@keywords@graph@boost@@@parameter@boost@@2U123@B 1003e5d8     PathFinder.obj
 0003:000025d8       ?instance@?$keyword@Udistance_combine@tag@keywords@graph@boost@@@parameter@boost@@2U123@B 1003e5d8     PathFinder.obj
 0003:000025d8       ?instance@?$keyword@Ucapacity_map@tag@keywords@graph@boost@@@parameter@boost@@2U123@B 1003e5d8     PathFinder.obj
 0003:000025d8       ?instance@?$keyword@Ucooling@tag@keywords@graph@boost@@@parameter@boost@@2U123@B 1003e5d8     PathFinder.obj
 0003:000025d8       ?instance@?$keyword@Udisplacement_map@tag@keywords@graph@boost@@@parameter@boost@@2U123@B 1003e5d8     PathFinder.obj
 0003:000025d8       ?instance@?$keyword@Uedge_color_map@tag@keywords@graph@boost@@@parameter@boost@@2U123@B 1003e5d8     PathFinder.obj
 0003:000025d8       ?instance@?$keyword@Uvertex_invariant@tag@keywords@graph@boost@@@parameter@boost@@2U123@B 1003e5d8     PathFinder.obj
 0003:000025d8       ?instance@?$keyword@Uattractive_force@tag@keywords@graph@boost@@@parameter@boost@@2U123@B 1003e5d8     PathFinder.obj
 0003:000025d8       ?instance@?$keyword@Uvisitor@tag@keywords@graph@boost@@@parameter@boost@@2U123@B 1003e5d8     PathFinder.obj
 0003:000025d8       ?instance@?$keyword@Umax_priority_queue@tag@keywords@graph@boost@@@parameter@boost@@2U123@B 1003e5d8     PathFinder.obj
 0003:000025d8       ?instance@?$keyword@Uroot_map@tag@keywords@graph@boost@@@parameter@boost@@2U123@B 1003e5d8     PathFinder.obj
 0003:000025d8       ?instance@?$keyword@Ureverse_edge_map@tag@keywords@graph@boost@@@parameter@boost@@2U123@B 1003e5d8     PathFinder.obj
 0003:000025d8       ?instance@?$keyword@Uedge_copy@tag@keywords@graph@boost@@@parameter@boost@@2U123@B 1003e5d8     PathFinder.obj
 0003:000025d8       ?instance@?$keyword@Udistance_zero@tag@keywords@graph@boost@@@parameter@boost@@2U123@B 1003e5d8     PathFinder.obj
 0003:000025d8       ?instance@?$keyword@Udistance_map2@tag@keywords@graph@boost@@@parameter@boost@@2U123@B 1003e5d8     PathFinder.obj
 0003:000025d8       ?instance@?$keyword@Uvertex_index1_map@tag@keywords@graph@boost@@@parameter@boost@@2U123@B 1003e5d8     PathFinder.obj
 0003:000025d8       ?instance@?$keyword@Uedges_equivalent@tag@keywords@graph@boost@@@parameter@boost@@2U123@B 1003e5d8     PathFinder.obj
 0003:000025d8       ?instance@?$keyword@Uvertex_max_invariant@tag@keywords@graph@boost@@@parameter@boost@@2U123@B 1003e5d8     PathFinder.obj
 0003:000025d8       ?instance@?$keyword@Uroot_vertex@tag@keywords@graph@boost@@@parameter@boost@@2U123@B 1003e5d8     PathFinder.obj
 0003:000025d8       ?instance@?$keyword@Ucolor_map@tag@keywords@graph@boost@@@parameter@boost@@2U123@B 1003e5d8     PathFinder.obj
 0003:000025d8       ?instance@?$keyword@Uvertices_equivalent@tag@keywords@graph@boost@@@parameter@boost@@2U123@B 1003e5d8     PathFinder.obj
 0003:000025d8       ?instance@?$keyword@Uforce_pairs@tag@keywords@graph@boost@@@parameter@boost@@2U123@B 1003e5d8     PathFinder.obj
 0003:000025d8       ?instance@?$keyword@Udistance_compare@tag@keywords@graph@boost@@@parameter@boost@@2U123@B 1003e5d8     PathFinder.obj
 0003:000025d8       ?instance@?$keyword@Urank_map@tag@keywords@graph@boost@@@parameter@boost@@2U123@B 1003e5d8     PathFinder.obj
 0003:000025d8       ?instance@?$keyword@Uresidual_capacity_map@tag@keywords@graph@boost@@@parameter@boost@@2U123@B 1003e5d8     PathFinder.obj
 0003:000025d8       ?instance@?$keyword@Ulearning_constant_range@tag@keywords@graph@boost@@@parameter@boost@@2U123@B 1003e5d8     PathFinder.obj
 0003:000025d8       ?instance@?$keyword@Urepulsive_force@tag@keywords@graph@boost@@@parameter@boost@@2U123@B 1003e5d8     PathFinder.obj
 0003:000025d8       ?instance@?$keyword@Udiscover_time_map@tag@keywords@graph@boost@@@parameter@boost@@2U123@B 1003e5d8     PathFinder.obj
 0003:000025d8       ?instance@?$keyword@Udistance_inf@tag@keywords@graph@boost@@@parameter@boost@@2U123@B 1003e5d8     PathFinder.obj
 0003:000025d8       ?instance@?$keyword@Uvertex_invariant2@tag@keywords@graph@boost@@@parameter@boost@@2U123@B 1003e5d8     PathFinder.obj
 0003:000025d8       ?instance@?$keyword@Uvertex_index2_map@tag@keywords@graph@boost@@@parameter@boost@@2U123@B 1003e5d8     PathFinder.obj
 0003:000025d8       ?instance@?$keyword@Uorig_to_copy@tag@keywords@graph@boost@@@parameter@boost@@2U123@B 1003e5d8     PathFinder.obj
 0003:000025d8       ?instance@?$keyword@Ubuffer@tag@keywords@graph@boost@@@parameter@boost@@2U123@B 1003e5d8     PathFinder.obj
 0003:000025d8       ?instance@?$keyword@Uin_parallel@tag@keywords@graph@boost@@@parameter@boost@@2U123@B 1003e5d8     PathFinder.obj
 0003:000025d8       ?instance@?$keyword@Udiameter_range@tag@keywords@graph@boost@@@parameter@boost@@2U123@B 1003e5d8     PathFinder.obj
 0003:000025d8       ?instance@?$keyword@Ucentrality_map@tag@keywords@graph@boost@@@parameter@boost@@2U123@B 1003e5d8     PathFinder.obj
 0003:000025d8       ?instance@?$keyword@Uisomorphism_map@tag@keywords@graph@boost@@@parameter@boost@@2U123@B 1003e5d8     PathFinder.obj
 0003:000025e0       ??_7?$sp_counted_impl_pd@PAEU?$checked_array_deleter@E@boost@@@detail@boost@@6B@ 1003e5e0     PathFinder.obj
 0003:000025f8       ??_7?$error_info_injector@Unegative_edge@boost@@@exception_detail@boost@@6Bnegative_edge@2@@ 1003e5f8     PathFinder.obj
 0003:00002604       ??_7?$error_info_injector@Unegative_edge@boost@@@exception_detail@boost@@6Bexception@2@@ 1003e604     PathFinder.obj
 0003:0000260c       ??_7?$clone_impl@U?$error_info_injector@Unegative_edge@boost@@@exception_detail@boost@@@exception_detail@boost@@6Bnegative_edge@2@@ 1003e60c     PathFinder.obj
 0003:00002618       ??_7?$clone_impl@U?$error_info_injector@Unegative_edge@boost@@@exception_detail@boost@@@exception_detail@boost@@6Bexception@2@@ 1003e618     PathFinder.obj
 0003:00002620       ??_7?$clone_impl@U?$error_info_injector@Unegative_edge@boost@@@exception_detail@boost@@@exception_detail@boost@@6B@ 1003e620     PathFinder.obj
 0003:00002630       ??_7invalid_argument@std@@6B@ 1003e630     PathFinder.obj
 0003:0000263c       ??_7PathFinder@sass@@6B@   1003e63c     PathFinder.obj
 0003:00002644       ??_7bad_graph@boost@@6B@   1003e644     PathFinder.obj
 0003:00002650       ??_7negative_edge@boost@@6B@ 1003e650     PathFinder.obj
 0003:00002658       ??_C@_0BB@MOGOBHAF@list?$DMT?$DO?5too?5long?$AA@ 1003e658     PathFindingGraph.obj
 0003:0000266c       ??_8back_insertion_sequence_tag@graph_detail@boost@@7B@ 1003e66c     PathFindingGraph.obj
 0003:0000267c       ??_8back_insertion_sequence_tag@graph_detail@boost@@7Bforward_container_tag@12@@ 1003e67c     PathFindingGraph.obj
 0003:00002684       ??_8back_insertion_sequence_tag@graph_detail@boost@@7Bsequence_tag@12@@ 1003e684     PathFindingGraph.obj
 0003:00002694       ??_7PathFindingGraph@sass@@6B@ 1003e694     PathFindingGraph.obj
 0003:00002698       ??_C@_0ID@CGBOCKGN@c?3?2Users?2tblair?2Perforce?2slscdev@ 1003e698     CStringWrapper.obj
 0003:0000271c       ??_C@_0BJ@EGALDBML@Variable?5name?3?5charArray?$AA@ 1003e71c     CStringWrapper.obj
 0003:00002738       ??_C@_0CH@ELOIAFEI@errorStringArrayWrapperMalformed@ 1003e738     CStringWrapper.obj
 0003:00002760       ??_C@_0BL@NKPFEAJM@Malformed?5string?5received?4?$AA@ 1003e760     CStringWrapper.obj
 0003:0000277c       ??_C@_0CE@DKMLGBBM@errorStringArrayWrapperInvalidIn@ 1003e77c     CStringWrapper.obj
 0003:000027a0       ??_C@_0CG@DEHNPDME@Input?5string?5is?5larger?5than?5capa@ 1003e7a0     CStringWrapper.obj
 0003:000027cc       ??_7CStringWrapper@sass@@6B@ 1003e7cc     CStringWrapper.obj
 0003:000027d0       ??_C@_0IG@JCOJOJHM@c?3?2Users?2tblair?2Perforce?2slscdev@ 1003e7d0     PowerUsageTracker.obj
 0003:00002858       ??_C@_0DE@LBDFBMCB@seas_constants?3?3ERR_CANNOT_EXCEE@ 1003e858     PowerUsageTracker.obj
 0003:0000288c       ??_C@_0BG@EOMJEIFA@vector?$DMbool?$DO?5too?5long?$AA@ 1003e88c     ChannelStateUpdater.obj
 0003:000028a4       ??_C@_0BC@KBDMBKEH@deque?$DMT?$DO?5too?5long?$AA@ 1003e8a4     ChannelStateUpdater.obj
 0003:000028b8       ??_C@_0IN@FJANIKNG@c?3?2Users?2tblair?2Perforce?2slscdev@ 1003e8b8     ChannelStateUpdater.obj
 0003:00002948       ??_C@_0BP@IPAOKGEM@errorBufferWrapperDataMismatch?$AA@ 1003e948     ChannelStateUpdater.obj
 0003:00002968       ??_C@_0BJ@LJMFEIMO@Capacities?5do?5not?5match?4?$AA@ 1003e968     ChannelStateUpdater.obj
 0003:00002984       ??_C@_0BP@LNOJELBI@errorBufferWrapperBufferIsFull?$AA@ 1003e984     ChannelStateUpdater.obj
 0003:000029a4       ??_C@_0P@DKEHMFFA@Array?5is?5full?4?$AA@ 1003e9a4     ChannelStateUpdater.obj
 0003:000029b4       ??_C@_0CC@GJCMCKEN@errorBufferWrapperInvalidPositio@ 1003e9b4     ChannelStateUpdater.obj
 0003:000029d8       ??_C@_0BL@ILHOHJIN@Invalid?5iterator?5position?4?$AA@ 1003e9d8     ChannelStateUpdater.obj
 0003:000029f8       ??_C@_0IP@FKFICEHK@c?3?2Users?2tblair?2Perforce?2slscdev@ 1003e9f8     ChannelStateUpdater.obj
 0003:00002a88       ??_C@_0BG@DCLJOLNH@Variable?5name?3?5buffer?$AA@ 1003ea88     ChannelStateUpdater.obj
 0003:00002aa0       ??_C@_0CH@MPCEAFGK@errorBufferWrapperInsufficientCa@ 1003eaa0     ChannelStateUpdater.obj
 0003:00002ac8       ??_C@_0DE@HNILLFGD@Capacity?5cannot?5be?5zero?5or?5less?5@ 1003eac8     ChannelStateUpdater.obj
 0003:00002b04       ??_7?$FixedCapacity1DBufferWrapper@VChannelIndex@sass@@@sass@@6B@ 1003eb04     ChannelStateUpdater.obj
 0003:00002b5c       ??_7ChannelStateUpdater@sass@@6B@ 1003eb5c     ChannelStateUpdater.obj
 0003:00002b64       ??_7?$FixedCapacityContainerBase@VChannelIndex@sass@@@sass@@6B@ 1003eb64     ChannelStateUpdater.obj
 0003:00002bb8       ??_C@_0IP@LANOPJBI@c?3?2Users?2tblair?2Perforce?2slscdev@ 1003ebb8     SwitchState.obj
 0003:00002c4c       ??_7SwitchState@sass@@6B@  1003ec4c     SwitchState.obj
 0003:00002c54       ??_7?$FixedCapacity1DBufferWrapper@VRelayState@sass@@@sass@@6B@ 1003ec54     SwitchState.obj
 0003:00002cac       ??_7?$FixedCapacityContainerBase@VRelayState@sass@@@sass@@6B@ 1003ecac     SwitchState.obj
 0003:00002d04       ??_7?$FixedCapacity1DBufferWrapper@VChannelState@sass@@@sass@@6B@ 1003ed04     SwitchState.obj
 0003:00002d5c       ??_7?$FixedCapacityContainerBase@VChannelState@sass@@@sass@@6B@ 1003ed5c     SwitchState.obj
 0003:00002db4       ??_7?$FixedCapacity2DBufferWrapper@VConnectionState@sass@@@sass@@6B@ 1003edb4     SwitchState.obj
 0003:00002e0c       ??_7?$FixedCapacity1DBufferWrapper@VConnectionState@sass@@@sass@@6B@ 1003ee0c     SwitchState.obj
 0003:00002e64       ??_7?$FixedCapacityContainerBase@V?$FixedCapacity1DBufferWrapper@VConnectionState@sass@@@sass@@@sass@@6B@ 1003ee64     SwitchState.obj
 0003:00002ebc       ??_7?$FixedCapacity2DBufferWrapper@VChannelIndex@sass@@@sass@@6B@ 1003eebc     SwitchState.obj
 0003:00002f14       ??_7?$FixedCapacityContainerBase@V?$FixedCapacity1DBufferWrapper@VChannelIndex@sass@@@sass@@@sass@@6B@ 1003ef14     SwitchState.obj
 0003:00002f6c       ??_7?$FixedCapacityContainerBase@VConnectionState@sass@@@sass@@6B@ 1003ef6c     SwitchState.obj
 0003:00002fc0       ?prime_list@?1??next_prime@bucket_array_base@detail@multi_index@boost@@KAII@Z@4QBIB 1003efc0     NameIndexMap.obj
 0003:00003030       ??_C@_0EH@FFMEKAOB@bad?5lexical?5cast?3?5source?5type?5va@ 1003f030     NameIndexMap.obj
 0003:00003078       ??_C@_0IA@ENMKPDP@c?3?2Users?2tblair?2Perforce?2slscdev@ 1003f078     NameIndexMap.obj
 0003:000030f8       ??_C@_0BE@OMOAPLJA@Variable?5name?3?5name?$AA@ 1003f0f8     NameIndexMap.obj
 0003:0000310c       ??_C@_0CB@BLAEABJ@?8?5does?5not?5have?5a?5matching?5index@ 1003f10c     NameIndexMap.obj
 0003:00003130       ??_C@_07BDKNLPOB@Name?3?5?8?$AA@ 1003f130     NameIndexMap.obj
 0003:00003138       ??_C@_0CD@LGECBADF@sass?3?3errorIndexMapKeyDoesNotExi@ 1003f138     NameIndexMap.obj
 0003:0000315c       ??_C@_0BI@PFFHNMDE@?8?5already?5exists?5in?5map?$AA@ 1003f15c     NameIndexMap.obj
 0003:00003174       ??_C@_0CE@PCLLHHAP@sass?3?3errorIndexMapKeyAlreadyExi@ 1003f174     NameIndexMap.obj
 0003:00003198       ??_C@_0GH@EIFCHBAJ@c?3?2Users?2tblair?2Perforce?2slscdev@ 1003f198     NameIndexMap.obj
 0003:00003204       ??_7?$Range@V?$basic_string@DU?$char_traits@D@std@@V?$allocator@D@2@@std@@@atat@@6B@ 1003f204     NameIndexMap.obj
 0003:00003214       ??_7?$StringRange@UCaseInsensitiveComparison@atat@@@atat@@6B@ 1003f214     NameIndexMap.obj
 0003:00003224       ??_7NameIndexMap@sass@@6B@ 1003f224     NameIndexMap.obj
 0003:0000322c       ??_7bad_lexical_cast@boost@@6B@ 1003f22c     NameIndexMap.obj
 0003:00003238       ??_7?$error_info_injector@Vbad_lexical_cast@boost@@@exception_detail@boost@@6Bbad_lexical_cast@2@@ 1003f238     NameIndexMap.obj
 0003:00003244       ??_7?$error_info_injector@Vbad_lexical_cast@boost@@@exception_detail@boost@@6Bexception@2@@ 1003f244     NameIndexMap.obj
 0003:0000324c       ??_7?$clone_impl@U?$error_info_injector@Vbad_lexical_cast@boost@@@exception_detail@boost@@@exception_detail@boost@@6Bbad_lexical_cast@2@@ 1003f24c     NameIndexMap.obj
 0003:00003258       ??_7?$clone_impl@U?$error_info_injector@Vbad_lexical_cast@boost@@@exception_detail@boost@@@exception_detail@boost@@6Bexception@2@@ 1003f258     NameIndexMap.obj
 0003:00003260       ??_7?$clone_impl@U?$error_info_injector@Vbad_lexical_cast@boost@@@exception_detail@boost@@@exception_detail@boost@@6B@ 1003f260     NameIndexMap.obj
